

Microchip MPLAB XC8 Assembler V2.35 build 20211206165544 
                                                                                               Sat Apr 23 12:25:03 2022

Microchip MPLAB XC8 C Compiler v2.35 (Free license) build 20211206165544 Og1 
     1                           	processor	16F887
     2                           	pagewidth 120
     3                           	opt	flic
     4                           	psect	strings,global,class=STRING,delta=2,noexec
     5                           	psect	cinit,global,class=CODE,merge=1,delta=2
     6                           	psect	bssCOMMON,global,class=COMMON,space=1,delta=1,noexec
     7                           	psect	bssBANK1,global,class=BANK1,space=1,delta=1,noexec
     8                           	psect	cstackBANK1,global,class=BANK1,space=1,delta=1,noexec
     9                           	psect	cstackCOMMON,global,class=COMMON,space=1,delta=1,noexec
    10                           	psect	cstackBANK0,global,class=BANK0,space=1,delta=1,noexec
    11                           	psect	maintext,global,class=CODE,split=1,delta=2
    12                           	psect	text1,local,class=CODE,merge=1,delta=2
    13                           	psect	text2,local,class=CODE,merge=1,delta=2,group=1
    14                           	psect	text3,local,class=CODE,merge=1,delta=2,group=1
    15                           	psect	text4,local,class=CODE,merge=1,delta=2,group=1
    16                           	psect	text5,local,class=CODE,merge=1,delta=2,group=1
    17                           	psect	text6,local,class=CODE,merge=1,delta=2,group=1
    18                           	psect	text7,local,class=CODE,merge=1,delta=2,group=1
    19                           	psect	text8,local,class=CODE,merge=1,delta=2,group=1
    20                           	psect	text9,local,class=CODE,merge=1,delta=2,group=1
    21                           	psect	text10,local,class=CODE,merge=1,delta=2
    22                           	psect	intentry,global,class=CODE,delta=2
    23                           	psect	idloc,global,abs,ovrld,class=IDLOC,space=5,delta=2,noexec
    24                           	psect	config,global,abs,ovrld,class=CONFIG,space=4,delta=2,noexec
    25                           	dabs	1,0x7E,2
    26  0000                     
    27                           ; Version 2.40
    28                           ; Generated 17/11/2021 GMT
    29                           ; 
    30                           ; Copyright © 2021, Microchip Technology Inc. and its subsidiaries ("Microchip")
    31                           ; All rights reserved.
    32                           ; 
    33                           ; This software is developed by Microchip Technology Inc. and its subsidiaries ("Microch
      +                          ip").
    34                           ; 
    35                           ; Redistribution and use in source and binary forms, with or without modification, are
    36                           ; permitted provided that the following conditions are met:
    37                           ; 
    38                           ;     1. Redistributions of source code must retain the above copyright notice, this lis
      +                          t of
    39                           ;        conditions and the following disclaimer.
    40                           ; 
    41                           ;     2. Redistributions in binary form must reproduce the above copyright notice, this 
      +                          list
    42                           ;        of conditions and the following disclaimer in the documentation and/or other
    43                           ;        materials provided with the distribution. Publication is not required when
    44                           ;        this file is used in an embedded application.
    45                           ; 
    46                           ;     3. Microchip's name may not be used to endorse or promote products derived from th
      +                          is
    47                           ;        software without specific prior written permission.
    48                           ; 
    49                           ; THIS SOFTWARE IS PROVIDED BY MICROCHIP "AS IS" AND ANY EXPRESS OR IMPLIED WARRANTIES,
    50                           ; INCLUDING, BUT NOT LIMITED TO, THE IMPLIED WARRANTIES OF MERCHANTABILITY AND FITNESS F
      +                          OR
    51                           ; PURPOSE ARE DISCLAIMED.  IN NO EVENT SHALL MICROCHIP BE LIABLE FOR ANY DIRECT, INDIREC
      +                          T,
    52                           ; INCIDENTAL, SPECIAL, EXEMPLARY, OR CONSEQUENTIAL DAMAGES (INCLUDING BUT NOT LIMITED TO
    53                           ; PROCUREMENT OF SUBSTITUTE GOODS OR SERVICES; LOSS OF USE, DATA OR PROFITS; OR BUSINESS
    54                           ; INTERRUPTION) HOWSOEVER CAUSED AND ON ANY THEORY OF LIABILITY, WHETHER IN CONTRACT, ST
      +                          RICT
    55                           ; LIABILITY, OR TORT (INCLUDING NEGLIGENCE OR OTHERWISE) ARISING IN ANY WAY OUT OF THE U
      +                          SE OF
    56                           ; THIS SOFTWARE, EVEN IF ADVISED OF THE POSSIBILITY OF SUCH DAMAGE.
    57                           ; 
    58                           ; 
    59                           ; Code-generator required, PIC16F887 Definitions
    60                           ; 
    61                           ; SFR Addresses
    62  0000                     	;# 
    63  0001                     	;# 
    64  0002                     	;# 
    65  0003                     	;# 
    66  0004                     	;# 
    67  0005                     	;# 
    68  0006                     	;# 
    69  0007                     	;# 
    70  0008                     	;# 
    71  0009                     	;# 
    72  000A                     	;# 
    73  000B                     	;# 
    74  000C                     	;# 
    75  000D                     	;# 
    76  000E                     	;# 
    77  000E                     	;# 
    78  000F                     	;# 
    79  0010                     	;# 
    80  0011                     	;# 
    81  0012                     	;# 
    82  0013                     	;# 
    83  0014                     	;# 
    84  0015                     	;# 
    85  0015                     	;# 
    86  0016                     	;# 
    87  0017                     	;# 
    88  0018                     	;# 
    89  0019                     	;# 
    90  001A                     	;# 
    91  001B                     	;# 
    92  001B                     	;# 
    93  001C                     	;# 
    94  001D                     	;# 
    95  001E                     	;# 
    96  001F                     	;# 
    97  0081                     	;# 
    98  0085                     	;# 
    99  0086                     	;# 
   100  0087                     	;# 
   101  0088                     	;# 
   102  0089                     	;# 
   103  008C                     	;# 
   104  008D                     	;# 
   105  008E                     	;# 
   106  008F                     	;# 
   107  0090                     	;# 
   108  0091                     	;# 
   109  0092                     	;# 
   110  0093                     	;# 
   111  0093                     	;# 
   112  0093                     	;# 
   113  0094                     	;# 
   114  0095                     	;# 
   115  0096                     	;# 
   116  0097                     	;# 
   117  0098                     	;# 
   118  0099                     	;# 
   119  009A                     	;# 
   120  009B                     	;# 
   121  009C                     	;# 
   122  009D                     	;# 
   123  009E                     	;# 
   124  009F                     	;# 
   125  0105                     	;# 
   126  0107                     	;# 
   127  0108                     	;# 
   128  0109                     	;# 
   129  010C                     	;# 
   130  010C                     	;# 
   131  010D                     	;# 
   132  010E                     	;# 
   133  010F                     	;# 
   134  0185                     	;# 
   135  0187                     	;# 
   136  0188                     	;# 
   137  0189                     	;# 
   138  018C                     	;# 
   139  018D                     	;# 
   140  0000                     	;# 
   141  0001                     	;# 
   142  0002                     	;# 
   143  0003                     	;# 
   144  0004                     	;# 
   145  0005                     	;# 
   146  0006                     	;# 
   147  0007                     	;# 
   148  0008                     	;# 
   149  0009                     	;# 
   150  000A                     	;# 
   151  000B                     	;# 
   152  000C                     	;# 
   153  000D                     	;# 
   154  000E                     	;# 
   155  000E                     	;# 
   156  000F                     	;# 
   157  0010                     	;# 
   158  0011                     	;# 
   159  0012                     	;# 
   160  0013                     	;# 
   161  0014                     	;# 
   162  0015                     	;# 
   163  0015                     	;# 
   164  0016                     	;# 
   165  0017                     	;# 
   166  0018                     	;# 
   167  0019                     	;# 
   168  001A                     	;# 
   169  001B                     	;# 
   170  001B                     	;# 
   171  001C                     	;# 
   172  001D                     	;# 
   173  001E                     	;# 
   174  001F                     	;# 
   175  0081                     	;# 
   176  0085                     	;# 
   177  0086                     	;# 
   178  0087                     	;# 
   179  0088                     	;# 
   180  0089                     	;# 
   181  008C                     	;# 
   182  008D                     	;# 
   183  008E                     	;# 
   184  008F                     	;# 
   185  0090                     	;# 
   186  0091                     	;# 
   187  0092                     	;# 
   188  0093                     	;# 
   189  0093                     	;# 
   190  0093                     	;# 
   191  0094                     	;# 
   192  0095                     	;# 
   193  0096                     	;# 
   194  0097                     	;# 
   195  0098                     	;# 
   196  0099                     	;# 
   197  009A                     	;# 
   198  009B                     	;# 
   199  009C                     	;# 
   200  009D                     	;# 
   201  009E                     	;# 
   202  009F                     	;# 
   203  0105                     	;# 
   204  0107                     	;# 
   205  0108                     	;# 
   206  0109                     	;# 
   207  010C                     	;# 
   208  010C                     	;# 
   209  010D                     	;# 
   210  010E                     	;# 
   211  010F                     	;# 
   212  0185                     	;# 
   213  0187                     	;# 
   214  0188                     	;# 
   215  0189                     	;# 
   216  018C                     	;# 
   217  018D                     	;# 
   218                           
   219                           	psect	strings
   220  07E4                     __pstrings:
   221  07E4                     stringtab:
   222  07E4                     __stringtab:
   223  07E4                     stringcode:	
   224                           ;	String table - string pointers are 1 byte each
   225                           
   226  07E4                     stringdir:
   227  07E4  3007               	movlw	high stringdir
   228  07E5  008A               	movwf	10
   229  07E6  0804               	movf	4,w
   230  07E7  0A84               	incf	4,f
   231  07E8  0782               	addwf	2,f
   232  07E9                     __stringbase:
   233  07E9  3400               	retlw	0
   234  07EA                     __end_of__stringtab:
   235  07EA                     _tabla:
   236  07EA  34FC               	retlw	252
   237  07EB  3460               	retlw	96
   238  07EC  34DA               	retlw	218
   239  07ED  34F2               	retlw	242
   240  07EE  3466               	retlw	102
   241  07EF  34B6               	retlw	182
   242  07F0  34BE               	retlw	190
   243  07F1  34E0               	retlw	224
   244  07F2  34FE               	retlw	254
   245  07F3  34F6               	retlw	246
   246  07F4  34EE               	retlw	238
   247  07F5  343E               	retlw	62
   248  07F6  349C               	retlw	156
   249  07F7  347A               	retlw	122
   250  07F8  349E               	retlw	158
   251  07F9  348E               	retlw	142
   252  07FA                     __end_of_tabla:
   253  0005                     _PORTA	set	5
   254  0001                     _TMR0	set	1
   255  0007                     _PORTC	set	7
   256  0008                     _PORTD	set	8
   257  000B                     _INTCONbits	set	11
   258  001E                     _ADRESH	set	30
   259  0006                     _PORTB	set	6
   260  001F                     _ADCON0bits	set	31
   261  000C                     _PIR1bits	set	12
   262  0038                     _RC0	set	56
   263  0040                     _RD0	set	64
   264  0041                     _RD1	set	65
   265  0042                     _RD2	set	66
   266  008C                     _PIE1bits	set	140
   267  009F                     _ADCON1bits	set	159
   268  0081                     _OPTION_REGbits	set	129
   269  0088                     _TRISD	set	136
   270  0087                     _TRISC	set	135
   271  0086                     _TRISB	set	134
   272  0085                     _TRISA	set	133
   273  008F                     _OSCCONbits	set	143
   274  0189                     _ANSELH	set	393
   275  0188                     _ANSEL	set	392
   276                           
   277                           	psect	cinit
   278  0013                     start_initialization:	
   279                           ; #config settings
   280                           
   281  0013                     __initialization:
   282                           
   283                           ; Clear objects allocated to COMMON
   284  0013  01F7               	clrf	__pbssCOMMON& (0+127)
   285                           
   286                           ; Clear objects allocated to BANK1
   287  0014  1683               	bsf	3,5	;RP0=1, select bank1
   288  0015  1303               	bcf	3,6	;RP1=0, select bank1
   289  0016  01B4               	clrf	__pbssBANK1& (0+127)
   290  0017  01B5               	clrf	(__pbssBANK1+1)& (0+127)
   291  0018  01B6               	clrf	(__pbssBANK1+2)& (0+127)
   292  0019  01B7               	clrf	(__pbssBANK1+3)& (0+127)
   293  001A                     end_of_initialization:	
   294                           ;End of C runtime variable initialization code
   295                           
   296  001A                     __end_of__initialization:
   297  001A  0183               	clrf	3
   298  001B  120A  158A  2D99   	ljmp	_main	;jump to C main() function
   299                           
   300                           	psect	bssCOMMON
   301  0077                     __pbssCOMMON:
   302  0077                     _display:
   303  0077                     	ds	1
   304                           
   305                           	psect	bssBANK1
   306  00B4                     __pbssBANK1:
   307  00B4                     _pot2:
   308  00B4                     	ds	1
   309  00B5                     _centena:
   310  00B5                     	ds	1
   311  00B6                     _decena:
   312  00B6                     	ds	1
   313  00B7                     _unidad:
   314  00B7                     	ds	1
   315                           
   316                           	psect	cstackBANK1
   317  00A0                     __pcstackBANK1:
   318  00A0                     ?___fltol:
   319  00A0                     ___fltol@f1:	
   320                           ; 4 bytes @ 0x0
   321                           
   322                           
   323                           ; 4 bytes @ 0x0
   324  00A0                     	ds	4
   325  00A4                     ??___fltol:
   326                           
   327                           ; 1 bytes @ 0x4
   328  00A4                     	ds	5
   329  00A9                     ??_main:
   330                           
   331                           ; 1 bytes @ 0x9
   332  00A9                     	ds	7
   333  00B0                     _main$882:
   334                           
   335                           ; 4 bytes @ 0x10
   336  00B0                     	ds	4
   337                           
   338                           	psect	cstackCOMMON
   339  0070                     __pcstackCOMMON:
   340  0070                     ?_setup:
   341  0070                     ?_isr:	
   342                           ; 1 bytes @ 0x0
   343                           
   344  0070                     ??_isr:	
   345                           ; 1 bytes @ 0x0
   346                           
   347  0070                     ?_main:	
   348                           ; 1 bytes @ 0x0
   349                           
   350                           
   351                           ; 1 bytes @ 0x0
   352  0070                     	ds	5
   353  0075                     ??_setup:
   354  0075                     ??___wmul:	
   355                           ; 1 bytes @ 0x5
   356                           
   357  0075                     ?__Umul8_16:	
   358                           ; 1 bytes @ 0x5
   359                           
   360  0075                     __Umul8_16@multiplicand:	
   361                           ; 2 bytes @ 0x5
   362                           
   363  0075                     ___wmul@product:	
   364                           ; 1 bytes @ 0x5
   365                           
   366                           
   367                           ; 2 bytes @ 0x5
   368  0075                     	ds	2
   369  0077                     ??___flsub:
   370                           
   371                           	psect	cstackBANK0
   372  0020                     __pcstackBANK0:	
   373                           ; 1 bytes @ 0x7
   374                           
   375  0020                     ??__Umul8_16:
   376  0020                     ?___wmul:	
   377                           ; 1 bytes @ 0x0
   378                           
   379  0020                     ?___fladd:	
   380                           ; 2 bytes @ 0x0
   381                           
   382  0020                     ___wmul@multiplier:	
   383                           ; 4 bytes @ 0x0
   384                           
   385  0020                     ___fladd@b:	
   386                           ; 2 bytes @ 0x0
   387                           
   388                           
   389                           ; 4 bytes @ 0x0
   390  0020                     	ds	2
   391  0022                     ___wmul@multiplicand:
   392  0022                     __Umul8_16@product:	
   393                           ; 2 bytes @ 0x2
   394                           
   395                           
   396                           ; 2 bytes @ 0x2
   397  0022                     	ds	2
   398  0024                     ?___xxtofl:
   399  0024                     __Umul8_16@word_mpld:	
   400                           ; 4 bytes @ 0x4
   401                           
   402  0024                     ___fladd@a:	
   403                           ; 2 bytes @ 0x4
   404                           
   405  0024                     ___xxtofl@val:	
   406                           ; 4 bytes @ 0x4
   407                           
   408                           
   409                           ; 4 bytes @ 0x4
   410  0024                     	ds	2
   411  0026                     __Umul8_16@multiplier:
   412                           
   413                           ; 1 bytes @ 0x6
   414  0026                     	ds	2
   415  0028                     ??___fladd:
   416  0028                     ??___xxtofl:	
   417                           ; 1 bytes @ 0x8
   418                           
   419                           
   420                           ; 1 bytes @ 0x8
   421  0028                     	ds	4
   422  002C                     ___xxtofl@sign:
   423                           
   424                           ; 1 bytes @ 0xC
   425  002C                     	ds	1
   426  002D                     ___xxtofl@exp:
   427                           
   428                           ; 1 bytes @ 0xD
   429  002D                     	ds	1
   430  002E                     ___xxtofl@arg:
   431                           
   432                           ; 4 bytes @ 0xE
   433  002E                     	ds	2
   434  0030                     ___fladd@signs:
   435                           
   436                           ; 1 bytes @ 0x10
   437  0030                     	ds	1
   438  0031                     ___fladd@aexp:
   439                           
   440                           ; 1 bytes @ 0x11
   441  0031                     	ds	1
   442  0032                     ?___flmul:
   443  0032                     ___fladd@bexp:	
   444                           ; 4 bytes @ 0x12
   445                           
   446  0032                     ___flmul@b:	
   447                           ; 1 bytes @ 0x12
   448                           
   449                           
   450                           ; 4 bytes @ 0x12
   451  0032                     	ds	1
   452  0033                     ___fladd@grs:
   453                           
   454                           ; 1 bytes @ 0x13
   455  0033                     	ds	3
   456  0036                     ___flmul@a:
   457                           
   458                           ; 4 bytes @ 0x16
   459  0036                     	ds	4
   460  003A                     ??___flmul:
   461                           
   462                           ; 1 bytes @ 0x1A
   463  003A                     	ds	5
   464  003F                     ___flmul@sign:
   465                           
   466                           ; 1 bytes @ 0x1F
   467  003F                     	ds	1
   468  0040                     ___flmul@aexp:
   469                           
   470                           ; 1 bytes @ 0x20
   471  0040                     	ds	1
   472  0041                     ___flmul@grs:
   473                           
   474                           ; 4 bytes @ 0x21
   475  0041                     	ds	4
   476  0045                     ___flmul@bexp:
   477                           
   478                           ; 1 bytes @ 0x25
   479  0045                     	ds	1
   480  0046                     ___flmul@prod:
   481                           
   482                           ; 4 bytes @ 0x26
   483  0046                     	ds	4
   484  004A                     ___flmul@temp:
   485                           
   486                           ; 2 bytes @ 0x2A
   487  004A                     	ds	2
   488  004C                     ?___flsub:
   489  004C                     ___flsub@a:	
   490                           ; 4 bytes @ 0x2C
   491                           
   492                           
   493                           ; 4 bytes @ 0x2C
   494  004C                     	ds	4
   495  0050                     ___flsub@b:
   496                           
   497                           ; 4 bytes @ 0x30
   498  0050                     	ds	4
   499  0054                     ?___fldiv:
   500  0054                     ___fldiv@a:	
   501                           ; 4 bytes @ 0x34
   502                           
   503                           
   504                           ; 4 bytes @ 0x34
   505  0054                     	ds	4
   506  0058                     ___fldiv@b:
   507                           
   508                           ; 4 bytes @ 0x38
   509  0058                     	ds	4
   510  005C                     ??___fldiv:
   511                           
   512                           ; 1 bytes @ 0x3C
   513  005C                     	ds	5
   514  0061                     ___fldiv@rem:
   515                           
   516                           ; 4 bytes @ 0x41
   517  0061                     	ds	4
   518  0065                     ___fldiv@sign:
   519                           
   520                           ; 1 bytes @ 0x45
   521  0065                     	ds	1
   522  0066                     ___fldiv@new_exp:
   523                           
   524                           ; 2 bytes @ 0x46
   525  0066                     	ds	2
   526  0068                     ___fldiv@grs:
   527                           
   528                           ; 4 bytes @ 0x48
   529  0068                     	ds	4
   530  006C                     ___fldiv@bexp:
   531                           
   532                           ; 1 bytes @ 0x4C
   533  006C                     	ds	1
   534  006D                     ___fldiv@aexp:
   535                           
   536                           ; 1 bytes @ 0x4D
   537  006D                     	ds	1
   538  006E                     ___fltol@sign1:
   539                           
   540                           ; 1 bytes @ 0x4E
   541  006E                     	ds	1
   542  006F                     ___fltol@exp1:
   543                           
   544                           ; 1 bytes @ 0x4F
   545  006F                     	ds	1
   546                           
   547                           	psect	maintext
   548  0D99                     __pmaintext:	
   549 ;;
   550 ;;Main: autosize = 0, tempsize = 7, incstack = 0, save=0
   551 ;;
   552 ;; *************** function _main *****************
   553 ;; Defined at:
   554 ;;		line 75 in file "ADC.c"
   555 ;; Parameters:    Size  Location     Type
   556 ;;		None
   557 ;; Auto vars:     Size  Location     Type
   558 ;;		None
   559 ;; Return value:  Size  Location     Type
   560 ;;                  1    wreg      void 
   561 ;; Registers used:
   562 ;;		wreg, status,2, status,0, btemp+1, pclath, cstack
   563 ;; Tracked objects:
   564 ;;		On entry : B00/0
   565 ;;		On exit  : 0/0
   566 ;;		Unchanged: 0/0
   567 ;; Data sizes:     COMMON   BANK0   BANK1   BANK3   BANK2
   568 ;;      Params:         0       0       0       0       0
   569 ;;      Locals:         0       0       4       0       0
   570 ;;      Temps:          0       0       7       0       0
   571 ;;      Totals:         0       0      11       0       0
   572 ;;Total ram usage:       11 bytes
   573 ;; Hardware stack levels required when called: 4
   574 ;; This function calls:
   575 ;;		___fldiv
   576 ;;		___flmul
   577 ;;		___flsub
   578 ;;		___fltol
   579 ;;		___wmul
   580 ;;		___xxtofl
   581 ;;		_setup
   582 ;; This function is called by:
   583 ;;		Startup code after reset
   584 ;; This function uses a non-reentrant model
   585 ;;
   586                           
   587  0D99                     _main:	
   588                           ;psect for function _main
   589                           
   590  0D99                     l2566:	
   591                           ;incstack = 0
   592                           ; Regs used in _main: [wreg+status,2+status,0+btemp+1+pclath+cstack]
   593                           
   594                           
   595                           ;ADC.c: 76:     setup();
   596  0D99  120A  158A  236A  120A  158A  	fcall	_setup
   597  0D9E                     l2568:
   598                           
   599                           ;ADC.c: 79:         if(ADCON0bits.GO == 0){
   600  0D9E  1283               	bcf	3,5	;RP0=0, select bank0
   601  0D9F  1303               	bcf	3,6	;RP1=0, select bank0
   602  0DA0  189F               	btfsc	31,1	;volatile
   603  0DA1  2DA3               	goto	u4151
   604  0DA2  2DA4               	goto	u4150
   605  0DA3                     u4151:
   606  0DA3  2DD1               	goto	l2582
   607  0DA4                     u4150:
   608  0DA4                     l2570:
   609                           
   610                           ;ADC.c: 80:             if(ADCON0bits.CHS == 0b0000)
   611  0DA4  0C1F               	rrf	31,w	;volatile
   612  0DA5  1683               	bsf	3,5	;RP0=1, select bank1
   613  0DA6  1303               	bcf	3,6	;RP1=0, select bank1
   614  0DA7  00A9               	movwf	??_main^(0+128)
   615  0DA8  0C29               	rrf	??_main^(0+128),w
   616  0DA9  390F               	andlw	15
   617  0DAA  3A00               	xorlw	0
   618  0DAB  1D03               	skipz
   619  0DAC  2DAE               	goto	u4161
   620  0DAD  2DAF               	goto	u4160
   621  0DAE                     u4161:
   622  0DAE  2DB6               	goto	l2574
   623  0DAF                     u4160:
   624  0DAF                     l2572:
   625                           
   626                           ;ADC.c: 81:                 ADCON0bits.CHS = 0b0001;
   627  0DAF  1283               	bcf	3,5	;RP0=0, select bank0
   628  0DB0  1303               	bcf	3,6	;RP1=0, select bank0
   629  0DB1  081F               	movf	31,w	;volatile
   630  0DB2  39C3               	andlw	-61
   631  0DB3  3804               	iorlw	4
   632  0DB4  009F               	movwf	31	;volatile
   633  0DB5  2DC7               	goto	l2578
   634  0DB6                     l2574:
   635  0DB6  1283               	bcf	3,5	;RP0=0, select bank0
   636  0DB7  1303               	bcf	3,6	;RP1=0, select bank0
   637  0DB8  0C1F               	rrf	31,w	;volatile
   638  0DB9  1683               	bsf	3,5	;RP0=1, select bank1
   639  0DBA  1303               	bcf	3,6	;RP1=0, select bank1
   640  0DBB  00A9               	movwf	??_main^(0+128)
   641  0DBC  0C29               	rrf	??_main^(0+128),w
   642  0DBD  390F               	andlw	15
   643  0DBE  3A01               	xorlw	1
   644  0DBF  1D03               	skipz
   645  0DC0  2DC2               	goto	u4171
   646  0DC1  2DC3               	goto	u4170
   647  0DC2                     u4171:
   648  0DC2  2DC7               	goto	l2578
   649  0DC3                     u4170:
   650  0DC3                     l2576:
   651                           
   652                           ;ADC.c: 83:                 ADCON0bits.CHS = 0b0000;
   653  0DC3  30C3               	movlw	-61
   654  0DC4  1283               	bcf	3,5	;RP0=0, select bank0
   655  0DC5  1303               	bcf	3,6	;RP1=0, select bank0
   656  0DC6  059F               	andwf	31,f	;volatile
   657  0DC7                     l2578:
   658                           
   659                           ;ADC.c: 84:             _delay((unsigned long)((40)*(1000000/4000000.0)));
   660  0DC7  3002               	movlw	2
   661  0DC8  1683               	bsf	3,5	;RP0=1, select bank1
   662  0DC9  1303               	bcf	3,6	;RP1=0, select bank1
   663  0DCA  00A9               	movwf	??_main^(0+128)
   664  0DCB                     u4187:
   665  0DCB  0BA9               	decfsz	??_main^(0+128),f
   666  0DCC  2DCB               	goto	u4187
   667  0DCD  0000               	nop
   668  0DCE                     l2580:
   669                           
   670                           ;ADC.c: 85:             ADCON0bits.GO = 1;
   671  0DCE  1283               	bcf	3,5	;RP0=0, select bank0
   672  0DCF  1303               	bcf	3,6	;RP1=0, select bank0
   673  0DD0  149F               	bsf	31,1	;volatile
   674  0DD1                     l2582:
   675                           
   676                           ;ADC.c: 88:         centena = (uint8_t)((pot2*1.9607)/100);
   677  0DD1  1683               	bsf	3,5	;RP0=1, select bank1
   678  0DD2  1303               	bcf	3,6	;RP1=0, select bank1
   679  0DD3  0834               	movf	_pot2^(0+128),w
   680  0DD4  00A9               	movwf	??_main^(0+128)
   681  0DD5  01AA               	clrf	(??_main^(0+128)+1)
   682  0DD6  01AB               	clrf	(??_main^(0+128)+2)
   683  0DD7  01AC               	clrf	(??_main^(0+128)+3)
   684  0DD8  082C               	movf	(??_main+3)^(0+128),w
   685  0DD9  1283               	bcf	3,5	;RP0=0, select bank0
   686  0DDA  1303               	bcf	3,6	;RP1=0, select bank0
   687  0DDB  00A7               	movwf	___xxtofl@val+3
   688  0DDC  1683               	bsf	3,5	;RP0=1, select bank1
   689  0DDD  1303               	bcf	3,6	;RP1=0, select bank1
   690  0DDE  082B               	movf	(??_main+2)^(0+128),w
   691  0DDF  1283               	bcf	3,5	;RP0=0, select bank0
   692  0DE0  1303               	bcf	3,6	;RP1=0, select bank0
   693  0DE1  00A6               	movwf	___xxtofl@val+2
   694  0DE2  1683               	bsf	3,5	;RP0=1, select bank1
   695  0DE3  1303               	bcf	3,6	;RP1=0, select bank1
   696  0DE4  082A               	movf	(??_main+1)^(0+128),w
   697  0DE5  1283               	bcf	3,5	;RP0=0, select bank0
   698  0DE6  1303               	bcf	3,6	;RP1=0, select bank0
   699  0DE7  00A5               	movwf	___xxtofl@val+1
   700  0DE8  1683               	bsf	3,5	;RP0=1, select bank1
   701  0DE9  1303               	bcf	3,6	;RP1=0, select bank1
   702  0DEA  0829               	movf	??_main^(0+128),w
   703  0DEB  1283               	bcf	3,5	;RP0=0, select bank0
   704  0DEC  1303               	bcf	3,6	;RP1=0, select bank0
   705  0DED  00A4               	movwf	___xxtofl@val
   706  0DEE  3001               	movlw	1
   707  0DEF  120A  158A  24DD  120A  158A  	fcall	___xxtofl
   708  0DF4  1283               	bcf	3,5	;RP0=0, select bank0
   709  0DF5  1303               	bcf	3,6	;RP1=0, select bank0
   710  0DF6  0827               	movf	?___xxtofl+3,w
   711  0DF7  00B9               	movwf	___flmul@a+3
   712  0DF8  0826               	movf	?___xxtofl+2,w
   713  0DF9  00B8               	movwf	___flmul@a+2
   714  0DFA  0825               	movf	?___xxtofl+1,w
   715  0DFB  00B7               	movwf	___flmul@a+1
   716  0DFC  0824               	movf	?___xxtofl,w
   717  0DFD  00B6               	movwf	___flmul@a
   718  0DFE  303F               	movlw	63
   719  0DFF  00B5               	movwf	___flmul@b+3
   720  0E00  30FA               	movlw	250
   721  0E01  00B4               	movwf	___flmul@b+2
   722  0E02  30F8               	movlw	248
   723  0E03  00B3               	movwf	___flmul@b+1
   724  0E04  3038               	movlw	56
   725  0E05  00B2               	movwf	___flmul@b
   726  0E06  120A  118A  201E  120A  158A  	fcall	___flmul
   727  0E0B  1283               	bcf	3,5	;RP0=0, select bank0
   728  0E0C  1303               	bcf	3,6	;RP1=0, select bank0
   729  0E0D  0835               	movf	?___flmul+3,w
   730  0E0E  00DB               	movwf	___fldiv@b+3
   731  0E0F  0834               	movf	?___flmul+2,w
   732  0E10  00DA               	movwf	___fldiv@b+2
   733  0E11  0833               	movf	?___flmul+1,w
   734  0E12  00D9               	movwf	___fldiv@b+1
   735  0E13  0832               	movf	?___flmul,w
   736  0E14  00D8               	movwf	___fldiv@b
   737  0E15  3042               	movlw	66
   738  0E16  00D7               	movwf	___fldiv@a+3
   739  0E17  30C8               	movlw	200
   740  0E18  00D6               	movwf	___fldiv@a+2
   741  0E19  3000               	movlw	0
   742  0E1A  00D5               	movwf	___fldiv@a+1
   743  0E1B  3000               	movlw	0
   744  0E1C  00D4               	movwf	___fldiv@a
   745  0E1D  120A  118A  2607  120A  158A  	fcall	___fldiv
   746  0E22  1283               	bcf	3,5	;RP0=0, select bank0
   747  0E23  1303               	bcf	3,6	;RP1=0, select bank0
   748  0E24  0857               	movf	?___fldiv+3,w
   749  0E25  1683               	bsf	3,5	;RP0=1, select bank1
   750  0E26  1303               	bcf	3,6	;RP1=0, select bank1
   751  0E27  00A3               	movwf	(___fltol@f1+3)^(0+128)
   752  0E28  1283               	bcf	3,5	;RP0=0, select bank0
   753  0E29  1303               	bcf	3,6	;RP1=0, select bank0
   754  0E2A  0856               	movf	?___fldiv+2,w
   755  0E2B  1683               	bsf	3,5	;RP0=1, select bank1
   756  0E2C  1303               	bcf	3,6	;RP1=0, select bank1
   757  0E2D  00A2               	movwf	(___fltol@f1+2)^(0+128)
   758  0E2E  1283               	bcf	3,5	;RP0=0, select bank0
   759  0E2F  1303               	bcf	3,6	;RP1=0, select bank0
   760  0E30  0855               	movf	?___fldiv+1,w
   761  0E31  1683               	bsf	3,5	;RP0=1, select bank1
   762  0E32  1303               	bcf	3,6	;RP1=0, select bank1
   763  0E33  00A1               	movwf	(___fltol@f1+1)^(0+128)
   764  0E34  1283               	bcf	3,5	;RP0=0, select bank0
   765  0E35  1303               	bcf	3,6	;RP1=0, select bank0
   766  0E36  0854               	movf	?___fldiv,w
   767  0E37  1683               	bsf	3,5	;RP0=1, select bank1
   768  0E38  1303               	bcf	3,6	;RP1=0, select bank1
   769  0E39  00A0               	movwf	___fltol@f1^(0+128)
   770  0E3A  120A  158A  23AB  120A  158A  	fcall	___fltol
   771  0E3F  1683               	bsf	3,5	;RP0=1, select bank1
   772  0E40  1303               	bcf	3,6	;RP1=0, select bank1
   773  0E41  0820               	movf	?___fltol^(0+128),w
   774  0E42  00AD               	movwf	(??_main+4)^(0+128)
   775  0E43  082D               	movf	(??_main+4)^(0+128),w
   776  0E44  00B5               	movwf	_centena^(0+128)
   777  0E45                     l2584:
   778                           
   779                           ;ADC.c: 89:         decena = (uint8_t)(((pot2*1.9607) - (100 * centena))/10);
   780  0E45  0834               	movf	_pot2^(0+128),w
   781  0E46  00A9               	movwf	??_main^(0+128)
   782  0E47  01AA               	clrf	(??_main^(0+128)+1)
   783  0E48  01AB               	clrf	(??_main^(0+128)+2)
   784  0E49  01AC               	clrf	(??_main^(0+128)+3)
   785  0E4A  082C               	movf	(??_main+3)^(0+128),w
   786  0E4B  1283               	bcf	3,5	;RP0=0, select bank0
   787  0E4C  1303               	bcf	3,6	;RP1=0, select bank0
   788  0E4D  00A7               	movwf	___xxtofl@val+3
   789  0E4E  1683               	bsf	3,5	;RP0=1, select bank1
   790  0E4F  1303               	bcf	3,6	;RP1=0, select bank1
   791  0E50  082B               	movf	(??_main+2)^(0+128),w
   792  0E51  1283               	bcf	3,5	;RP0=0, select bank0
   793  0E52  1303               	bcf	3,6	;RP1=0, select bank0
   794  0E53  00A6               	movwf	___xxtofl@val+2
   795  0E54  1683               	bsf	3,5	;RP0=1, select bank1
   796  0E55  1303               	bcf	3,6	;RP1=0, select bank1
   797  0E56  082A               	movf	(??_main+1)^(0+128),w
   798  0E57  1283               	bcf	3,5	;RP0=0, select bank0
   799  0E58  1303               	bcf	3,6	;RP1=0, select bank0
   800  0E59  00A5               	movwf	___xxtofl@val+1
   801  0E5A  1683               	bsf	3,5	;RP0=1, select bank1
   802  0E5B  1303               	bcf	3,6	;RP1=0, select bank1
   803  0E5C  0829               	movf	??_main^(0+128),w
   804  0E5D  1283               	bcf	3,5	;RP0=0, select bank0
   805  0E5E  1303               	bcf	3,6	;RP1=0, select bank0
   806  0E5F  00A4               	movwf	___xxtofl@val
   807  0E60  3001               	movlw	1
   808  0E61  120A  158A  24DD  120A  158A  	fcall	___xxtofl
   809  0E66  1283               	bcf	3,5	;RP0=0, select bank0
   810  0E67  1303               	bcf	3,6	;RP1=0, select bank0
   811  0E68  0827               	movf	?___xxtofl+3,w
   812  0E69  00B9               	movwf	___flmul@a+3
   813  0E6A  0826               	movf	?___xxtofl+2,w
   814  0E6B  00B8               	movwf	___flmul@a+2
   815  0E6C  0825               	movf	?___xxtofl+1,w
   816  0E6D  00B7               	movwf	___flmul@a+1
   817  0E6E  0824               	movf	?___xxtofl,w
   818  0E6F  00B6               	movwf	___flmul@a
   819  0E70  303F               	movlw	63
   820  0E71  00B5               	movwf	___flmul@b+3
   821  0E72  30FA               	movlw	250
   822  0E73  00B4               	movwf	___flmul@b+2
   823  0E74  30F8               	movlw	248
   824  0E75  00B3               	movwf	___flmul@b+1
   825  0E76  3038               	movlw	56
   826  0E77  00B2               	movwf	___flmul@b
   827  0E78  120A  118A  201E  120A  158A  	fcall	___flmul
   828  0E7D  1283               	bcf	3,5	;RP0=0, select bank0
   829  0E7E  1303               	bcf	3,6	;RP1=0, select bank0
   830  0E7F  0835               	movf	?___flmul+3,w
   831  0E80  00D3               	movwf	___flsub@b+3
   832  0E81  0834               	movf	?___flmul+2,w
   833  0E82  00D2               	movwf	___flsub@b+2
   834  0E83  0833               	movf	?___flmul+1,w
   835  0E84  00D1               	movwf	___flsub@b+1
   836  0E85  0832               	movf	?___flmul,w
   837  0E86  00D0               	movwf	___flsub@b
   838  0E87  3064               	movlw	100
   839  0E88  00A2               	movwf	___wmul@multiplicand
   840  0E89  3000               	movlw	0
   841  0E8A  00A3               	movwf	___wmul@multiplicand+1
   842  0E8B  1683               	bsf	3,5	;RP0=1, select bank1
   843  0E8C  1303               	bcf	3,6	;RP1=0, select bank1
   844  0E8D  0835               	movf	_centena^(0+128),w
   845  0E8E  00AD               	movwf	(??_main+4)^(0+128)
   846  0E8F  01AE               	clrf	((??_main+4)^(0+128)+1)
   847  0E90  082D               	movf	(??_main+4)^(0+128),w
   848  0E91  1283               	bcf	3,5	;RP0=0, select bank0
   849  0E92  1303               	bcf	3,6	;RP1=0, select bank0
   850  0E93  00A0               	movwf	___wmul@multiplier
   851  0E94  1683               	bsf	3,5	;RP0=1, select bank1
   852  0E95  1303               	bcf	3,6	;RP1=0, select bank1
   853  0E96  082E               	movf	(??_main+5)^(0+128),w
   854  0E97  1283               	bcf	3,5	;RP0=0, select bank0
   855  0E98  1303               	bcf	3,6	;RP1=0, select bank0
   856  0E99  00A1               	movwf	___wmul@multiplier+1
   857  0E9A  120A  158A  231A  120A  158A  	fcall	___wmul
   858  0E9F  1283               	bcf	3,5	;RP0=0, select bank0
   859  0EA0  1303               	bcf	3,6	;RP1=0, select bank0
   860  0EA1  0820               	movf	?___wmul,w
   861  0EA2  00A4               	movwf	___xxtofl@val
   862  0EA3  0821               	movf	?___wmul+1,w
   863  0EA4  00A5               	movwf	___xxtofl@val+1
   864  0EA5  3000               	movlw	0
   865  0EA6  1BA5               	btfsc	___xxtofl@val+1,7
   866  0EA7  30FF               	movlw	255
   867  0EA8  00A6               	movwf	___xxtofl@val+2
   868  0EA9  00A7               	movwf	___xxtofl@val+3
   869  0EAA  3001               	movlw	1
   870  0EAB  120A  158A  24DD  120A  158A  	fcall	___xxtofl
   871  0EB0  1283               	bcf	3,5	;RP0=0, select bank0
   872  0EB1  1303               	bcf	3,6	;RP1=0, select bank0
   873  0EB2  0827               	movf	?___xxtofl+3,w
   874  0EB3  00CF               	movwf	___flsub@a+3
   875  0EB4  0826               	movf	?___xxtofl+2,w
   876  0EB5  00CE               	movwf	___flsub@a+2
   877  0EB6  0825               	movf	?___xxtofl+1,w
   878  0EB7  00CD               	movwf	___flsub@a+1
   879  0EB8  0824               	movf	?___xxtofl,w
   880  0EB9  00CC               	movwf	___flsub@a
   881  0EBA  120A  158A  22F6  120A  158A  	fcall	___flsub
   882  0EBF  1283               	bcf	3,5	;RP0=0, select bank0
   883  0EC0  1303               	bcf	3,6	;RP1=0, select bank0
   884  0EC1  084F               	movf	?___flsub+3,w
   885  0EC2  00DB               	movwf	___fldiv@b+3
   886  0EC3  084E               	movf	?___flsub+2,w
   887  0EC4  00DA               	movwf	___fldiv@b+2
   888  0EC5  084D               	movf	?___flsub+1,w
   889  0EC6  00D9               	movwf	___fldiv@b+1
   890  0EC7  084C               	movf	?___flsub,w
   891  0EC8  00D8               	movwf	___fldiv@b
   892  0EC9  3041               	movlw	65
   893  0ECA  00D7               	movwf	___fldiv@a+3
   894  0ECB  3020               	movlw	32
   895  0ECC  00D6               	movwf	___fldiv@a+2
   896  0ECD  3000               	movlw	0
   897  0ECE  00D5               	movwf	___fldiv@a+1
   898  0ECF  3000               	movlw	0
   899  0ED0  00D4               	movwf	___fldiv@a
   900  0ED1  120A  118A  2607  120A  158A  	fcall	___fldiv
   901  0ED6  1283               	bcf	3,5	;RP0=0, select bank0
   902  0ED7  1303               	bcf	3,6	;RP1=0, select bank0
   903  0ED8  0857               	movf	?___fldiv+3,w
   904  0ED9  1683               	bsf	3,5	;RP0=1, select bank1
   905  0EDA  1303               	bcf	3,6	;RP1=0, select bank1
   906  0EDB  00A3               	movwf	(___fltol@f1+3)^(0+128)
   907  0EDC  1283               	bcf	3,5	;RP0=0, select bank0
   908  0EDD  1303               	bcf	3,6	;RP1=0, select bank0
   909  0EDE  0856               	movf	?___fldiv+2,w
   910  0EDF  1683               	bsf	3,5	;RP0=1, select bank1
   911  0EE0  1303               	bcf	3,6	;RP1=0, select bank1
   912  0EE1  00A2               	movwf	(___fltol@f1+2)^(0+128)
   913  0EE2  1283               	bcf	3,5	;RP0=0, select bank0
   914  0EE3  1303               	bcf	3,6	;RP1=0, select bank0
   915  0EE4  0855               	movf	?___fldiv+1,w
   916  0EE5  1683               	bsf	3,5	;RP0=1, select bank1
   917  0EE6  1303               	bcf	3,6	;RP1=0, select bank1
   918  0EE7  00A1               	movwf	(___fltol@f1+1)^(0+128)
   919  0EE8  1283               	bcf	3,5	;RP0=0, select bank0
   920  0EE9  1303               	bcf	3,6	;RP1=0, select bank0
   921  0EEA  0854               	movf	?___fldiv,w
   922  0EEB  1683               	bsf	3,5	;RP0=1, select bank1
   923  0EEC  1303               	bcf	3,6	;RP1=0, select bank1
   924  0EED  00A0               	movwf	___fltol@f1^(0+128)
   925  0EEE  120A  158A  23AB  120A  158A  	fcall	___fltol
   926  0EF3  1683               	bsf	3,5	;RP0=1, select bank1
   927  0EF4  1303               	bcf	3,6	;RP1=0, select bank1
   928  0EF5  0820               	movf	?___fltol^(0+128),w
   929  0EF6  00AF               	movwf	(??_main+6)^(0+128)
   930  0EF7  082F               	movf	(??_main+6)^(0+128),w
   931  0EF8  00B6               	movwf	_decena^(0+128)
   932  0EF9                     l2586:
   933                           
   934                           ;ADC.c: 90:         unidad = (uint8_t)((pot2*1.9607) - (100 * centena)-(10 * decena));
   935  0EF9  0834               	movf	_pot2^(0+128),w
   936  0EFA  00A9               	movwf	??_main^(0+128)
   937  0EFB  01AA               	clrf	(??_main^(0+128)+1)
   938  0EFC  01AB               	clrf	(??_main^(0+128)+2)
   939  0EFD  01AC               	clrf	(??_main^(0+128)+3)
   940  0EFE  082C               	movf	(??_main+3)^(0+128),w
   941  0EFF  1283               	bcf	3,5	;RP0=0, select bank0
   942  0F00  1303               	bcf	3,6	;RP1=0, select bank0
   943  0F01  00A7               	movwf	___xxtofl@val+3
   944  0F02  1683               	bsf	3,5	;RP0=1, select bank1
   945  0F03  1303               	bcf	3,6	;RP1=0, select bank1
   946  0F04  082B               	movf	(??_main+2)^(0+128),w
   947  0F05  1283               	bcf	3,5	;RP0=0, select bank0
   948  0F06  1303               	bcf	3,6	;RP1=0, select bank0
   949  0F07  00A6               	movwf	___xxtofl@val+2
   950  0F08  1683               	bsf	3,5	;RP0=1, select bank1
   951  0F09  1303               	bcf	3,6	;RP1=0, select bank1
   952  0F0A  082A               	movf	(??_main+1)^(0+128),w
   953  0F0B  1283               	bcf	3,5	;RP0=0, select bank0
   954  0F0C  1303               	bcf	3,6	;RP1=0, select bank0
   955  0F0D  00A5               	movwf	___xxtofl@val+1
   956  0F0E  1683               	bsf	3,5	;RP0=1, select bank1
   957  0F0F  1303               	bcf	3,6	;RP1=0, select bank1
   958  0F10  0829               	movf	??_main^(0+128),w
   959  0F11  1283               	bcf	3,5	;RP0=0, select bank0
   960  0F12  1303               	bcf	3,6	;RP1=0, select bank0
   961  0F13  00A4               	movwf	___xxtofl@val
   962  0F14  3001               	movlw	1
   963  0F15  120A  158A  24DD  120A  158A  	fcall	___xxtofl
   964  0F1A  1283               	bcf	3,5	;RP0=0, select bank0
   965  0F1B  1303               	bcf	3,6	;RP1=0, select bank0
   966  0F1C  0827               	movf	?___xxtofl+3,w
   967  0F1D  00B9               	movwf	___flmul@a+3
   968  0F1E  0826               	movf	?___xxtofl+2,w
   969  0F1F  00B8               	movwf	___flmul@a+2
   970  0F20  0825               	movf	?___xxtofl+1,w
   971  0F21  00B7               	movwf	___flmul@a+1
   972  0F22  0824               	movf	?___xxtofl,w
   973  0F23  00B6               	movwf	___flmul@a
   974  0F24  303F               	movlw	63
   975  0F25  00B5               	movwf	___flmul@b+3
   976  0F26  30FA               	movlw	250
   977  0F27  00B4               	movwf	___flmul@b+2
   978  0F28  30F8               	movlw	248
   979  0F29  00B3               	movwf	___flmul@b+1
   980  0F2A  3038               	movlw	56
   981  0F2B  00B2               	movwf	___flmul@b
   982  0F2C  120A  118A  201E  120A  158A  	fcall	___flmul
   983  0F31  1283               	bcf	3,5	;RP0=0, select bank0
   984  0F32  1303               	bcf	3,6	;RP1=0, select bank0
   985  0F33  0835               	movf	?___flmul+3,w
   986  0F34  00D3               	movwf	___flsub@b+3
   987  0F35  0834               	movf	?___flmul+2,w
   988  0F36  00D2               	movwf	___flsub@b+2
   989  0F37  0833               	movf	?___flmul+1,w
   990  0F38  00D1               	movwf	___flsub@b+1
   991  0F39  0832               	movf	?___flmul,w
   992  0F3A  00D0               	movwf	___flsub@b
   993  0F3B  3064               	movlw	100
   994  0F3C  00A2               	movwf	___wmul@multiplicand
   995  0F3D  3000               	movlw	0
   996  0F3E  00A3               	movwf	___wmul@multiplicand+1
   997  0F3F  1683               	bsf	3,5	;RP0=1, select bank1
   998  0F40  1303               	bcf	3,6	;RP1=0, select bank1
   999  0F41  0835               	movf	_centena^(0+128),w
  1000  0F42  00AD               	movwf	(??_main+4)^(0+128)
  1001  0F43  01AE               	clrf	((??_main+4)^(0+128)+1)
  1002  0F44  082D               	movf	(??_main+4)^(0+128),w
  1003  0F45  1283               	bcf	3,5	;RP0=0, select bank0
  1004  0F46  1303               	bcf	3,6	;RP1=0, select bank0
  1005  0F47  00A0               	movwf	___wmul@multiplier
  1006  0F48  1683               	bsf	3,5	;RP0=1, select bank1
  1007  0F49  1303               	bcf	3,6	;RP1=0, select bank1
  1008  0F4A  082E               	movf	(??_main+5)^(0+128),w
  1009  0F4B  1283               	bcf	3,5	;RP0=0, select bank0
  1010  0F4C  1303               	bcf	3,6	;RP1=0, select bank0
  1011  0F4D  00A1               	movwf	___wmul@multiplier+1
  1012  0F4E  120A  158A  231A  120A  158A  	fcall	___wmul
  1013  0F53  1283               	bcf	3,5	;RP0=0, select bank0
  1014  0F54  1303               	bcf	3,6	;RP1=0, select bank0
  1015  0F55  0820               	movf	?___wmul,w
  1016  0F56  00A4               	movwf	___xxtofl@val
  1017  0F57  0821               	movf	?___wmul+1,w
  1018  0F58  00A5               	movwf	___xxtofl@val+1
  1019  0F59  3000               	movlw	0
  1020  0F5A  1BA5               	btfsc	___xxtofl@val+1,7
  1021  0F5B  30FF               	movlw	255
  1022  0F5C  00A6               	movwf	___xxtofl@val+2
  1023  0F5D  00A7               	movwf	___xxtofl@val+3
  1024  0F5E  3001               	movlw	1
  1025  0F5F  120A  158A  24DD  120A  158A  	fcall	___xxtofl
  1026  0F64  1283               	bcf	3,5	;RP0=0, select bank0
  1027  0F65  1303               	bcf	3,6	;RP1=0, select bank0
  1028  0F66  0827               	movf	?___xxtofl+3,w
  1029  0F67  00CF               	movwf	___flsub@a+3
  1030  0F68  0826               	movf	?___xxtofl+2,w
  1031  0F69  00CE               	movwf	___flsub@a+2
  1032  0F6A  0825               	movf	?___xxtofl+1,w
  1033  0F6B  00CD               	movwf	___flsub@a+1
  1034  0F6C  0824               	movf	?___xxtofl,w
  1035  0F6D  00CC               	movwf	___flsub@a
  1036  0F6E  120A  158A  22F6  120A  158A  	fcall	___flsub
  1037  0F73  1283               	bcf	3,5	;RP0=0, select bank0
  1038  0F74  1303               	bcf	3,6	;RP1=0, select bank0
  1039  0F75  084F               	movf	?___flsub+3,w
  1040  0F76  1683               	bsf	3,5	;RP0=1, select bank1
  1041  0F77  1303               	bcf	3,6	;RP1=0, select bank1
  1042  0F78  00B3               	movwf	(_main$882+3)^(0+128)
  1043  0F79  1283               	bcf	3,5	;RP0=0, select bank0
  1044  0F7A  1303               	bcf	3,6	;RP1=0, select bank0
  1045  0F7B  084E               	movf	?___flsub+2,w
  1046  0F7C  1683               	bsf	3,5	;RP0=1, select bank1
  1047  0F7D  1303               	bcf	3,6	;RP1=0, select bank1
  1048  0F7E  00B2               	movwf	(_main$882+2)^(0+128)
  1049  0F7F  1283               	bcf	3,5	;RP0=0, select bank0
  1050  0F80  1303               	bcf	3,6	;RP1=0, select bank0
  1051  0F81  084D               	movf	?___flsub+1,w
  1052  0F82  1683               	bsf	3,5	;RP0=1, select bank1
  1053  0F83  1303               	bcf	3,6	;RP1=0, select bank1
  1054  0F84  00B1               	movwf	(_main$882+1)^(0+128)
  1055  0F85  1283               	bcf	3,5	;RP0=0, select bank0
  1056  0F86  1303               	bcf	3,6	;RP1=0, select bank0
  1057  0F87  084C               	movf	?___flsub,w
  1058  0F88  1683               	bsf	3,5	;RP0=1, select bank1
  1059  0F89  1303               	bcf	3,6	;RP1=0, select bank1
  1060  0F8A  00B0               	movwf	_main$882^(0+128)
  1061  0F8B                     l2588:
  1062                           
  1063                           ;ADC.c: 90:         unidad = (uint8_t)((pot2*1.9607) - (100 * centena)-(10 * decena));
  1064  0F8B  0833               	movf	(_main$882+3)^(0+128),w
  1065  0F8C  1283               	bcf	3,5	;RP0=0, select bank0
  1066  0F8D  1303               	bcf	3,6	;RP1=0, select bank0
  1067  0F8E  00D3               	movwf	___flsub@b+3
  1068  0F8F  1683               	bsf	3,5	;RP0=1, select bank1
  1069  0F90  1303               	bcf	3,6	;RP1=0, select bank1
  1070  0F91  0832               	movf	(_main$882+2)^(0+128),w
  1071  0F92  1283               	bcf	3,5	;RP0=0, select bank0
  1072  0F93  1303               	bcf	3,6	;RP1=0, select bank0
  1073  0F94  00D2               	movwf	___flsub@b+2
  1074  0F95  1683               	bsf	3,5	;RP0=1, select bank1
  1075  0F96  1303               	bcf	3,6	;RP1=0, select bank1
  1076  0F97  0831               	movf	(_main$882+1)^(0+128),w
  1077  0F98  1283               	bcf	3,5	;RP0=0, select bank0
  1078  0F99  1303               	bcf	3,6	;RP1=0, select bank0
  1079  0F9A  00D1               	movwf	___flsub@b+1
  1080  0F9B  1683               	bsf	3,5	;RP0=1, select bank1
  1081  0F9C  1303               	bcf	3,6	;RP1=0, select bank1
  1082  0F9D  0830               	movf	_main$882^(0+128),w
  1083  0F9E  1283               	bcf	3,5	;RP0=0, select bank0
  1084  0F9F  1303               	bcf	3,6	;RP1=0, select bank0
  1085  0FA0  00D0               	movwf	___flsub@b
  1086  0FA1  300A               	movlw	10
  1087  0FA2  00A2               	movwf	___wmul@multiplicand
  1088  0FA3  3000               	movlw	0
  1089  0FA4  00A3               	movwf	___wmul@multiplicand+1
  1090  0FA5  1683               	bsf	3,5	;RP0=1, select bank1
  1091  0FA6  1303               	bcf	3,6	;RP1=0, select bank1
  1092  0FA7  0836               	movf	_decena^(0+128),w
  1093  0FA8  00A9               	movwf	??_main^(0+128)
  1094  0FA9  01AA               	clrf	(??_main^(0+128)+1)
  1095  0FAA  0829               	movf	??_main^(0+128),w
  1096  0FAB  1283               	bcf	3,5	;RP0=0, select bank0
  1097  0FAC  1303               	bcf	3,6	;RP1=0, select bank0
  1098  0FAD  00A0               	movwf	___wmul@multiplier
  1099  0FAE  1683               	bsf	3,5	;RP0=1, select bank1
  1100  0FAF  1303               	bcf	3,6	;RP1=0, select bank1
  1101  0FB0  082A               	movf	(??_main+1)^(0+128),w
  1102  0FB1  1283               	bcf	3,5	;RP0=0, select bank0
  1103  0FB2  1303               	bcf	3,6	;RP1=0, select bank0
  1104  0FB3  00A1               	movwf	___wmul@multiplier+1
  1105  0FB4  120A  158A  231A  120A  158A  	fcall	___wmul
  1106  0FB9  1283               	bcf	3,5	;RP0=0, select bank0
  1107  0FBA  1303               	bcf	3,6	;RP1=0, select bank0
  1108  0FBB  0820               	movf	?___wmul,w
  1109  0FBC  00A4               	movwf	___xxtofl@val
  1110  0FBD  0821               	movf	?___wmul+1,w
  1111  0FBE  00A5               	movwf	___xxtofl@val+1
  1112  0FBF  3000               	movlw	0
  1113  0FC0  1BA5               	btfsc	___xxtofl@val+1,7
  1114  0FC1  30FF               	movlw	255
  1115  0FC2  00A6               	movwf	___xxtofl@val+2
  1116  0FC3  00A7               	movwf	___xxtofl@val+3
  1117  0FC4  3001               	movlw	1
  1118  0FC5  120A  158A  24DD  120A  158A  	fcall	___xxtofl
  1119  0FCA  1283               	bcf	3,5	;RP0=0, select bank0
  1120  0FCB  1303               	bcf	3,6	;RP1=0, select bank0
  1121  0FCC  0827               	movf	?___xxtofl+3,w
  1122  0FCD  00CF               	movwf	___flsub@a+3
  1123  0FCE  0826               	movf	?___xxtofl+2,w
  1124  0FCF  00CE               	movwf	___flsub@a+2
  1125  0FD0  0825               	movf	?___xxtofl+1,w
  1126  0FD1  00CD               	movwf	___flsub@a+1
  1127  0FD2  0824               	movf	?___xxtofl,w
  1128  0FD3  00CC               	movwf	___flsub@a
  1129  0FD4  120A  158A  22F6  120A  158A  	fcall	___flsub
  1130  0FD9  1283               	bcf	3,5	;RP0=0, select bank0
  1131  0FDA  1303               	bcf	3,6	;RP1=0, select bank0
  1132  0FDB  084F               	movf	?___flsub+3,w
  1133  0FDC  1683               	bsf	3,5	;RP0=1, select bank1
  1134  0FDD  1303               	bcf	3,6	;RP1=0, select bank1
  1135  0FDE  00A3               	movwf	(___fltol@f1+3)^(0+128)
  1136  0FDF  1283               	bcf	3,5	;RP0=0, select bank0
  1137  0FE0  1303               	bcf	3,6	;RP1=0, select bank0
  1138  0FE1  084E               	movf	?___flsub+2,w
  1139  0FE2  1683               	bsf	3,5	;RP0=1, select bank1
  1140  0FE3  1303               	bcf	3,6	;RP1=0, select bank1
  1141  0FE4  00A2               	movwf	(___fltol@f1+2)^(0+128)
  1142  0FE5  1283               	bcf	3,5	;RP0=0, select bank0
  1143  0FE6  1303               	bcf	3,6	;RP1=0, select bank0
  1144  0FE7  084D               	movf	?___flsub+1,w
  1145  0FE8  1683               	bsf	3,5	;RP0=1, select bank1
  1146  0FE9  1303               	bcf	3,6	;RP1=0, select bank1
  1147  0FEA  00A1               	movwf	(___fltol@f1+1)^(0+128)
  1148  0FEB  1283               	bcf	3,5	;RP0=0, select bank0
  1149  0FEC  1303               	bcf	3,6	;RP1=0, select bank0
  1150  0FED  084C               	movf	?___flsub,w
  1151  0FEE  1683               	bsf	3,5	;RP0=1, select bank1
  1152  0FEF  1303               	bcf	3,6	;RP1=0, select bank1
  1153  0FF0  00A0               	movwf	___fltol@f1^(0+128)
  1154  0FF1  120A  158A  23AB  120A  158A  	fcall	___fltol
  1155  0FF6  1683               	bsf	3,5	;RP0=1, select bank1
  1156  0FF7  1303               	bcf	3,6	;RP1=0, select bank1
  1157  0FF8  0820               	movf	?___fltol^(0+128),w
  1158  0FF9  00AB               	movwf	(??_main+2)^(0+128)
  1159  0FFA  082B               	movf	(??_main+2)^(0+128),w
  1160  0FFB  00B7               	movwf	_unidad^(0+128)
  1161  0FFC  2D9E               	goto	l2568
  1162  0FFD  120A  118A  2810   	ljmp	start
  1163  1000                     __end_of_main:
  1164                           
  1165                           	psect	text1
  1166  0B6A                     __ptext1:	
  1167 ;; *************** function _setup *****************
  1168 ;; Defined at:
  1169 ;;		line 97 in file "ADC.c"
  1170 ;; Parameters:    Size  Location     Type
  1171 ;;		None
  1172 ;; Auto vars:     Size  Location     Type
  1173 ;;		None
  1174 ;; Return value:  Size  Location     Type
  1175 ;;                  1    wreg      void 
  1176 ;; Registers used:
  1177 ;;		wreg, status,2, status,0
  1178 ;; Tracked objects:
  1179 ;;		On entry : 0/0
  1180 ;;		On exit  : 0/0
  1181 ;;		Unchanged: 0/0
  1182 ;; Data sizes:     COMMON   BANK0   BANK1   BANK3   BANK2
  1183 ;;      Params:         0       0       0       0       0
  1184 ;;      Locals:         0       0       0       0       0
  1185 ;;      Temps:          1       0       0       0       0
  1186 ;;      Totals:         1       0       0       0       0
  1187 ;;Total ram usage:        1 bytes
  1188 ;; Hardware stack levels used: 1
  1189 ;; Hardware stack levels required when called: 2
  1190 ;; This function calls:
  1191 ;;		Nothing
  1192 ;; This function is called by:
  1193 ;;		_main
  1194 ;; This function uses a non-reentrant model
  1195 ;;
  1196                           
  1197  0B6A                     _setup:	
  1198                           ;psect for function _setup
  1199                           
  1200  0B6A                     l1634:	
  1201                           ;incstack = 0
  1202                           ; Regs used in _setup: [wreg+status,2+status,0]
  1203                           
  1204                           
  1205                           ;ADC.c: 98:     ANSEL =0b00000011;
  1206  0B6A  3003               	movlw	3
  1207  0B6B  1683               	bsf	3,5	;RP0=1, select bank3
  1208  0B6C  1703               	bsf	3,6	;RP1=1, select bank3
  1209  0B6D  0088               	movwf	8	;volatile
  1210  0B6E                     l1636:
  1211                           
  1212                           ;ADC.c: 99:     ANSELH = 0x00;
  1213  0B6E  0189               	clrf	9	;volatile
  1214  0B6F                     l1638:
  1215                           
  1216                           ;ADC.c: 101:     OSCCONbits.IRCF = 0b0100;
  1217  0B6F  1683               	bsf	3,5	;RP0=1, select bank1
  1218  0B70  1303               	bcf	3,6	;RP1=0, select bank1
  1219  0B71  080F               	movf	15,w	;volatile
  1220  0B72  398F               	andlw	-113
  1221  0B73  3840               	iorlw	64
  1222  0B74  008F               	movwf	15	;volatile
  1223  0B75                     l1640:
  1224                           
  1225                           ;ADC.c: 102:     OSCCONbits.SCS = 1;
  1226  0B75  140F               	bsf	15,0	;volatile
  1227  0B76                     l1642:
  1228                           
  1229                           ;ADC.c: 104:     TRISA = 0b00000011;
  1230  0B76  3003               	movlw	3
  1231  0B77  0085               	movwf	5	;volatile
  1232  0B78                     l1644:
  1233                           
  1234                           ;ADC.c: 105:     TRISB = 0x00;
  1235  0B78  0186               	clrf	6	;volatile
  1236  0B79                     l1646:
  1237                           
  1238                           ;ADC.c: 106:     TRISC = 0x00;
  1239  0B79  0187               	clrf	7	;volatile
  1240  0B7A                     l1648:
  1241                           
  1242                           ;ADC.c: 107:     TRISD = 0x00;
  1243  0B7A  0188               	clrf	8	;volatile
  1244  0B7B                     l1650:
  1245                           
  1246                           ;ADC.c: 109:     PORTA = 0x00;
  1247  0B7B  1283               	bcf	3,5	;RP0=0, select bank0
  1248  0B7C  1303               	bcf	3,6	;RP1=0, select bank0
  1249  0B7D  0185               	clrf	5	;volatile
  1250  0B7E                     l1652:
  1251                           
  1252                           ;ADC.c: 110:     PORTB = 0x00;
  1253  0B7E  0186               	clrf	6	;volatile
  1254  0B7F                     l1654:
  1255                           
  1256                           ;ADC.c: 111:     PORTC = 0x00;
  1257  0B7F  0187               	clrf	7	;volatile
  1258  0B80                     l1656:
  1259                           
  1260                           ;ADC.c: 112:     PORTD = 0x00;
  1261  0B80  0188               	clrf	8	;volatile
  1262  0B81                     l1658:
  1263                           
  1264                           ;ADC.c: 114:     OPTION_REGbits.T0CS = 0;
  1265  0B81  1683               	bsf	3,5	;RP0=1, select bank1
  1266  0B82  1303               	bcf	3,6	;RP1=0, select bank1
  1267  0B83  1281               	bcf	1,5	;volatile
  1268  0B84                     l1660:
  1269                           
  1270                           ;ADC.c: 115:     OPTION_REGbits.PSA = 0;
  1271  0B84  1181               	bcf	1,3	;volatile
  1272  0B85                     l1662:
  1273                           
  1274                           ;ADC.c: 116:     OPTION_REGbits.PS2 = 1;
  1275  0B85  1501               	bsf	1,2	;volatile
  1276  0B86                     l1664:
  1277                           
  1278                           ;ADC.c: 117:     OPTION_REGbits.PS1 = 1;
  1279  0B86  1481               	bsf	1,1	;volatile
  1280  0B87                     l1666:
  1281                           
  1282                           ;ADC.c: 118:     OPTION_REGbits.PS0 = 1;
  1283  0B87  1401               	bsf	1,0	;volatile
  1284  0B88                     l1668:
  1285                           
  1286                           ;ADC.c: 119:     TMR0 = 252;
  1287  0B88  30FC               	movlw	252
  1288  0B89  1283               	bcf	3,5	;RP0=0, select bank0
  1289  0B8A  1303               	bcf	3,6	;RP1=0, select bank0
  1290  0B8B  0081               	movwf	1	;volatile
  1291  0B8C                     l1670:
  1292                           
  1293                           ;ADC.c: 122:     ADCON0bits.ADCS = 0b00;
  1294  0B8C  303F               	movlw	-193
  1295  0B8D  059F               	andwf	31,f	;volatile
  1296  0B8E                     l1672:
  1297                           
  1298                           ;ADC.c: 124:     ADCON1bits.VCFG0 = 0;
  1299  0B8E  1683               	bsf	3,5	;RP0=1, select bank1
  1300  0B8F  1303               	bcf	3,6	;RP1=0, select bank1
  1301  0B90  121F               	bcf	31,4	;volatile
  1302  0B91                     l1674:
  1303                           
  1304                           ;ADC.c: 125:     ADCON1bits.VCFG1 = 1;
  1305  0B91  169F               	bsf	31,5	;volatile
  1306  0B92                     l1676:
  1307                           
  1308                           ;ADC.c: 127:     ADCON0bits.CHS = 0b0000;
  1309  0B92  30C3               	movlw	-61
  1310  0B93  1283               	bcf	3,5	;RP0=0, select bank0
  1311  0B94  1303               	bcf	3,6	;RP1=0, select bank0
  1312  0B95  059F               	andwf	31,f	;volatile
  1313  0B96                     l1678:
  1314                           
  1315                           ;ADC.c: 128:     ADCON1bits.ADFM = 0;
  1316  0B96  1683               	bsf	3,5	;RP0=1, select bank1
  1317  0B97  1303               	bcf	3,6	;RP1=0, select bank1
  1318  0B98  139F               	bcf	31,7	;volatile
  1319  0B99                     l1680:
  1320                           
  1321                           ;ADC.c: 129:     ADCON0bits.ADON = 1;
  1322  0B99  1283               	bcf	3,5	;RP0=0, select bank0
  1323  0B9A  1303               	bcf	3,6	;RP1=0, select bank0
  1324  0B9B  141F               	bsf	31,0	;volatile
  1325  0B9C                     l1682:
  1326                           
  1327                           ;ADC.c: 130:     _delay((unsigned long)((40)*(1000000/4000000.0)));
  1328  0B9C  3003               	movlw	3
  1329  0B9D  00F5               	movwf	??_setup
  1330  0B9E                     u4197:
  1331  0B9E  0BF5               	decfsz	??_setup,f
  1332  0B9F  2B9E               	goto	u4197
  1333  0BA0                     l1684:
  1334                           
  1335                           ;ADC.c: 133:     PIR1bits.ADIF = 0;
  1336  0BA0  1283               	bcf	3,5	;RP0=0, select bank0
  1337  0BA1  1303               	bcf	3,6	;RP1=0, select bank0
  1338  0BA2  130C               	bcf	12,6	;volatile
  1339  0BA3                     l1686:
  1340                           
  1341                           ;ADC.c: 134:     PIE1bits.ADIE = 1;
  1342  0BA3  1683               	bsf	3,5	;RP0=1, select bank1
  1343  0BA4  1303               	bcf	3,6	;RP1=0, select bank1
  1344  0BA5  170C               	bsf	12,6	;volatile
  1345  0BA6                     l1688:
  1346                           
  1347                           ;ADC.c: 135:     INTCONbits.PEIE = 1;
  1348  0BA6  170B               	bsf	11,6	;volatile
  1349  0BA7                     l1690:
  1350                           
  1351                           ;ADC.c: 136:     INTCONbits.GIE = 1;
  1352  0BA7  178B               	bsf	11,7	;volatile
  1353  0BA8                     l1692:
  1354                           
  1355                           ;ADC.c: 137:     INTCONbits.T0IF = 0;
  1356  0BA8  110B               	bcf	11,2	;volatile
  1357  0BA9                     l1694:
  1358                           
  1359                           ;ADC.c: 138:     INTCONbits.T0IE = 1;
  1360  0BA9  168B               	bsf	11,5	;volatile
  1361  0BAA                     l98:
  1362  0BAA  0008               	return
  1363  0BAB                     __end_of_setup:
  1364                           
  1365                           	psect	text2
  1366  0CDD                     __ptext2:	
  1367 ;; *************** function ___xxtofl *****************
  1368 ;; Defined at:
  1369 ;;		line 10 in file "C:\Program Files\Microchip\xc8\v2.35\pic\sources\c90\common\xxtofl.c"
  1370 ;; Parameters:    Size  Location     Type
  1371 ;;  sign            1    wreg     unsigned char 
  1372 ;;  val             4    4[BANK0 ] long 
  1373 ;; Auto vars:     Size  Location     Type
  1374 ;;  sign            1   12[BANK0 ] unsigned char 
  1375 ;;  arg             4   14[BANK0 ] unsigned long 
  1376 ;;  exp             1   13[BANK0 ] unsigned char 
  1377 ;; Return value:  Size  Location     Type
  1378 ;;                  4    4[BANK0 ] unsigned char 
  1379 ;; Registers used:
  1380 ;;		wreg, status,2, status,0
  1381 ;; Tracked objects:
  1382 ;;		On entry : 0/0
  1383 ;;		On exit  : 0/0
  1384 ;;		Unchanged: 0/0
  1385 ;; Data sizes:     COMMON   BANK0   BANK1   BANK3   BANK2
  1386 ;;      Params:         0       4       0       0       0
  1387 ;;      Locals:         0       6       0       0       0
  1388 ;;      Temps:          0       4       0       0       0
  1389 ;;      Totals:         0      14       0       0       0
  1390 ;;Total ram usage:       14 bytes
  1391 ;; Hardware stack levels used: 1
  1392 ;; Hardware stack levels required when called: 2
  1393 ;; This function calls:
  1394 ;;		Nothing
  1395 ;; This function is called by:
  1396 ;;		_main
  1397 ;; This function uses a non-reentrant model
  1398 ;;
  1399                           
  1400  0CDD                     ___xxtofl:	
  1401                           ;psect for function ___xxtofl
  1402                           
  1403                           
  1404                           ;incstack = 0
  1405                           ; Regs used in ___xxtofl: [wreg+status,2+status,0]
  1406                           ;___xxtofl@sign stored from wreg
  1407  0CDD  1283               	bcf	3,5	;RP0=0, select bank0
  1408  0CDE  1303               	bcf	3,6	;RP1=0, select bank0
  1409  0CDF  00AC               	movwf	___xxtofl@sign
  1410  0CE0                     l2036:
  1411  0CE0  082C               	movf	___xxtofl@sign,w
  1412  0CE1  1903               	btfsc	3,2
  1413  0CE2  2CE4               	goto	u2871
  1414  0CE3  2CE5               	goto	u2870
  1415  0CE4                     u2871:
  1416  0CE4  2CF9               	goto	l2042
  1417  0CE5                     u2870:
  1418  0CE5                     l2038:
  1419  0CE5  1FA7               	btfss	___xxtofl@val+3,7
  1420  0CE6  2CE8               	goto	u2881
  1421  0CE7  2CE9               	goto	u2880
  1422  0CE8                     u2881:
  1423  0CE8  2CF9               	goto	l2042
  1424  0CE9                     u2880:
  1425  0CE9                     l2040:
  1426  0CE9  0924               	comf	___xxtofl@val,w
  1427  0CEA  00AE               	movwf	___xxtofl@arg
  1428  0CEB  0925               	comf	___xxtofl@val+1,w
  1429  0CEC  00AF               	movwf	___xxtofl@arg+1
  1430  0CED  0926               	comf	___xxtofl@val+2,w
  1431  0CEE  00B0               	movwf	___xxtofl@arg+2
  1432  0CEF  0927               	comf	___xxtofl@val+3,w
  1433  0CF0  00B1               	movwf	___xxtofl@arg+3
  1434  0CF1  0AAE               	incf	___xxtofl@arg,f
  1435  0CF2  1903               	skipnz
  1436  0CF3  0AAF               	incf	___xxtofl@arg+1,f
  1437  0CF4  1903               	skipnz
  1438  0CF5  0AB0               	incf	___xxtofl@arg+2,f
  1439  0CF6  1903               	skipnz
  1440  0CF7  0AB1               	incf	___xxtofl@arg+3,f
  1441  0CF8  2D01               	goto	l617
  1442  0CF9                     l2042:
  1443  0CF9  0827               	movf	___xxtofl@val+3,w
  1444  0CFA  00B1               	movwf	___xxtofl@arg+3
  1445  0CFB  0826               	movf	___xxtofl@val+2,w
  1446  0CFC  00B0               	movwf	___xxtofl@arg+2
  1447  0CFD  0825               	movf	___xxtofl@val+1,w
  1448  0CFE  00AF               	movwf	___xxtofl@arg+1
  1449  0CFF  0824               	movf	___xxtofl@val,w
  1450  0D00  00AE               	movwf	___xxtofl@arg
  1451  0D01                     l617:
  1452  0D01  0827               	movf	___xxtofl@val+3,w
  1453  0D02  0426               	iorwf	___xxtofl@val+2,w
  1454  0D03  0425               	iorwf	___xxtofl@val+1,w
  1455  0D04  0424               	iorwf	___xxtofl@val,w
  1456  0D05  1D03               	skipz
  1457  0D06  2D08               	goto	u2891
  1458  0D07  2D09               	goto	u2890
  1459  0D08                     u2891:
  1460  0D08  2D12               	goto	l2048
  1461  0D09                     u2890:
  1462  0D09                     l2044:
  1463  0D09  3000               	movlw	0
  1464  0D0A  00A7               	movwf	?___xxtofl+3
  1465  0D0B  3000               	movlw	0
  1466  0D0C  00A6               	movwf	?___xxtofl+2
  1467  0D0D  3000               	movlw	0
  1468  0D0E  00A5               	movwf	?___xxtofl+1
  1469  0D0F  3000               	movlw	0
  1470  0D10  00A4               	movwf	?___xxtofl
  1471  0D11  2D98               	goto	l619
  1472  0D12                     l2048:
  1473  0D12  3096               	movlw	150
  1474  0D13  00A8               	movwf	??___xxtofl
  1475  0D14  0828               	movf	??___xxtofl,w
  1476  0D15  00AD               	movwf	___xxtofl@exp
  1477  0D16  2D24               	goto	l2052
  1478  0D17                     l2050:
  1479  0D17  3001               	movlw	1
  1480  0D18  00A8               	movwf	??___xxtofl
  1481  0D19  0828               	movf	??___xxtofl,w
  1482  0D1A  07AD               	addwf	___xxtofl@exp,f
  1483  0D1B  3001               	movlw	1
  1484  0D1C                     u2905:
  1485  0D1C  1003               	clrc
  1486  0D1D  0CB1               	rrf	___xxtofl@arg+3,f
  1487  0D1E  0CB0               	rrf	___xxtofl@arg+2,f
  1488  0D1F  0CAF               	rrf	___xxtofl@arg+1,f
  1489  0D20  0CAE               	rrf	___xxtofl@arg,f
  1490  0D21  3EFF               	addlw	-1
  1491  0D22  1D03               	skipz
  1492  0D23  2D1C               	goto	u2905
  1493  0D24                     l2052:
  1494  0D24  30FE               	movlw	254
  1495  0D25  0531               	andwf	___xxtofl@arg+3,w
  1496  0D26  1D03               	btfss	3,2
  1497  0D27  2D29               	goto	u2911
  1498  0D28  2D2A               	goto	u2910
  1499  0D29                     u2911:
  1500  0D29  2D17               	goto	l2050
  1501  0D2A                     u2910:
  1502  0D2A  2D46               	goto	l623
  1503  0D2B                     l2054:
  1504  0D2B  3001               	movlw	1
  1505  0D2C  00A8               	movwf	??___xxtofl
  1506  0D2D  0828               	movf	??___xxtofl,w
  1507  0D2E  07AD               	addwf	___xxtofl@exp,f
  1508  0D2F                     l2056:
  1509  0D2F  3001               	movlw	1
  1510  0D30  07AE               	addwf	___xxtofl@arg,f
  1511  0D31  3000               	movlw	0
  1512  0D32  1803               	skipnc
  1513  0D33  3001               	movlw	1
  1514  0D34  07AF               	addwf	___xxtofl@arg+1,f
  1515  0D35  3000               	movlw	0
  1516  0D36  1803               	skipnc
  1517  0D37  3001               	movlw	1
  1518  0D38  07B0               	addwf	___xxtofl@arg+2,f
  1519  0D39  3000               	movlw	0
  1520  0D3A  1803               	skipnc
  1521  0D3B  3001               	movlw	1
  1522  0D3C  07B1               	addwf	___xxtofl@arg+3,f
  1523  0D3D                     l2058:
  1524  0D3D  3001               	movlw	1
  1525  0D3E                     u2925:
  1526  0D3E  1003               	clrc
  1527  0D3F  0CB1               	rrf	___xxtofl@arg+3,f
  1528  0D40  0CB0               	rrf	___xxtofl@arg+2,f
  1529  0D41  0CAF               	rrf	___xxtofl@arg+1,f
  1530  0D42  0CAE               	rrf	___xxtofl@arg,f
  1531  0D43  3EFF               	addlw	-1
  1532  0D44  1D03               	skipz
  1533  0D45  2D3E               	goto	u2925
  1534  0D46                     l623:
  1535  0D46  30FF               	movlw	255
  1536  0D47  0531               	andwf	___xxtofl@arg+3,w
  1537  0D48  1D03               	btfss	3,2
  1538  0D49  2D4B               	goto	u2931
  1539  0D4A  2D4C               	goto	u2930
  1540  0D4B                     u2931:
  1541  0D4B  2D2B               	goto	l2054
  1542  0D4C                     u2930:
  1543  0D4C  2D58               	goto	l2062
  1544  0D4D                     l2060:
  1545  0D4D  3001               	movlw	1
  1546  0D4E  02AD               	subwf	___xxtofl@exp,f
  1547  0D4F  3001               	movlw	1
  1548  0D50  00A8               	movwf	??___xxtofl
  1549  0D51                     u2945:
  1550  0D51  1003               	clrc
  1551  0D52  0DAE               	rlf	___xxtofl@arg,f
  1552  0D53  0DAF               	rlf	___xxtofl@arg+1,f
  1553  0D54  0DB0               	rlf	___xxtofl@arg+2,f
  1554  0D55  0DB1               	rlf	___xxtofl@arg+3,f
  1555  0D56  0BA8               	decfsz	??___xxtofl,f
  1556  0D57  2D51               	goto	u2945
  1557  0D58                     l2062:
  1558  0D58  1BB0               	btfsc	___xxtofl@arg+2,7
  1559  0D59  2D5B               	goto	u2951
  1560  0D5A  2D5C               	goto	u2950
  1561  0D5B                     u2951:
  1562  0D5B  2D62               	goto	l630
  1563  0D5C                     u2950:
  1564  0D5C                     l2064:
  1565  0D5C  3002               	movlw	2
  1566  0D5D  022D               	subwf	___xxtofl@exp,w
  1567  0D5E  1803               	skipnc
  1568  0D5F  2D61               	goto	u2961
  1569  0D60  2D62               	goto	u2960
  1570  0D61                     u2961:
  1571  0D61  2D4D               	goto	l2060
  1572  0D62                     u2960:
  1573  0D62                     l630:
  1574  0D62  182D               	btfsc	___xxtofl@exp,0
  1575  0D63  2D65               	goto	u2971
  1576  0D64  2D66               	goto	u2970
  1577  0D65                     u2971:
  1578  0D65  2D6E               	goto	l631
  1579  0D66                     u2970:
  1580  0D66                     l2066:
  1581  0D66  30FF               	movlw	255
  1582  0D67  05AE               	andwf	___xxtofl@arg,f
  1583  0D68  30FF               	movlw	255
  1584  0D69  05AF               	andwf	___xxtofl@arg+1,f
  1585  0D6A  307F               	movlw	127
  1586  0D6B  05B0               	andwf	___xxtofl@arg+2,f
  1587  0D6C  30FF               	movlw	255
  1588  0D6D  05B1               	andwf	___xxtofl@arg+3,f
  1589  0D6E                     l631:
  1590  0D6E  1003               	clrc
  1591  0D6F  0CAD               	rrf	___xxtofl@exp,f
  1592  0D70                     l2068:
  1593  0D70  082D               	movf	___xxtofl@exp,w
  1594  0D71  00A8               	movwf	??___xxtofl
  1595  0D72  01A9               	clrf	??___xxtofl+1
  1596  0D73  01AA               	clrf	??___xxtofl+2
  1597  0D74  01AB               	clrf	??___xxtofl+3
  1598  0D75  3018               	movlw	24
  1599  0D76                     u2985:
  1600  0D76  1003               	clrc
  1601  0D77  0DA8               	rlf	??___xxtofl,f
  1602  0D78  0DA9               	rlf	??___xxtofl+1,f
  1603  0D79  0DAA               	rlf	??___xxtofl+2,f
  1604  0D7A  0DAB               	rlf	??___xxtofl+3,f
  1605  0D7B                     u2980:
  1606  0D7B  3EFF               	addlw	-1
  1607  0D7C  1D03               	skipz
  1608  0D7D  2D76               	goto	u2985
  1609  0D7E  0828               	movf	??___xxtofl,w
  1610  0D7F  04AE               	iorwf	___xxtofl@arg,f
  1611  0D80  0829               	movf	??___xxtofl+1,w
  1612  0D81  04AF               	iorwf	___xxtofl@arg+1,f
  1613  0D82  082A               	movf	??___xxtofl+2,w
  1614  0D83  04B0               	iorwf	___xxtofl@arg+2,f
  1615  0D84  082B               	movf	??___xxtofl+3,w
  1616  0D85  04B1               	iorwf	___xxtofl@arg+3,f
  1617  0D86                     l2070:
  1618  0D86  082C               	movf	___xxtofl@sign,w
  1619  0D87  1903               	btfsc	3,2
  1620  0D88  2D8A               	goto	u2991
  1621  0D89  2D8B               	goto	u2990
  1622  0D8A                     u2991:
  1623  0D8A  2D90               	goto	l2076
  1624  0D8B                     u2990:
  1625  0D8B                     l2072:
  1626  0D8B  1FA7               	btfss	___xxtofl@val+3,7
  1627  0D8C  2D8E               	goto	u3001
  1628  0D8D  2D8F               	goto	u3000
  1629  0D8E                     u3001:
  1630  0D8E  2D90               	goto	l2076
  1631  0D8F                     u3000:
  1632  0D8F                     l2074:
  1633  0D8F  17B1               	bsf	___xxtofl@arg+3,7
  1634  0D90                     l2076:
  1635  0D90  0831               	movf	___xxtofl@arg+3,w
  1636  0D91  00A7               	movwf	?___xxtofl+3
  1637  0D92  0830               	movf	___xxtofl@arg+2,w
  1638  0D93  00A6               	movwf	?___xxtofl+2
  1639  0D94  082F               	movf	___xxtofl@arg+1,w
  1640  0D95  00A5               	movwf	?___xxtofl+1
  1641  0D96  082E               	movf	___xxtofl@arg,w
  1642  0D97  00A4               	movwf	?___xxtofl
  1643  0D98                     l619:
  1644  0D98  0008               	return
  1645  0D99                     __end_of___xxtofl:
  1646                           
  1647                           	psect	text3
  1648  0B1A                     __ptext3:	
  1649 ;; *************** function ___wmul *****************
  1650 ;; Defined at:
  1651 ;;		line 15 in file "C:\Program Files\Microchip\xc8\v2.35\pic\sources\c90\common\Umul16.c"
  1652 ;; Parameters:    Size  Location     Type
  1653 ;;  multiplier      2    0[BANK0 ] unsigned int 
  1654 ;;  multiplicand    2    2[BANK0 ] unsigned int 
  1655 ;; Auto vars:     Size  Location     Type
  1656 ;;  product         2    5[COMMON] unsigned int 
  1657 ;; Return value:  Size  Location     Type
  1658 ;;                  2    0[BANK0 ] unsigned int 
  1659 ;; Registers used:
  1660 ;;		wreg, status,2, status,0
  1661 ;; Tracked objects:
  1662 ;;		On entry : 0/0
  1663 ;;		On exit  : 0/0
  1664 ;;		Unchanged: 0/0
  1665 ;; Data sizes:     COMMON   BANK0   BANK1   BANK3   BANK2
  1666 ;;      Params:         0       4       0       0       0
  1667 ;;      Locals:         2       0       0       0       0
  1668 ;;      Temps:          0       0       0       0       0
  1669 ;;      Totals:         2       4       0       0       0
  1670 ;;Total ram usage:        6 bytes
  1671 ;; Hardware stack levels used: 1
  1672 ;; Hardware stack levels required when called: 2
  1673 ;; This function calls:
  1674 ;;		Nothing
  1675 ;; This function is called by:
  1676 ;;		_main
  1677 ;; This function uses a non-reentrant model
  1678 ;;
  1679                           
  1680  0B1A                     ___wmul:	
  1681                           ;psect for function ___wmul
  1682                           
  1683  0B1A                     l2370:	
  1684                           ;incstack = 0
  1685                           ; Regs used in ___wmul: [wreg+status,2+status,0]
  1686                           
  1687  0B1A  01F5               	clrf	___wmul@product
  1688  0B1B  01F6               	clrf	___wmul@product+1
  1689  0B1C                     l2372:
  1690  0B1C  1283               	bcf	3,5	;RP0=0, select bank0
  1691  0B1D  1303               	bcf	3,6	;RP1=0, select bank0
  1692  0B1E  1C20               	btfss	___wmul@multiplier,0
  1693  0B1F  2B21               	goto	u3641
  1694  0B20  2B22               	goto	u3640
  1695  0B21                     u3641:
  1696  0B21  2B28               	goto	l184
  1697  0B22                     u3640:
  1698  0B22                     l2374:
  1699  0B22  0822               	movf	___wmul@multiplicand,w
  1700  0B23  07F5               	addwf	___wmul@product,f
  1701  0B24  1803               	skipnc
  1702  0B25  0AF6               	incf	___wmul@product+1,f
  1703  0B26  0823               	movf	___wmul@multiplicand+1,w
  1704  0B27  07F6               	addwf	___wmul@product+1,f
  1705  0B28                     l184:
  1706  0B28  3001               	movlw	1
  1707  0B29                     u3655:
  1708  0B29  1003               	clrc
  1709  0B2A  0DA2               	rlf	___wmul@multiplicand,f
  1710  0B2B  0DA3               	rlf	___wmul@multiplicand+1,f
  1711  0B2C  3EFF               	addlw	-1
  1712  0B2D  1D03               	skipz
  1713  0B2E  2B29               	goto	u3655
  1714  0B2F                     l2376:
  1715  0B2F  3001               	movlw	1
  1716  0B30                     u3665:
  1717  0B30  1003               	clrc
  1718  0B31  0CA1               	rrf	___wmul@multiplier+1,f
  1719  0B32  0CA0               	rrf	___wmul@multiplier,f
  1720  0B33  3EFF               	addlw	-1
  1721  0B34  1D03               	skipz
  1722  0B35  2B30               	goto	u3665
  1723  0B36                     l2378:
  1724  0B36  0820               	movf	___wmul@multiplier,w
  1725  0B37  0421               	iorwf	___wmul@multiplier+1,w
  1726  0B38  1D03               	btfss	3,2
  1727  0B39  2B3B               	goto	u3671
  1728  0B3A  2B3C               	goto	u3670
  1729  0B3B                     u3671:
  1730  0B3B  2B1C               	goto	l2372
  1731  0B3C                     u3670:
  1732  0B3C                     l2380:
  1733  0B3C  0876               	movf	___wmul@product+1,w
  1734  0B3D  00A1               	movwf	?___wmul+1
  1735  0B3E  0875               	movf	___wmul@product,w
  1736  0B3F  00A0               	movwf	?___wmul
  1737  0B40                     l186:
  1738  0B40  0008               	return
  1739  0B41                     __end_of___wmul:
  1740                           
  1741                           	psect	text4
  1742  0BAB                     __ptext4:	
  1743 ;; *************** function ___fltol *****************
  1744 ;; Defined at:
  1745 ;;		line 43 in file "C:\Program Files\Microchip\xc8\v2.35\pic\sources\c90\common\fltol.c"
  1746 ;; Parameters:    Size  Location     Type
  1747 ;;  f1              4    0[BANK1 ] unsigned int 
  1748 ;; Auto vars:     Size  Location     Type
  1749 ;;  exp1            1   79[BANK0 ] unsigned char 
  1750 ;;  sign1           1   78[BANK0 ] unsigned char 
  1751 ;; Return value:  Size  Location     Type
  1752 ;;                  4    0[BANK1 ] long 
  1753 ;; Registers used:
  1754 ;;		wreg, status,2, status,0
  1755 ;; Tracked objects:
  1756 ;;		On entry : 0/0
  1757 ;;		On exit  : 0/0
  1758 ;;		Unchanged: 0/0
  1759 ;; Data sizes:     COMMON   BANK0   BANK1   BANK3   BANK2
  1760 ;;      Params:         0       0       4       0       0
  1761 ;;      Locals:         0       2       0       0       0
  1762 ;;      Temps:          0       0       5       0       0
  1763 ;;      Totals:         0       2       9       0       0
  1764 ;;Total ram usage:       11 bytes
  1765 ;; Hardware stack levels used: 1
  1766 ;; Hardware stack levels required when called: 2
  1767 ;; This function calls:
  1768 ;;		Nothing
  1769 ;; This function is called by:
  1770 ;;		_main
  1771 ;; This function uses a non-reentrant model
  1772 ;;
  1773                           
  1774  0BAB                     ___fltol:	
  1775                           ;psect for function ___fltol
  1776                           
  1777  0BAB                     l2384:	
  1778                           ;incstack = 0
  1779                           ; Regs used in ___fltol: [wreg+status,2+status,0]
  1780                           
  1781  0BAB  1003               	clrc
  1782  0BAC  1683               	bsf	3,5	;RP0=1, select bank1
  1783  0BAD  1303               	bcf	3,6	;RP1=0, select bank1
  1784  0BAE  0D22               	rlf	(___fltol@f1+2)^(0+128),w
  1785  0BAF  0D23               	rlf	(___fltol@f1+3)^(0+128),w
  1786  0BB0  00A4               	movwf	??___fltol^(0+128)
  1787  0BB1  0824               	movf	??___fltol^(0+128),w
  1788  0BB2  1283               	bcf	3,5	;RP0=0, select bank0
  1789  0BB3  1303               	bcf	3,6	;RP1=0, select bank0
  1790  0BB4  00EF               	movwf	___fltol@exp1
  1791  0BB5  086F               	movf	___fltol@exp1,w
  1792  0BB6  1D03               	btfss	3,2
  1793  0BB7  2BB9               	goto	u3681
  1794  0BB8  2BBA               	goto	u3680
  1795  0BB9                     u3681:
  1796  0BB9  2BC5               	goto	l2390
  1797  0BBA                     u3680:
  1798  0BBA                     l2386:
  1799  0BBA  3000               	movlw	0
  1800  0BBB  1683               	bsf	3,5	;RP0=1, select bank1
  1801  0BBC  1303               	bcf	3,6	;RP1=0, select bank1
  1802  0BBD  00A3               	movwf	(?___fltol+3)^(0+128)
  1803  0BBE  3000               	movlw	0
  1804  0BBF  00A2               	movwf	(?___fltol+2)^(0+128)
  1805  0BC0  3000               	movlw	0
  1806  0BC1  00A1               	movwf	(?___fltol+1)^(0+128)
  1807  0BC2  3000               	movlw	0
  1808  0BC3  00A0               	movwf	?___fltol^(0+128)
  1809  0BC4  2C3C               	goto	l370
  1810  0BC5                     l2390:
  1811  0BC5  1683               	bsf	3,5	;RP0=1, select bank1
  1812  0BC6  1303               	bcf	3,6	;RP1=0, select bank1
  1813  0BC7  0820               	movf	___fltol@f1^(0+128),w
  1814  0BC8  00A4               	movwf	??___fltol^(0+128)
  1815  0BC9  0821               	movf	(___fltol@f1+1)^(0+128),w
  1816  0BCA  00A5               	movwf	(??___fltol^(0+128)+1)
  1817  0BCB  0822               	movf	(___fltol@f1+2)^(0+128),w
  1818  0BCC  00A6               	movwf	(??___fltol^(0+128)+2)
  1819  0BCD  0823               	movf	(___fltol@f1+3)^(0+128),w
  1820  0BCE  00A7               	movwf	(??___fltol^(0+128)+3)
  1821  0BCF  301F               	movlw	31
  1822  0BD0                     u3695:
  1823  0BD0  1003               	clrc
  1824  0BD1  0CA7               	rrf	(??___fltol^(0+128)+3),f
  1825  0BD2  0CA6               	rrf	(??___fltol^(0+128)+2),f
  1826  0BD3  0CA5               	rrf	(??___fltol^(0+128)+1),f
  1827  0BD4  0CA4               	rrf	??___fltol^(0+128),f
  1828  0BD5                     u3690:
  1829  0BD5  3EFF               	addlw	-1
  1830  0BD6  1D03               	skipz
  1831  0BD7  2BD0               	goto	u3695
  1832  0BD8  0824               	movf	??___fltol^(0+128),w
  1833  0BD9  00A8               	movwf	(??___fltol+4)^(0+128)
  1834  0BDA  0828               	movf	(??___fltol+4)^(0+128),w
  1835  0BDB  1283               	bcf	3,5	;RP0=0, select bank0
  1836  0BDC  1303               	bcf	3,6	;RP1=0, select bank0
  1837  0BDD  00EE               	movwf	___fltol@sign1
  1838  0BDE                     l2392:
  1839  0BDE  1683               	bsf	3,5	;RP0=1, select bank1
  1840  0BDF  1303               	bcf	3,6	;RP1=0, select bank1
  1841  0BE0  17A2               	bsf	(___fltol@f1^(0+128)+2),7
  1842  0BE1                     l2394:
  1843  0BE1  30FF               	movlw	255
  1844  0BE2  05A0               	andwf	___fltol@f1^(0+128),f
  1845  0BE3  30FF               	movlw	255
  1846  0BE4  05A1               	andwf	(___fltol@f1+1)^(0+128),f
  1847  0BE5  30FF               	movlw	255
  1848  0BE6  05A2               	andwf	(___fltol@f1+2)^(0+128),f
  1849  0BE7  3000               	movlw	0
  1850  0BE8  05A3               	andwf	(___fltol@f1+3)^(0+128),f
  1851  0BE9                     l2396:
  1852  0BE9  3096               	movlw	150
  1853  0BEA  1283               	bcf	3,5	;RP0=0, select bank0
  1854  0BEB  1303               	bcf	3,6	;RP1=0, select bank0
  1855  0BEC  02EF               	subwf	___fltol@exp1,f
  1856  0BED                     l2398:
  1857  0BED  1FEF               	btfss	___fltol@exp1,7
  1858  0BEE  2BF0               	goto	u3701
  1859  0BEF  2BF1               	goto	u3700
  1860  0BF0                     u3701:
  1861  0BF0  2C0F               	goto	l2408
  1862  0BF1                     u3700:
  1863  0BF1                     l2400:
  1864  0BF1  086F               	movf	___fltol@exp1,w
  1865  0BF2  3A80               	xorlw	128
  1866  0BF3  3E97               	addlw	151
  1867  0BF4  1803               	skipnc
  1868  0BF5  2BF7               	goto	u3711
  1869  0BF6  2BF8               	goto	u3710
  1870  0BF7                     u3711:
  1871  0BF7  2BF9               	goto	l2406
  1872  0BF8                     u3710:
  1873  0BF8  2BBA               	goto	l2386
  1874  0BF9                     l2406:
  1875  0BF9  3001               	movlw	1
  1876  0BFA                     u3725:
  1877  0BFA  1003               	clrc
  1878  0BFB  1683               	bsf	3,5	;RP0=1, select bank1
  1879  0BFC  1303               	bcf	3,6	;RP1=0, select bank1
  1880  0BFD  0CA3               	rrf	(___fltol@f1+3)^(0+128),f
  1881  0BFE  0CA2               	rrf	(___fltol@f1+2)^(0+128),f
  1882  0BFF  0CA1               	rrf	(___fltol@f1+1)^(0+128),f
  1883  0C00  0CA0               	rrf	___fltol@f1^(0+128),f
  1884  0C01  3EFF               	addlw	-1
  1885  0C02  1D03               	skipz
  1886  0C03  2BFA               	goto	u3725
  1887  0C04  3001               	movlw	1
  1888  0C05  00A4               	movwf	??___fltol^(0+128)
  1889  0C06  0824               	movf	??___fltol^(0+128),w
  1890  0C07  1283               	bcf	3,5	;RP0=0, select bank0
  1891  0C08  1303               	bcf	3,6	;RP1=0, select bank0
  1892  0C09  07EF               	addwf	___fltol@exp1,f
  1893  0C0A  1D03               	btfss	3,2
  1894  0C0B  2C0D               	goto	u3731
  1895  0C0C  2C0E               	goto	u3730
  1896  0C0D                     u3731:
  1897  0C0D  2BF9               	goto	l2406
  1898  0C0E                     u3730:
  1899  0C0E  2C2A               	goto	l2416
  1900  0C0F                     l2408:
  1901  0C0F  3020               	movlw	32
  1902  0C10  026F               	subwf	___fltol@exp1,w
  1903  0C11  1C03               	skipc
  1904  0C12  2C14               	goto	u3741
  1905  0C13  2C15               	goto	u3740
  1906  0C14                     u3741:
  1907  0C14  2C25               	goto	l377
  1908  0C15                     u3740:
  1909  0C15  2BBA               	goto	l2386
  1910  0C16                     l2414:
  1911  0C16  3001               	movlw	1
  1912  0C17  1683               	bsf	3,5	;RP0=1, select bank1
  1913  0C18  1303               	bcf	3,6	;RP1=0, select bank1
  1914  0C19  00A4               	movwf	??___fltol^(0+128)
  1915  0C1A                     u3755:
  1916  0C1A  1003               	clrc
  1917  0C1B  0DA0               	rlf	___fltol@f1^(0+128),f
  1918  0C1C  0DA1               	rlf	(___fltol@f1+1)^(0+128),f
  1919  0C1D  0DA2               	rlf	(___fltol@f1+2)^(0+128),f
  1920  0C1E  0DA3               	rlf	(___fltol@f1+3)^(0+128),f
  1921  0C1F  0BA4               	decfsz	??___fltol^(0+128),f
  1922  0C20  2C1A               	goto	u3755
  1923  0C21  3001               	movlw	1
  1924  0C22  1283               	bcf	3,5	;RP0=0, select bank0
  1925  0C23  1303               	bcf	3,6	;RP1=0, select bank0
  1926  0C24  02EF               	subwf	___fltol@exp1,f
  1927  0C25                     l377:
  1928  0C25  086F               	movf	___fltol@exp1,w
  1929  0C26  1D03               	btfss	3,2
  1930  0C27  2C29               	goto	u3761
  1931  0C28  2C2A               	goto	u3760
  1932  0C29                     u3761:
  1933  0C29  2C16               	goto	l2414
  1934  0C2A                     u3760:
  1935  0C2A                     l2416:
  1936  0C2A  086E               	movf	___fltol@sign1,w
  1937  0C2B  1903               	btfsc	3,2
  1938  0C2C  2C2E               	goto	u3771
  1939  0C2D  2C2F               	goto	u3770
  1940  0C2E                     u3771:
  1941  0C2E  2C3C               	goto	l380
  1942  0C2F                     u3770:
  1943  0C2F                     l2418:
  1944  0C2F  1683               	bsf	3,5	;RP0=1, select bank1
  1945  0C30  1303               	bcf	3,6	;RP1=0, select bank1
  1946  0C31  09A0               	comf	___fltol@f1^(0+128),f
  1947  0C32  09A1               	comf	(___fltol@f1+1)^(0+128),f
  1948  0C33  09A2               	comf	(___fltol@f1+2)^(0+128),f
  1949  0C34  09A3               	comf	(___fltol@f1+3)^(0+128),f
  1950  0C35  0AA0               	incf	___fltol@f1^(0+128),f
  1951  0C36  1903               	skipnz
  1952  0C37  0AA1               	incf	(___fltol@f1+1)^(0+128),f
  1953  0C38  1903               	skipnz
  1954  0C39  0AA2               	incf	(___fltol@f1+2)^(0+128),f
  1955  0C3A  1903               	skipnz
  1956  0C3B  0AA3               	incf	(___fltol@f1+3)^(0+128),f
  1957  0C3C                     l380:
  1958  0C3C                     l370:
  1959  0C3C  0008               	return
  1960  0C3D                     __end_of___fltol:
  1961                           
  1962                           	psect	text5
  1963  0AF6                     __ptext5:	
  1964 ;; *************** function ___flsub *****************
  1965 ;; Defined at:
  1966 ;;		line 242 in file "C:\Program Files\Microchip\xc8\v2.35\pic\sources\c90\common\sprcadd.c"
  1967 ;; Parameters:    Size  Location     Type
  1968 ;;  a               4   44[BANK0 ] long 
  1969 ;;  b               4   48[BANK0 ] long 
  1970 ;; Auto vars:     Size  Location     Type
  1971 ;;		None
  1972 ;; Return value:  Size  Location     Type
  1973 ;;                  4   44[BANK0 ] long 
  1974 ;; Registers used:
  1975 ;;		wreg, status,2, status,0, btemp+1, pclath, cstack
  1976 ;; Tracked objects:
  1977 ;;		On entry : 0/0
  1978 ;;		On exit  : 0/0
  1979 ;;		Unchanged: 0/0
  1980 ;; Data sizes:     COMMON   BANK0   BANK1   BANK3   BANK2
  1981 ;;      Params:         0       8       0       0       0
  1982 ;;      Locals:         0       0       0       0       0
  1983 ;;      Temps:          0       0       0       0       0
  1984 ;;      Totals:         0       8       0       0       0
  1985 ;;Total ram usage:        8 bytes
  1986 ;; Hardware stack levels used: 1
  1987 ;; Hardware stack levels required when called: 3
  1988 ;; This function calls:
  1989 ;;		___fladd
  1990 ;; This function is called by:
  1991 ;;		_main
  1992 ;; This function uses a non-reentrant model
  1993 ;;
  1994                           
  1995  0AF6                     ___flsub:	
  1996                           ;psect for function ___flsub
  1997                           
  1998  0AF6                     l2420:	
  1999                           ;incstack = 0
  2000                           ; Regs used in ___flsub: [wreg+status,2+status,0+btemp+1+pclath+cstack]
  2001                           
  2002  0AF6  3080               	movlw	128
  2003  0AF7  1283               	bcf	3,5	;RP0=0, select bank0
  2004  0AF8  1303               	bcf	3,6	;RP1=0, select bank0
  2005  0AF9  06CF               	xorwf	___flsub@a+3,f
  2006  0AFA                     l2422:
  2007  0AFA  0853               	movf	___flsub@b+3,w
  2008  0AFB  00A3               	movwf	___fladd@b+3
  2009  0AFC  0852               	movf	___flsub@b+2,w
  2010  0AFD  00A2               	movwf	___fladd@b+2
  2011  0AFE  0851               	movf	___flsub@b+1,w
  2012  0AFF  00A1               	movwf	___fladd@b+1
  2013  0B00  0850               	movf	___flsub@b,w
  2014  0B01  00A0               	movwf	___fladd@b
  2015  0B02  084F               	movf	___flsub@a+3,w
  2016  0B03  00A7               	movwf	___fladd@a+3
  2017  0B04  084E               	movf	___flsub@a+2,w
  2018  0B05  00A6               	movwf	___fladd@a+2
  2019  0B06  084D               	movf	___flsub@a+1,w
  2020  0B07  00A5               	movwf	___fladd@a+1
  2021  0B08  084C               	movf	___flsub@a,w
  2022  0B09  00A4               	movwf	___fladd@a
  2023  0B0A  120A  118A  237F  120A  158A  	fcall	___fladd
  2024  0B0F  1283               	bcf	3,5	;RP0=0, select bank0
  2025  0B10  1303               	bcf	3,6	;RP1=0, select bank0
  2026  0B11  0823               	movf	?___fladd+3,w
  2027  0B12  00CF               	movwf	?___flsub+3
  2028  0B13  0822               	movf	?___fladd+2,w
  2029  0B14  00CE               	movwf	?___flsub+2
  2030  0B15  0821               	movf	?___fladd+1,w
  2031  0B16  00CD               	movwf	?___flsub+1
  2032  0B17  0820               	movf	?___fladd,w
  2033  0B18  00CC               	movwf	?___flsub
  2034  0B19                     l523:
  2035  0B19  0008               	return
  2036  0B1A                     __end_of___flsub:
  2037                           
  2038                           	psect	text6
  2039  037F                     __ptext6:	
  2040 ;; *************** function ___fladd *****************
  2041 ;; Defined at:
  2042 ;;		line 10 in file "C:\Program Files\Microchip\xc8\v2.35\pic\sources\c90\common\sprcadd.c"
  2043 ;; Parameters:    Size  Location     Type
  2044 ;;  b               4    0[BANK0 ] long 
  2045 ;;  a               4    4[BANK0 ] long 
  2046 ;; Auto vars:     Size  Location     Type
  2047 ;;  grs             1   19[BANK0 ] unsigned char 
  2048 ;;  bexp            1   18[BANK0 ] unsigned char 
  2049 ;;  aexp            1   17[BANK0 ] unsigned char 
  2050 ;;  signs           1   16[BANK0 ] unsigned char 
  2051 ;; Return value:  Size  Location     Type
  2052 ;;                  4    0[BANK0 ] unsigned char 
  2053 ;; Registers used:
  2054 ;;		wreg, status,2, status,0, btemp+1
  2055 ;; Tracked objects:
  2056 ;;		On entry : 0/0
  2057 ;;		On exit  : 0/0
  2058 ;;		Unchanged: 0/0
  2059 ;; Data sizes:     COMMON   BANK0   BANK1   BANK3   BANK2
  2060 ;;      Params:         0       8       0       0       0
  2061 ;;      Locals:         0       4       0       0       0
  2062 ;;      Temps:          0       8       0       0       0
  2063 ;;      Totals:         0      20       0       0       0
  2064 ;;Total ram usage:       20 bytes
  2065 ;; Hardware stack levels used: 1
  2066 ;; Hardware stack levels required when called: 2
  2067 ;; This function calls:
  2068 ;;		Nothing
  2069 ;; This function is called by:
  2070 ;;		___flsub
  2071 ;; This function uses a non-reentrant model
  2072 ;;
  2073                           
  2074  037F                     ___fladd:	
  2075                           ;psect for function ___fladd
  2076                           
  2077  037F                     l2162:	
  2078                           ;incstack = 0
  2079                           ; Regs used in ___fladd: [wreg+status,2+status,0+btemp+1]
  2080                           
  2081  037F  1283               	bcf	3,5	;RP0=0, select bank0
  2082  0380  1303               	bcf	3,6	;RP1=0, select bank0
  2083  0381  0823               	movf	___fladd@b+3,w
  2084  0382  3980               	andlw	128
  2085  0383  00A8               	movwf	??___fladd
  2086  0384  0828               	movf	??___fladd,w
  2087  0385  00B0               	movwf	___fladd@signs
  2088  0386                     l2164:
  2089  0386  0823               	movf	___fladd@b+3,w
  2090  0387  00A8               	movwf	??___fladd
  2091  0388  0728               	addwf	??___fladd,w
  2092  0389  00A9               	movwf	??___fladd+1
  2093  038A  0829               	movf	??___fladd+1,w
  2094  038B  00B2               	movwf	___fladd@bexp
  2095  038C                     l2166:
  2096  038C  1FA2               	btfss	___fladd@b+2,7
  2097  038D  2B8F               	goto	u3151
  2098  038E  2B90               	goto	u3150
  2099  038F                     u3151:
  2100  038F  2B91               	goto	l2170
  2101  0390                     u3150:
  2102  0390                     l2168:
  2103  0390  1432               	bsf	___fladd@bexp,0
  2104  0391                     l2170:
  2105  0391  0832               	movf	___fladd@bexp,w
  2106  0392  1903               	btfsc	3,2
  2107  0393  2B95               	goto	u3161
  2108  0394  2B96               	goto	u3160
  2109  0395                     u3161:
  2110  0395  2BA6               	goto	l2180
  2111  0396                     u3160:
  2112  0396                     l2172:
  2113  0396  0A32               	incf	___fladd@bexp,w
  2114  0397  1D03               	btfss	3,2
  2115  0398  2B9A               	goto	u3171
  2116  0399  2B9B               	goto	u3170
  2117  039A                     u3171:
  2118  039A  2BA3               	goto	l2176
  2119  039B                     u3170:
  2120  039B                     l2174:
  2121  039B  3000               	movlw	0
  2122  039C  00A3               	movwf	___fladd@b+3
  2123  039D  3000               	movlw	0
  2124  039E  00A2               	movwf	___fladd@b+2
  2125  039F  3000               	movlw	0
  2126  03A0  00A1               	movwf	___fladd@b+1
  2127  03A1  3000               	movlw	0
  2128  03A2  00A0               	movwf	___fladd@b
  2129  03A3                     l2176:
  2130  03A3  17A2               	bsf	___fladd@b+2,7
  2131  03A4                     l2178:
  2132  03A4  01A3               	clrf	___fladd@b+3
  2133  03A5  2BAE               	goto	l2182
  2134  03A6                     l2180:
  2135  03A6  3000               	movlw	0
  2136  03A7  00A3               	movwf	___fladd@b+3
  2137  03A8  3000               	movlw	0
  2138  03A9  00A2               	movwf	___fladd@b+2
  2139  03AA  3000               	movlw	0
  2140  03AB  00A1               	movwf	___fladd@b+1
  2141  03AC  3000               	movlw	0
  2142  03AD  00A0               	movwf	___fladd@b
  2143  03AE                     l2182:
  2144  03AE  0827               	movf	___fladd@a+3,w
  2145  03AF  3980               	andlw	128
  2146  03B0  00A8               	movwf	??___fladd
  2147  03B1  0828               	movf	??___fladd,w
  2148  03B2  00B1               	movwf	___fladd@aexp
  2149  03B3                     l2184:
  2150  03B3  0831               	movf	___fladd@aexp,w
  2151  03B4  0630               	xorwf	___fladd@signs,w
  2152  03B5  1903               	skipnz
  2153  03B6  2BB8               	goto	u3181
  2154  03B7  2BB9               	goto	u3180
  2155  03B8                     u3181:
  2156  03B8  2BBA               	goto	l2188
  2157  03B9                     u3180:
  2158  03B9                     l2186:
  2159  03B9  1730               	bsf	___fladd@signs,6
  2160  03BA                     l2188:
  2161  03BA  0827               	movf	___fladd@a+3,w
  2162  03BB  00A8               	movwf	??___fladd
  2163  03BC  0728               	addwf	??___fladd,w
  2164  03BD  00A9               	movwf	??___fladd+1
  2165  03BE  0829               	movf	??___fladd+1,w
  2166  03BF  00B1               	movwf	___fladd@aexp
  2167  03C0                     l2190:
  2168  03C0  1FA6               	btfss	___fladd@a+2,7
  2169  03C1  2BC3               	goto	u3191
  2170  03C2  2BC4               	goto	u3190
  2171  03C3                     u3191:
  2172  03C3  2BC5               	goto	l2194
  2173  03C4                     u3190:
  2174  03C4                     l2192:
  2175  03C4  1431               	bsf	___fladd@aexp,0
  2176  03C5                     l2194:
  2177  03C5  0831               	movf	___fladd@aexp,w
  2178  03C6  1903               	btfsc	3,2
  2179  03C7  2BC9               	goto	u3201
  2180  03C8  2BCA               	goto	u3200
  2181  03C9                     u3201:
  2182  03C9  2BDA               	goto	l2204
  2183  03CA                     u3200:
  2184  03CA                     l2196:
  2185  03CA  0A31               	incf	___fladd@aexp,w
  2186  03CB  1D03               	btfss	3,2
  2187  03CC  2BCE               	goto	u3211
  2188  03CD  2BCF               	goto	u3210
  2189  03CE                     u3211:
  2190  03CE  2BD7               	goto	l2200
  2191  03CF                     u3210:
  2192  03CF                     l2198:
  2193  03CF  3000               	movlw	0
  2194  03D0  00A7               	movwf	___fladd@a+3
  2195  03D1  3000               	movlw	0
  2196  03D2  00A6               	movwf	___fladd@a+2
  2197  03D3  3000               	movlw	0
  2198  03D4  00A5               	movwf	___fladd@a+1
  2199  03D5  3000               	movlw	0
  2200  03D6  00A4               	movwf	___fladd@a
  2201  03D7                     l2200:
  2202  03D7  17A6               	bsf	___fladd@a+2,7
  2203  03D8                     l2202:
  2204  03D8  01A7               	clrf	___fladd@a+3
  2205  03D9  2BE2               	goto	l477
  2206  03DA                     l2204:
  2207  03DA  3000               	movlw	0
  2208  03DB  00A7               	movwf	___fladd@a+3
  2209  03DC  3000               	movlw	0
  2210  03DD  00A6               	movwf	___fladd@a+2
  2211  03DE  3000               	movlw	0
  2212  03DF  00A5               	movwf	___fladd@a+1
  2213  03E0  3000               	movlw	0
  2214  03E1  00A4               	movwf	___fladd@a
  2215  03E2                     l477:
  2216  03E2  0832               	movf	___fladd@bexp,w
  2217  03E3  0231               	subwf	___fladd@aexp,w
  2218  03E4  1803               	skipnc
  2219  03E5  2BE7               	goto	u3221
  2220  03E6  2BE8               	goto	u3220
  2221  03E7                     u3221:
  2222  03E7  2C2C               	goto	l2240
  2223  03E8                     u3220:
  2224  03E8                     l2206:
  2225  03E8  1F30               	btfss	___fladd@signs,6
  2226  03E9  2BEB               	goto	u3231
  2227  03EA  2BEC               	goto	u3230
  2228  03EB                     u3231:
  2229  03EB  2BF0               	goto	l2210
  2230  03EC                     u3230:
  2231  03EC                     l2208:
  2232  03EC  3080               	movlw	128
  2233  03ED  00A8               	movwf	??___fladd
  2234  03EE  0828               	movf	??___fladd,w
  2235  03EF  06B0               	xorwf	___fladd@signs,f
  2236  03F0                     l2210:
  2237  03F0  0832               	movf	___fladd@bexp,w
  2238  03F1  00A8               	movwf	??___fladd
  2239  03F2  0828               	movf	??___fladd,w
  2240  03F3  00B3               	movwf	___fladd@grs
  2241  03F4                     l2212:
  2242  03F4  0831               	movf	___fladd@aexp,w
  2243  03F5  00A8               	movwf	??___fladd
  2244  03F6  0828               	movf	??___fladd,w
  2245  03F7  00B2               	movwf	___fladd@bexp
  2246  03F8                     l2214:
  2247  03F8  0833               	movf	___fladd@grs,w
  2248  03F9  00A8               	movwf	??___fladd
  2249  03FA  0828               	movf	??___fladd,w
  2250  03FB  00B1               	movwf	___fladd@aexp
  2251  03FC                     l2216:
  2252  03FC  0820               	movf	___fladd@b,w
  2253  03FD  00A8               	movwf	??___fladd
  2254  03FE  0828               	movf	??___fladd,w
  2255  03FF  00B3               	movwf	___fladd@grs
  2256  0400                     l2218:
  2257  0400  0824               	movf	___fladd@a,w
  2258  0401  00A8               	movwf	??___fladd
  2259  0402  0828               	movf	??___fladd,w
  2260  0403  00A0               	movwf	___fladd@b
  2261  0404                     l2220:
  2262  0404  0833               	movf	___fladd@grs,w
  2263  0405  00A8               	movwf	??___fladd
  2264  0406  0828               	movf	??___fladd,w
  2265  0407  00A4               	movwf	___fladd@a
  2266  0408                     l2222:
  2267  0408  0821               	movf	___fladd@b+1,w
  2268  0409  00A8               	movwf	??___fladd
  2269  040A  0828               	movf	??___fladd,w
  2270  040B  00B3               	movwf	___fladd@grs
  2271  040C                     l2224:
  2272  040C  0825               	movf	___fladd@a+1,w
  2273  040D  00A8               	movwf	??___fladd
  2274  040E  0828               	movf	??___fladd,w
  2275  040F  00A1               	movwf	___fladd@b+1
  2276  0410                     l2226:
  2277  0410  0833               	movf	___fladd@grs,w
  2278  0411  00A8               	movwf	??___fladd
  2279  0412  0828               	movf	??___fladd,w
  2280  0413  00A5               	movwf	___fladd@a+1
  2281  0414                     l2228:
  2282  0414  0822               	movf	___fladd@b+2,w
  2283  0415  00A8               	movwf	??___fladd
  2284  0416  0828               	movf	??___fladd,w
  2285  0417  00B3               	movwf	___fladd@grs
  2286  0418                     l2230:
  2287  0418  0826               	movf	___fladd@a+2,w
  2288  0419  00A8               	movwf	??___fladd
  2289  041A  0828               	movf	??___fladd,w
  2290  041B  00A2               	movwf	___fladd@b+2
  2291  041C                     l2232:
  2292  041C  0833               	movf	___fladd@grs,w
  2293  041D  00A8               	movwf	??___fladd
  2294  041E  0828               	movf	??___fladd,w
  2295  041F  00A6               	movwf	___fladd@a+2
  2296  0420                     l2234:
  2297  0420  0823               	movf	___fladd@b+3,w
  2298  0421  00A8               	movwf	??___fladd
  2299  0422  0828               	movf	??___fladd,w
  2300  0423  00B3               	movwf	___fladd@grs
  2301  0424                     l2236:
  2302  0424  0827               	movf	___fladd@a+3,w
  2303  0425  00A8               	movwf	??___fladd
  2304  0426  0828               	movf	??___fladd,w
  2305  0427  00A3               	movwf	___fladd@b+3
  2306  0428                     l2238:
  2307  0428  0833               	movf	___fladd@grs,w
  2308  0429  00A8               	movwf	??___fladd
  2309  042A  0828               	movf	??___fladd,w
  2310  042B  00A7               	movwf	___fladd@a+3
  2311  042C                     l2240:
  2312  042C  01B3               	clrf	___fladd@grs
  2313  042D                     l2242:
  2314  042D  0831               	movf	___fladd@aexp,w
  2315  042E  00A8               	movwf	??___fladd
  2316  042F  01A9               	clrf	??___fladd+1
  2317  0430  0829               	movf	??___fladd+1,w
  2318  0431  00AB               	movwf	??___fladd+3
  2319  0432  0832               	movf	___fladd@bexp,w
  2320  0433  0228               	subwf	??___fladd,w
  2321  0434  00AA               	movwf	??___fladd+2
  2322  0435  1C03               	skipc
  2323  0436  03AB               	decf	??___fladd+3,f
  2324  0437  082B               	movf	??___fladd+3,w
  2325  0438  3A80               	xorlw	128
  2326  0439  00FF               	movwf	btemp+1
  2327  043A  3080               	movlw	128
  2328  043B  027F               	subwf	btemp+1,w
  2329  043C  1D03               	skipz
  2330  043D  2C40               	goto	u3245
  2331  043E  301A               	movlw	26
  2332  043F  022A               	subwf	??___fladd+2,w
  2333  0440                     u3245:
  2334  0440  1C03               	skipc
  2335  0441  2C43               	goto	u3241
  2336  0442  2C44               	goto	u3240
  2337  0443                     u3241:
  2338  0443  2C81               	goto	l2258
  2339  0444                     u3240:
  2340  0444                     l2244:
  2341  0444  1283               	bcf	3,5	;RP0=0, select bank0
  2342  0445  1303               	bcf	3,6	;RP1=0, select bank0
  2343  0446  0823               	movf	___fladd@b+3,w
  2344  0447  0422               	iorwf	___fladd@b+2,w
  2345  0448  0421               	iorwf	___fladd@b+1,w
  2346  0449  0420               	iorwf	___fladd@b,w
  2347  044A  1D03               	skipz
  2348  044B  2C4D               	goto	u3251
  2349  044C  2C4F               	goto	u3250
  2350  044D                     u3251:
  2351  044D  3001               	movlw	1
  2352  044E  2C50               	goto	u3260
  2353  044F                     u3250:
  2354  044F  3000               	movlw	0
  2355  0450                     u3260:
  2356  0450  00A8               	movwf	??___fladd
  2357  0451  0828               	movf	??___fladd,w
  2358  0452  00B3               	movwf	___fladd@grs
  2359  0453  3000               	movlw	0
  2360  0454  00A3               	movwf	___fladd@b+3
  2361  0455  3000               	movlw	0
  2362  0456  00A2               	movwf	___fladd@b+2
  2363  0457  3000               	movlw	0
  2364  0458  00A1               	movwf	___fladd@b+1
  2365  0459  3000               	movlw	0
  2366  045A  00A0               	movwf	___fladd@b
  2367  045B  0831               	movf	___fladd@aexp,w
  2368  045C  00A8               	movwf	??___fladd
  2369  045D  0828               	movf	??___fladd,w
  2370  045E  00B2               	movwf	___fladd@bexp
  2371  045F  2C89               	goto	l481
  2372  0460                     l483:
  2373  0460  1C33               	btfss	___fladd@grs,0
  2374  0461  2C63               	goto	u3271
  2375  0462  2C64               	goto	u3270
  2376  0463                     u3271:
  2377  0463  2C6D               	goto	l2248
  2378  0464                     u3270:
  2379  0464                     l2246:
  2380  0464  0833               	movf	___fladd@grs,w
  2381  0465  00A8               	movwf	??___fladd
  2382  0466  1003               	clrc
  2383  0467  0C28               	rrf	??___fladd,w
  2384  0468  3801               	iorlw	1
  2385  0469  00A9               	movwf	??___fladd+1
  2386  046A  0829               	movf	??___fladd+1,w
  2387  046B  00B3               	movwf	___fladd@grs
  2388  046C  2C6F               	goto	l2250
  2389  046D                     l2248:
  2390  046D  1003               	clrc
  2391  046E  0CB3               	rrf	___fladd@grs,f
  2392  046F                     l2250:
  2393  046F  1C20               	btfss	___fladd@b,0
  2394  0470  2C72               	goto	u3281
  2395  0471  2C73               	goto	u3280
  2396  0472                     u3281:
  2397  0472  2C74               	goto	l2254
  2398  0473                     u3280:
  2399  0473                     l2252:
  2400  0473  17B3               	bsf	___fladd@grs,7
  2401  0474                     l2254:
  2402  0474  3001               	movlw	1
  2403  0475  00A8               	movwf	??___fladd
  2404  0476                     u3295:
  2405  0476  0D23               	rlf	___fladd@b+3,w
  2406  0477  0CA3               	rrf	___fladd@b+3,f
  2407  0478  0CA2               	rrf	___fladd@b+2,f
  2408  0479  0CA1               	rrf	___fladd@b+1,f
  2409  047A  0CA0               	rrf	___fladd@b,f
  2410  047B  0BA8               	decfsz	??___fladd& (0+127),f
  2411  047C  2C76               	goto	u3295
  2412  047D                     l2256:
  2413  047D  3001               	movlw	1
  2414  047E  00A8               	movwf	??___fladd
  2415  047F  0828               	movf	??___fladd,w
  2416  0480  07B2               	addwf	___fladd@bexp,f
  2417  0481                     l2258:
  2418  0481  1283               	bcf	3,5	;RP0=0, select bank0
  2419  0482  1303               	bcf	3,6	;RP1=0, select bank0
  2420  0483  0831               	movf	___fladd@aexp,w
  2421  0484  0232               	subwf	___fladd@bexp,w
  2422  0485  1C03               	skipc
  2423  0486  2C88               	goto	u3301
  2424  0487  2C89               	goto	u3300
  2425  0488                     u3301:
  2426  0488  2C60               	goto	l483
  2427  0489                     u3300:
  2428  0489                     l481:
  2429  0489  1B30               	btfsc	___fladd@signs,6
  2430  048A  2C8C               	goto	u3311
  2431  048B  2C8D               	goto	u3310
  2432  048C                     u3311:
  2433  048C  2CD8               	goto	l2284
  2434  048D                     u3310:
  2435  048D                     l2260:
  2436  048D  0832               	movf	___fladd@bexp,w
  2437  048E  1D03               	btfss	3,2
  2438  048F  2C91               	goto	u3321
  2439  0490  2C92               	goto	u3320
  2440  0491                     u3321:
  2441  0491  2C9B               	goto	l2266
  2442  0492                     u3320:
  2443  0492                     l2262:
  2444  0492  3000               	movlw	0
  2445  0493  00A3               	movwf	?___fladd+3
  2446  0494  3000               	movlw	0
  2447  0495  00A2               	movwf	?___fladd+2
  2448  0496  3000               	movlw	0
  2449  0497  00A1               	movwf	?___fladd+1
  2450  0498  3000               	movlw	0
  2451  0499  00A0               	movwf	?___fladd
  2452  049A  2E06               	goto	l490
  2453  049B                     l2266:
  2454  049B  0824               	movf	___fladd@a,w
  2455  049C  07A0               	addwf	___fladd@b,f
  2456  049D  0825               	movf	___fladd@a+1,w
  2457  049E  1103               	clrz
  2458  049F  1803               	skipnc
  2459  04A0  3E01               	addlw	1
  2460  04A1  1903               	skipnz
  2461  04A2  2CA4               	goto	u3331
  2462  04A3  07A1               	addwf	___fladd@b+1,f
  2463  04A4                     u3331:
  2464  04A4  0826               	movf	___fladd@a+2,w
  2465  04A5  1103               	clrz
  2466  04A6  1803               	skipnc
  2467  04A7  3E01               	addlw	1
  2468  04A8  1903               	skipnz
  2469  04A9  2CAB               	goto	u3332
  2470  04AA  07A2               	addwf	___fladd@b+2,f
  2471  04AB                     u3332:
  2472  04AB  0827               	movf	___fladd@a+3,w
  2473  04AC  1103               	clrz
  2474  04AD  1803               	skipnc
  2475  04AE  3E01               	addlw	1
  2476  04AF  1903               	skipnz
  2477  04B0  2CB2               	goto	u3333
  2478  04B1  07A3               	addwf	___fladd@b+3,f
  2479  04B2                     u3333:
  2480  04B2                     l2268:
  2481  04B2  1C23               	btfss	___fladd@b+3,0
  2482  04B3  2CB5               	goto	u3341
  2483  04B4  2CB6               	goto	u3340
  2484  04B5                     u3341:
  2485  04B5  2D8C               	goto	l2318
  2486  04B6                     u3340:
  2487  04B6                     l2270:
  2488  04B6  1C33               	btfss	___fladd@grs,0
  2489  04B7  2CB9               	goto	u3351
  2490  04B8  2CBA               	goto	u3350
  2491  04B9                     u3351:
  2492  04B9  2CC3               	goto	l2274
  2493  04BA                     u3350:
  2494  04BA                     l2272:
  2495  04BA  0833               	movf	___fladd@grs,w
  2496  04BB  00A8               	movwf	??___fladd
  2497  04BC  1003               	clrc
  2498  04BD  0C28               	rrf	??___fladd,w
  2499  04BE  3801               	iorlw	1
  2500  04BF  00A9               	movwf	??___fladd+1
  2501  04C0  0829               	movf	??___fladd+1,w
  2502  04C1  00B3               	movwf	___fladd@grs
  2503  04C2  2CC5               	goto	l2276
  2504  04C3                     l2274:
  2505  04C3  1003               	clrc
  2506  04C4  0CB3               	rrf	___fladd@grs,f
  2507  04C5                     l2276:
  2508  04C5  1C20               	btfss	___fladd@b,0
  2509  04C6  2CC8               	goto	u3361
  2510  04C7  2CC9               	goto	u3360
  2511  04C8                     u3361:
  2512  04C8  2CCA               	goto	l2280
  2513  04C9                     u3360:
  2514  04C9                     l2278:
  2515  04C9  17B3               	bsf	___fladd@grs,7
  2516  04CA                     l2280:
  2517  04CA  3001               	movlw	1
  2518  04CB  00A8               	movwf	??___fladd
  2519  04CC                     u3375:
  2520  04CC  0D23               	rlf	___fladd@b+3,w
  2521  04CD  0CA3               	rrf	___fladd@b+3,f
  2522  04CE  0CA2               	rrf	___fladd@b+2,f
  2523  04CF  0CA1               	rrf	___fladd@b+1,f
  2524  04D0  0CA0               	rrf	___fladd@b,f
  2525  04D1  0BA8               	decfsz	??___fladd& (0+127),f
  2526  04D2  2CCC               	goto	u3375
  2527  04D3                     l2282:
  2528  04D3  3001               	movlw	1
  2529  04D4  00A8               	movwf	??___fladd
  2530  04D5  0828               	movf	??___fladd,w
  2531  04D6  07B2               	addwf	___fladd@bexp,f
  2532  04D7  2D8C               	goto	l2318
  2533  04D8                     l2284:
  2534  04D8  0823               	movf	___fladd@b+3,w
  2535  04D9  3A80               	xorlw	128
  2536  04DA  00FF               	movwf	btemp+1
  2537  04DB  0827               	movf	___fladd@a+3,w
  2538  04DC  3A80               	xorlw	128
  2539  04DD  027F               	subwf	btemp+1,w
  2540  04DE  1D03               	skipz
  2541  04DF  2CEA               	goto	u3383
  2542  04E0  0826               	movf	___fladd@a+2,w
  2543  04E1  0222               	subwf	___fladd@b+2,w
  2544  04E2  1D03               	skipz
  2545  04E3  2CEA               	goto	u3383
  2546  04E4  0825               	movf	___fladd@a+1,w
  2547  04E5  0221               	subwf	___fladd@b+1,w
  2548  04E6  1D03               	skipz
  2549  04E7  2CEA               	goto	u3383
  2550  04E8  0824               	movf	___fladd@a,w
  2551  04E9  0220               	subwf	___fladd@b,w
  2552  04EA                     u3383:
  2553  04EA  1803               	skipnc
  2554  04EB  2CED               	goto	u3381
  2555  04EC  2CEE               	goto	u3380
  2556  04ED                     u3381:
  2557  04ED  2D46               	goto	l2294
  2558  04EE                     u3380:
  2559  04EE                     l2286:
  2560  04EE  30FF               	movlw	255
  2561  04EF  00A8               	movwf	??___fladd
  2562  04F0  30FF               	movlw	255
  2563  04F1  00A9               	movwf	??___fladd+1
  2564  04F2  30FF               	movlw	255
  2565  04F3  00AA               	movwf	??___fladd+2
  2566  04F4  30FF               	movlw	255
  2567  04F5  00AB               	movwf	??___fladd+3
  2568  04F6  0824               	movf	___fladd@a,w
  2569  04F7  00AC               	movwf	??___fladd+4
  2570  04F8  0825               	movf	___fladd@a+1,w
  2571  04F9  00AD               	movwf	??___fladd+5
  2572  04FA  0826               	movf	___fladd@a+2,w
  2573  04FB  00AE               	movwf	??___fladd+6
  2574  04FC  0827               	movf	___fladd@a+3,w
  2575  04FD  00AF               	movwf	??___fladd+7
  2576  04FE  0820               	movf	___fladd@b,w
  2577  04FF  02AC               	subwf	??___fladd+4,f
  2578  0500  0821               	movf	___fladd@b+1,w
  2579  0501  1C03               	skipc
  2580  0502  0F21               	incfsz	___fladd@b+1,w
  2581  0503  2D05               	goto	u3391
  2582  0504  2D06               	goto	u3392
  2583  0505                     u3391:
  2584  0505  02AD               	subwf	??___fladd+5,f
  2585  0506                     u3392:
  2586  0506  0822               	movf	___fladd@b+2,w
  2587  0507  1C03               	skipc
  2588  0508  0F22               	incfsz	___fladd@b+2,w
  2589  0509  2D0B               	goto	u3393
  2590  050A  2D0C               	goto	u3394
  2591  050B                     u3393:
  2592  050B  02AE               	subwf	??___fladd+6,f
  2593  050C                     u3394:
  2594  050C  0823               	movf	___fladd@b+3,w
  2595  050D  1C03               	skipc
  2596  050E  0F23               	incfsz	___fladd@b+3,w
  2597  050F  2D11               	goto	u3395
  2598  0510  2D12               	goto	u3396
  2599  0511                     u3395:
  2600  0511  02AF               	subwf	??___fladd+7,f
  2601  0512                     u3396:
  2602  0512  082C               	movf	??___fladd+4,w
  2603  0513  07A8               	addwf	??___fladd,f
  2604  0514  082D               	movf	??___fladd+5,w
  2605  0515  1803               	skipnc
  2606  0516  0F2D               	incfsz	??___fladd+5,w
  2607  0517  2D19               	goto	u3400
  2608  0518  2D1A               	goto	u3401
  2609  0519                     u3400:
  2610  0519  07A9               	addwf	??___fladd+1,f
  2611  051A                     u3401:
  2612  051A  082E               	movf	??___fladd+6,w
  2613  051B  1803               	skipnc
  2614  051C  0F2E               	incfsz	??___fladd+6,w
  2615  051D  2D1F               	goto	u3402
  2616  051E  2D20               	goto	u3403
  2617  051F                     u3402:
  2618  051F  07AA               	addwf	??___fladd+2,f
  2619  0520                     u3403:
  2620  0520  082F               	movf	??___fladd+7,w
  2621  0521  1803               	skipnc
  2622  0522  0A2F               	incf	??___fladd+7,w
  2623  0523  07AB               	addwf	??___fladd+3,f
  2624  0524  082B               	movf	??___fladd+3,w
  2625  0525  00A3               	movwf	___fladd@b+3
  2626  0526  082A               	movf	??___fladd+2,w
  2627  0527  00A2               	movwf	___fladd@b+2
  2628  0528  0829               	movf	??___fladd+1,w
  2629  0529  00A1               	movwf	___fladd@b+1
  2630  052A  0828               	movf	??___fladd,w
  2631  052B  00A0               	movwf	___fladd@b
  2632  052C                     l2288:
  2633  052C  3080               	movlw	128
  2634  052D  00A8               	movwf	??___fladd
  2635  052E  0828               	movf	??___fladd,w
  2636  052F  06B0               	xorwf	___fladd@signs,f
  2637  0530  09B3               	comf	___fladd@grs,f
  2638  0531  0AB3               	incf	___fladd@grs,f
  2639  0532                     l2290:
  2640  0532  0833               	movf	___fladd@grs,w
  2641  0533  1D03               	btfss	3,2
  2642  0534  2D36               	goto	u3411
  2643  0535  2D37               	goto	u3410
  2644  0536                     u3411:
  2645  0536  2D54               	goto	l498
  2646  0537                     u3410:
  2647  0537                     l2292:
  2648  0537  3001               	movlw	1
  2649  0538  07A0               	addwf	___fladd@b,f
  2650  0539  3000               	movlw	0
  2651  053A  1803               	skipnc
  2652  053B  3001               	movlw	1
  2653  053C  07A1               	addwf	___fladd@b+1,f
  2654  053D  3000               	movlw	0
  2655  053E  1803               	skipnc
  2656  053F  3001               	movlw	1
  2657  0540  07A2               	addwf	___fladd@b+2,f
  2658  0541  3000               	movlw	0
  2659  0542  1803               	skipnc
  2660  0543  3001               	movlw	1
  2661  0544  07A3               	addwf	___fladd@b+3,f
  2662  0545  2D54               	goto	l498
  2663  0546                     l2294:
  2664  0546  0824               	movf	___fladd@a,w
  2665  0547  02A0               	subwf	___fladd@b,f
  2666  0548  0825               	movf	___fladd@a+1,w
  2667  0549  1C03               	skipc
  2668  054A  0F25               	incfsz	___fladd@a+1,w
  2669  054B  02A1               	subwf	___fladd@b+1,f
  2670  054C  0826               	movf	___fladd@a+2,w
  2671  054D  1C03               	skipc
  2672  054E  0F26               	incfsz	___fladd@a+2,w
  2673  054F  02A2               	subwf	___fladd@b+2,f
  2674  0550  0827               	movf	___fladd@a+3,w
  2675  0551  1C03               	skipc
  2676  0552  0F27               	incfsz	___fladd@a+3,w
  2677  0553  02A3               	subwf	___fladd@b+3,f
  2678  0554                     l498:
  2679  0554  0823               	movf	___fladd@b+3,w
  2680  0555  0422               	iorwf	___fladd@b+2,w
  2681  0556  0421               	iorwf	___fladd@b+1,w
  2682  0557  0420               	iorwf	___fladd@b,w
  2683  0558  1D03               	skipz
  2684  0559  2D5B               	goto	u3421
  2685  055A  2D5C               	goto	u3420
  2686  055B                     u3421:
  2687  055B  2D88               	goto	l2316
  2688  055C                     u3420:
  2689  055C                     l2296:
  2690  055C  0833               	movf	___fladd@grs,w
  2691  055D  1D03               	btfss	3,2
  2692  055E  2D60               	goto	u3431
  2693  055F  2D61               	goto	u3430
  2694  0560                     u3431:
  2695  0560  2D88               	goto	l2316
  2696  0561                     u3430:
  2697  0561                     l2298:
  2698  0561  3000               	movlw	0
  2699  0562  00A3               	movwf	?___fladd+3
  2700  0563  3000               	movlw	0
  2701  0564  00A2               	movwf	?___fladd+2
  2702  0565  3000               	movlw	0
  2703  0566  00A1               	movwf	?___fladd+1
  2704  0567  3000               	movlw	0
  2705  0568  00A0               	movwf	?___fladd
  2706  0569  2E06               	goto	l490
  2707  056A                     l2302:
  2708  056A  3001               	movlw	1
  2709  056B  00A8               	movwf	??___fladd
  2710  056C                     u3445:
  2711  056C  1003               	clrc
  2712  056D  0DA0               	rlf	___fladd@b,f
  2713  056E  0DA1               	rlf	___fladd@b+1,f
  2714  056F  0DA2               	rlf	___fladd@b+2,f
  2715  0570  0DA3               	rlf	___fladd@b+3,f
  2716  0571  0BA8               	decfsz	??___fladd,f
  2717  0572  2D6C               	goto	u3445
  2718  0573                     l2304:
  2719  0573  1FB3               	btfss	___fladd@grs,7
  2720  0574  2D76               	goto	u3451
  2721  0575  2D77               	goto	u3450
  2722  0576                     u3451:
  2723  0576  2D78               	goto	l502
  2724  0577                     u3450:
  2725  0577                     l2306:
  2726  0577  1420               	bsf	___fladd@b,0
  2727  0578                     l502:
  2728  0578  1C33               	btfss	___fladd@grs,0
  2729  0579  2D7B               	goto	u3461
  2730  057A  2D7C               	goto	u3460
  2731  057B                     u3461:
  2732  057B  2D7F               	goto	l2310
  2733  057C                     u3460:
  2734  057C                     l2308:
  2735  057C  1403               	setc
  2736  057D  0DB3               	rlf	___fladd@grs,f
  2737  057E  2D81               	goto	l2312
  2738  057F                     l2310:
  2739  057F  1003               	clrc
  2740  0580  0DB3               	rlf	___fladd@grs,f
  2741  0581                     l2312:
  2742  0581  0832               	movf	___fladd@bexp,w
  2743  0582  1903               	btfsc	3,2
  2744  0583  2D85               	goto	u3471
  2745  0584  2D86               	goto	u3470
  2746  0585                     u3471:
  2747  0585  2D88               	goto	l2316
  2748  0586                     u3470:
  2749  0586                     l2314:
  2750  0586  3001               	movlw	1
  2751  0587  02B2               	subwf	___fladd@bexp,f
  2752  0588                     l2316:
  2753  0588  1FA2               	btfss	___fladd@b+2,7
  2754  0589  2D8B               	goto	u3481
  2755  058A  2D8C               	goto	u3480
  2756  058B                     u3481:
  2757  058B  2D6A               	goto	l2302
  2758  058C                     u3480:
  2759  058C                     l2318:
  2760  058C  01B1               	clrf	___fladd@aexp
  2761  058D                     l2320:
  2762  058D  1FB3               	btfss	___fladd@grs,7
  2763  058E  2D90               	goto	u3491
  2764  058F  2D91               	goto	u3490
  2765  0590                     u3491:
  2766  0590  2D9F               	goto	l2328
  2767  0591                     u3490:
  2768  0591                     l2322:
  2769  0591  0833               	movf	___fladd@grs,w
  2770  0592  397F               	andlw	127
  2771  0593  1903               	btfsc	3,2
  2772  0594  2D96               	goto	u3501
  2773  0595  2D97               	goto	u3500
  2774  0596                     u3501:
  2775  0596  2D9A               	goto	l508
  2776  0597                     u3500:
  2777  0597                     l2324:
  2778  0597  01B1               	clrf	___fladd@aexp
  2779  0598  0AB1               	incf	___fladd@aexp,f
  2780  0599  2D9F               	goto	l2328
  2781  059A                     l508:
  2782  059A  1C20               	btfss	___fladd@b,0
  2783  059B  2D9D               	goto	u3511
  2784  059C  2D9E               	goto	u3510
  2785  059D                     u3511:
  2786  059D  2D9F               	goto	l2328
  2787  059E                     u3510:
  2788  059E  2D97               	goto	l2324
  2789  059F                     l2328:
  2790  059F  0831               	movf	___fladd@aexp,w
  2791  05A0  1903               	btfsc	3,2
  2792  05A1  2DA3               	goto	u3521
  2793  05A2  2DA4               	goto	u3520
  2794  05A3                     u3521:
  2795  05A3  2DD8               	goto	l511
  2796  05A4                     u3520:
  2797  05A4                     l2330:
  2798  05A4  3001               	movlw	1
  2799  05A5  07A0               	addwf	___fladd@b,f
  2800  05A6  3000               	movlw	0
  2801  05A7  1803               	skipnc
  2802  05A8  3001               	movlw	1
  2803  05A9  07A1               	addwf	___fladd@b+1,f
  2804  05AA  3000               	movlw	0
  2805  05AB  1803               	skipnc
  2806  05AC  3001               	movlw	1
  2807  05AD  07A2               	addwf	___fladd@b+2,f
  2808  05AE  3000               	movlw	0
  2809  05AF  1803               	skipnc
  2810  05B0  3001               	movlw	1
  2811  05B1  07A3               	addwf	___fladd@b+3,f
  2812  05B2                     l2332:
  2813  05B2  1C23               	btfss	___fladd@b+3,0
  2814  05B3  2DB5               	goto	u3531
  2815  05B4  2DB6               	goto	u3530
  2816  05B5                     u3531:
  2817  05B5  2DD8               	goto	l511
  2818  05B6                     u3530:
  2819  05B6                     l2334:
  2820  05B6  0820               	movf	___fladd@b,w
  2821  05B7  00A8               	movwf	??___fladd
  2822  05B8  0821               	movf	___fladd@b+1,w
  2823  05B9  00A9               	movwf	??___fladd+1
  2824  05BA  0822               	movf	___fladd@b+2,w
  2825  05BB  00AA               	movwf	??___fladd+2
  2826  05BC  0823               	movf	___fladd@b+3,w
  2827  05BD  00AB               	movwf	??___fladd+3
  2828  05BE  3001               	movlw	1
  2829  05BF  00AC               	movwf	??___fladd+4
  2830  05C0                     u3545:
  2831  05C0  0D2B               	rlf	??___fladd+3,w
  2832  05C1  0CAB               	rrf	??___fladd+3,f
  2833  05C2  0CAA               	rrf	??___fladd+2,f
  2834  05C3  0CA9               	rrf	??___fladd+1,f
  2835  05C4  0CA8               	rrf	??___fladd,f
  2836  05C5                     u3540:
  2837  05C5  0BAC               	decfsz	??___fladd+4,f
  2838  05C6  2DC0               	goto	u3545
  2839  05C7  082B               	movf	??___fladd+3,w
  2840  05C8  00A3               	movwf	___fladd@b+3
  2841  05C9  082A               	movf	??___fladd+2,w
  2842  05CA  00A2               	movwf	___fladd@b+2
  2843  05CB  0829               	movf	??___fladd+1,w
  2844  05CC  00A1               	movwf	___fladd@b+1
  2845  05CD  0828               	movf	??___fladd,w
  2846  05CE  00A0               	movwf	___fladd@b
  2847  05CF  0A32               	incf	___fladd@bexp,w
  2848  05D0  1903               	btfsc	3,2
  2849  05D1  2DD3               	goto	u3551
  2850  05D2  2DD4               	goto	u3550
  2851  05D3                     u3551:
  2852  05D3  2DD8               	goto	l511
  2853  05D4                     u3550:
  2854  05D4                     l2336:
  2855  05D4  3001               	movlw	1
  2856  05D5  00A8               	movwf	??___fladd
  2857  05D6  0828               	movf	??___fladd,w
  2858  05D7  07B2               	addwf	___fladd@bexp,f
  2859  05D8                     l511:
  2860  05D8  0A32               	incf	___fladd@bexp,w
  2861  05D9  1903               	btfsc	3,2
  2862  05DA  2DDC               	goto	u3561
  2863  05DB  2DDD               	goto	u3560
  2864  05DC                     u3561:
  2865  05DC  2DE2               	goto	l2340
  2866  05DD                     u3560:
  2867  05DD                     l2338:
  2868  05DD  0832               	movf	___fladd@bexp,w
  2869  05DE  1D03               	btfss	3,2
  2870  05DF  2DE1               	goto	u3571
  2871  05E0  2DE2               	goto	u3570
  2872  05E1                     u3571:
  2873  05E1  2DF0               	goto	l2346
  2874  05E2                     u3570:
  2875  05E2                     l2340:
  2876  05E2  3000               	movlw	0
  2877  05E3  00A3               	movwf	___fladd@b+3
  2878  05E4  3000               	movlw	0
  2879  05E5  00A2               	movwf	___fladd@b+2
  2880  05E6  3000               	movlw	0
  2881  05E7  00A1               	movwf	___fladd@b+1
  2882  05E8  3000               	movlw	0
  2883  05E9  00A0               	movwf	___fladd@b
  2884  05EA                     l2342:
  2885  05EA  0832               	movf	___fladd@bexp,w
  2886  05EB  1D03               	btfss	3,2
  2887  05EC  2DEE               	goto	u3581
  2888  05ED  2DEF               	goto	u3580
  2889  05EE                     u3581:
  2890  05EE  2DF0               	goto	l2346
  2891  05EF                     u3580:
  2892  05EF                     l2344:
  2893  05EF  01B0               	clrf	___fladd@signs
  2894  05F0                     l2346:
  2895  05F0  1C32               	btfss	___fladd@bexp,0
  2896  05F1  2DF3               	goto	u3591
  2897  05F2  2DF4               	goto	u3590
  2898  05F3                     u3591:
  2899  05F3  2DF6               	goto	l2350
  2900  05F4                     u3590:
  2901  05F4                     l2348:
  2902  05F4  17A2               	bsf	___fladd@b+2,7
  2903  05F5  2DFA               	goto	l519
  2904  05F6                     l2350:
  2905  05F6  307F               	movlw	127
  2906  05F7  00A8               	movwf	??___fladd
  2907  05F8  0828               	movf	??___fladd,w
  2908  05F9  05A2               	andwf	___fladd@b+2,f
  2909  05FA                     l519:
  2910  05FA  0832               	movf	___fladd@bexp,w
  2911  05FB  00A8               	movwf	??___fladd
  2912  05FC  1003               	clrc
  2913  05FD  0C28               	rrf	??___fladd,w
  2914  05FE  00A9               	movwf	??___fladd+1
  2915  05FF  0829               	movf	??___fladd+1,w
  2916  0600  00A3               	movwf	___fladd@b+3
  2917  0601                     l2352:
  2918  0601  1FB0               	btfss	___fladd@signs,7
  2919  0602  2E04               	goto	u3601
  2920  0603  2E05               	goto	u3600
  2921  0604                     u3601:
  2922  0604  2E06               	goto	l520
  2923  0605                     u3600:
  2924  0605                     l2354:
  2925  0605  17A3               	bsf	___fladd@b+3,7
  2926  0606                     l520:
  2927  0606                     l490:
  2928  0606  0008               	return
  2929  0607                     __end_of___fladd:
  2930                           
  2931                           	psect	text7
  2932  001E                     __ptext7:	
  2933 ;; *************** function ___flmul *****************
  2934 ;; Defined at:
  2935 ;;		line 8 in file "C:\Program Files\Microchip\xc8\v2.35\pic\sources\c90\common\sprcmul.c"
  2936 ;; Parameters:    Size  Location     Type
  2937 ;;  b               4   18[BANK0 ] unsigned char 
  2938 ;;  a               4   22[BANK0 ] unsigned char 
  2939 ;; Auto vars:     Size  Location     Type
  2940 ;;  prod            4   38[BANK0 ] struct .
  2941 ;;  grs             4   33[BANK0 ] unsigned long 
  2942 ;;  temp            2   42[BANK0 ] struct .
  2943 ;;  bexp            1   37[BANK0 ] unsigned char 
  2944 ;;  aexp            1   32[BANK0 ] unsigned char 
  2945 ;;  sign            1   31[BANK0 ] unsigned char 
  2946 ;; Return value:  Size  Location     Type
  2947 ;;                  4   18[BANK0 ] unsigned char 
  2948 ;; Registers used:
  2949 ;;		wreg, status,2, status,0, btemp+1, pclath, cstack
  2950 ;; Tracked objects:
  2951 ;;		On entry : 0/0
  2952 ;;		On exit  : 0/0
  2953 ;;		Unchanged: 0/0
  2954 ;; Data sizes:     COMMON   BANK0   BANK1   BANK3   BANK2
  2955 ;;      Params:         0       8       0       0       0
  2956 ;;      Locals:         0      13       0       0       0
  2957 ;;      Temps:          0       5       0       0       0
  2958 ;;      Totals:         0      26       0       0       0
  2959 ;;Total ram usage:       26 bytes
  2960 ;; Hardware stack levels used: 1
  2961 ;; Hardware stack levels required when called: 3
  2962 ;; This function calls:
  2963 ;;		__Umul8_16
  2964 ;; This function is called by:
  2965 ;;		_main
  2966 ;; This function uses a non-reentrant model
  2967 ;;
  2968                           
  2969  001E                     ___flmul:	
  2970                           ;psect for function ___flmul
  2971                           
  2972  001E                     l2426:	
  2973                           ;incstack = 0
  2974                           ; Regs used in ___flmul: [wreg+status,2+status,0+btemp+1+pclath+cstack]
  2975                           
  2976  001E  1283               	bcf	3,5	;RP0=0, select bank0
  2977  001F  1303               	bcf	3,6	;RP1=0, select bank0
  2978  0020  0835               	movf	___flmul@b+3,w
  2979  0021  3980               	andlw	128
  2980  0022  00BA               	movwf	??___flmul
  2981  0023  083A               	movf	??___flmul,w
  2982  0024  00BF               	movwf	___flmul@sign
  2983  0025                     l2428:
  2984  0025  0835               	movf	___flmul@b+3,w
  2985  0026  00BA               	movwf	??___flmul
  2986  0027  073A               	addwf	??___flmul,w
  2987  0028  00BB               	movwf	??___flmul+1
  2988  0029  083B               	movf	??___flmul+1,w
  2989  002A  00C5               	movwf	___flmul@bexp
  2990  002B                     l2430:
  2991  002B  1FB4               	btfss	___flmul@b+2,7
  2992  002C  282E               	goto	u3781
  2993  002D  282F               	goto	u3780
  2994  002E                     u3781:
  2995  002E  2830               	goto	l2434
  2996  002F                     u3780:
  2997  002F                     l2432:
  2998  002F  1445               	bsf	___flmul@bexp,0
  2999  0030                     l2434:
  3000  0030  0845               	movf	___flmul@bexp,w
  3001  0031  1903               	btfsc	3,2
  3002  0032  2834               	goto	u3791
  3003  0033  2835               	goto	u3790
  3004  0034                     u3791:
  3005  0034  2844               	goto	l2442
  3006  0035                     u3790:
  3007  0035                     l2436:
  3008  0035  0A45               	incf	___flmul@bexp,w
  3009  0036  1D03               	btfss	3,2
  3010  0037  2839               	goto	u3801
  3011  0038  283A               	goto	u3800
  3012  0039                     u3801:
  3013  0039  2842               	goto	l2440
  3014  003A                     u3800:
  3015  003A                     l2438:
  3016  003A  3000               	movlw	0
  3017  003B  00B5               	movwf	___flmul@b+3
  3018  003C  3000               	movlw	0
  3019  003D  00B4               	movwf	___flmul@b+2
  3020  003E  3000               	movlw	0
  3021  003F  00B3               	movwf	___flmul@b+1
  3022  0040  3000               	movlw	0
  3023  0041  00B2               	movwf	___flmul@b
  3024  0042                     l2440:
  3025  0042  17B4               	bsf	___flmul@b+2,7
  3026  0043  284C               	goto	l2444
  3027  0044                     l2442:
  3028  0044  3000               	movlw	0
  3029  0045  00B5               	movwf	___flmul@b+3
  3030  0046  3000               	movlw	0
  3031  0047  00B4               	movwf	___flmul@b+2
  3032  0048  3000               	movlw	0
  3033  0049  00B3               	movwf	___flmul@b+1
  3034  004A  3000               	movlw	0
  3035  004B  00B2               	movwf	___flmul@b
  3036  004C                     l2444:
  3037  004C  0839               	movf	___flmul@a+3,w
  3038  004D  3980               	andlw	128
  3039  004E  00BA               	movwf	??___flmul
  3040  004F  083A               	movf	??___flmul,w
  3041  0050  06BF               	xorwf	___flmul@sign,f
  3042  0051                     l2446:
  3043  0051  0839               	movf	___flmul@a+3,w
  3044  0052  00BA               	movwf	??___flmul
  3045  0053  073A               	addwf	??___flmul,w
  3046  0054  00BB               	movwf	??___flmul+1
  3047  0055  083B               	movf	??___flmul+1,w
  3048  0056  00C0               	movwf	___flmul@aexp
  3049  0057                     l2448:
  3050  0057  1FB8               	btfss	___flmul@a+2,7
  3051  0058  285A               	goto	u3811
  3052  0059  285B               	goto	u3810
  3053  005A                     u3811:
  3054  005A  285C               	goto	l2452
  3055  005B                     u3810:
  3056  005B                     l2450:
  3057  005B  1440               	bsf	___flmul@aexp,0
  3058  005C                     l2452:
  3059  005C  0840               	movf	___flmul@aexp,w
  3060  005D  1903               	btfsc	3,2
  3061  005E  2860               	goto	u3821
  3062  005F  2861               	goto	u3820
  3063  0060                     u3821:
  3064  0060  2870               	goto	l2460
  3065  0061                     u3820:
  3066  0061                     l2454:
  3067  0061  0A40               	incf	___flmul@aexp,w
  3068  0062  1D03               	btfss	3,2
  3069  0063  2865               	goto	u3831
  3070  0064  2866               	goto	u3830
  3071  0065                     u3831:
  3072  0065  286E               	goto	l2458
  3073  0066                     u3830:
  3074  0066                     l2456:
  3075  0066  3000               	movlw	0
  3076  0067  00B9               	movwf	___flmul@a+3
  3077  0068  3000               	movlw	0
  3078  0069  00B8               	movwf	___flmul@a+2
  3079  006A  3000               	movlw	0
  3080  006B  00B7               	movwf	___flmul@a+1
  3081  006C  3000               	movlw	0
  3082  006D  00B6               	movwf	___flmul@a
  3083  006E                     l2458:
  3084  006E  17B8               	bsf	___flmul@a+2,7
  3085  006F  2878               	goto	l2462
  3086  0070                     l2460:
  3087  0070  3000               	movlw	0
  3088  0071  00B9               	movwf	___flmul@a+3
  3089  0072  3000               	movlw	0
  3090  0073  00B8               	movwf	___flmul@a+2
  3091  0074  3000               	movlw	0
  3092  0075  00B7               	movwf	___flmul@a+1
  3093  0076  3000               	movlw	0
  3094  0077  00B6               	movwf	___flmul@a
  3095  0078                     l2462:
  3096  0078  0840               	movf	___flmul@aexp,w
  3097  0079  1903               	btfsc	3,2
  3098  007A  287C               	goto	u3841
  3099  007B  287D               	goto	u3840
  3100  007C                     u3841:
  3101  007C  2882               	goto	l2466
  3102  007D                     u3840:
  3103  007D                     l2464:
  3104  007D  0845               	movf	___flmul@bexp,w
  3105  007E  1D03               	btfss	3,2
  3106  007F  2881               	goto	u3851
  3107  0080  2882               	goto	u3850
  3108  0081                     u3851:
  3109  0081  288B               	goto	l2470
  3110  0082                     u3850:
  3111  0082                     l2466:
  3112  0082  3000               	movlw	0
  3113  0083  00B5               	movwf	?___flmul+3
  3114  0084  3000               	movlw	0
  3115  0085  00B4               	movwf	?___flmul+2
  3116  0086  3000               	movlw	0
  3117  0087  00B3               	movwf	?___flmul+1
  3118  0088  3000               	movlw	0
  3119  0089  00B2               	movwf	?___flmul
  3120  008A  2B7E               	goto	l573
  3121  008B                     l2470:
  3122  008B  0832               	movf	___flmul@b,w
  3123  008C  00BA               	movwf	??___flmul
  3124  008D  083A               	movf	??___flmul,w
  3125  008E  00F5               	movwf	__Umul8_16@multiplicand
  3126  008F  0838               	movf	___flmul@a+2,w
  3127  0090  120A  158A  2341  120A  118A  	fcall	__Umul8_16
  3128  0095  0876               	movf	?__Umul8_16+1,w
  3129  0096  1283               	bcf	3,5	;RP0=0, select bank0
  3130  0097  1303               	bcf	3,6	;RP1=0, select bank0
  3131  0098  00CB               	movwf	___flmul@temp+1
  3132  0099  0875               	movf	?__Umul8_16,w
  3133  009A  00CA               	movwf	___flmul@temp
  3134  009B                     l2472:
  3135  009B  084A               	movf	___flmul@temp,w
  3136  009C  00BA               	movwf	??___flmul
  3137  009D  01BB               	clrf	??___flmul+1
  3138  009E  01BC               	clrf	??___flmul+2
  3139  009F  01BD               	clrf	??___flmul+3
  3140  00A0  083D               	movf	??___flmul+3,w
  3141  00A1  00C4               	movwf	___flmul@grs+3
  3142  00A2  083C               	movf	??___flmul+2,w
  3143  00A3  00C3               	movwf	___flmul@grs+2
  3144  00A4  083B               	movf	??___flmul+1,w
  3145  00A5  00C2               	movwf	___flmul@grs+1
  3146  00A6  083A               	movf	??___flmul,w
  3147  00A7  00C1               	movwf	___flmul@grs
  3148  00A8                     l2474:
  3149  00A8  084B               	movf	___flmul@temp+1,w
  3150  00A9  00BA               	movwf	??___flmul
  3151  00AA  01BB               	clrf	??___flmul+1
  3152  00AB  01BC               	clrf	??___flmul+2
  3153  00AC  01BD               	clrf	??___flmul+3
  3154  00AD  083D               	movf	??___flmul+3,w
  3155  00AE  00C9               	movwf	___flmul@prod+3
  3156  00AF  083C               	movf	??___flmul+2,w
  3157  00B0  00C8               	movwf	___flmul@prod+2
  3158  00B1  083B               	movf	??___flmul+1,w
  3159  00B2  00C7               	movwf	___flmul@prod+1
  3160  00B3  083A               	movf	??___flmul,w
  3161  00B4  00C6               	movwf	___flmul@prod
  3162  00B5  0833               	movf	___flmul@b+1,w
  3163  00B6  00BA               	movwf	??___flmul
  3164  00B7  083A               	movf	??___flmul,w
  3165  00B8  00F5               	movwf	__Umul8_16@multiplicand
  3166  00B9  0837               	movf	___flmul@a+1,w
  3167  00BA  120A  158A  2341  120A  118A  	fcall	__Umul8_16
  3168  00BF  0876               	movf	?__Umul8_16+1,w
  3169  00C0  1283               	bcf	3,5	;RP0=0, select bank0
  3170  00C1  1303               	bcf	3,6	;RP1=0, select bank0
  3171  00C2  00CB               	movwf	___flmul@temp+1
  3172  00C3  0875               	movf	?__Umul8_16,w
  3173  00C4  00CA               	movwf	___flmul@temp
  3174  00C5                     l2476:
  3175  00C5  084A               	movf	___flmul@temp,w
  3176  00C6  00BA               	movwf	??___flmul
  3177  00C7  01BB               	clrf	??___flmul+1
  3178  00C8  01BC               	clrf	??___flmul+2
  3179  00C9  01BD               	clrf	??___flmul+3
  3180  00CA  083A               	movf	??___flmul,w
  3181  00CB  07C1               	addwf	___flmul@grs,f
  3182  00CC  083B               	movf	??___flmul+1,w
  3183  00CD  1103               	clrz
  3184  00CE  1803               	skipnc
  3185  00CF  3E01               	addlw	1
  3186  00D0  1903               	skipnz
  3187  00D1  28D3               	goto	u3861
  3188  00D2  07C2               	addwf	___flmul@grs+1,f
  3189  00D3                     u3861:
  3190  00D3  083C               	movf	??___flmul+2,w
  3191  00D4  1103               	clrz
  3192  00D5  1803               	skipnc
  3193  00D6  3E01               	addlw	1
  3194  00D7  1903               	skipnz
  3195  00D8  28DA               	goto	u3862
  3196  00D9  07C3               	addwf	___flmul@grs+2,f
  3197  00DA                     u3862:
  3198  00DA  083D               	movf	??___flmul+3,w
  3199  00DB  1103               	clrz
  3200  00DC  1803               	skipnc
  3201  00DD  3E01               	addlw	1
  3202  00DE  1903               	skipnz
  3203  00DF  28E1               	goto	u3863
  3204  00E0  07C4               	addwf	___flmul@grs+3,f
  3205  00E1                     u3863:
  3206  00E1                     l2478:
  3207  00E1  084B               	movf	___flmul@temp+1,w
  3208  00E2  00BA               	movwf	??___flmul
  3209  00E3  01BB               	clrf	??___flmul+1
  3210  00E4  01BC               	clrf	??___flmul+2
  3211  00E5  01BD               	clrf	??___flmul+3
  3212  00E6  083A               	movf	??___flmul,w
  3213  00E7  07C6               	addwf	___flmul@prod,f
  3214  00E8  083B               	movf	??___flmul+1,w
  3215  00E9  1103               	clrz
  3216  00EA  1803               	skipnc
  3217  00EB  3E01               	addlw	1
  3218  00EC  1903               	skipnz
  3219  00ED  28EF               	goto	u3871
  3220  00EE  07C7               	addwf	___flmul@prod+1,f
  3221  00EF                     u3871:
  3222  00EF  083C               	movf	??___flmul+2,w
  3223  00F0  1103               	clrz
  3224  00F1  1803               	skipnc
  3225  00F2  3E01               	addlw	1
  3226  00F3  1903               	skipnz
  3227  00F4  28F6               	goto	u3872
  3228  00F5  07C8               	addwf	___flmul@prod+2,f
  3229  00F6                     u3872:
  3230  00F6  083D               	movf	??___flmul+3,w
  3231  00F7  1103               	clrz
  3232  00F8  1803               	skipnc
  3233  00F9  3E01               	addlw	1
  3234  00FA  1903               	skipnz
  3235  00FB  28FD               	goto	u3873
  3236  00FC  07C9               	addwf	___flmul@prod+3,f
  3237  00FD                     u3873:
  3238  00FD  0834               	movf	___flmul@b+2,w
  3239  00FE  00BA               	movwf	??___flmul
  3240  00FF  083A               	movf	??___flmul,w
  3241  0100  00F5               	movwf	__Umul8_16@multiplicand
  3242  0101  0836               	movf	___flmul@a,w
  3243  0102  120A  158A  2341  120A  118A  	fcall	__Umul8_16
  3244  0107  0876               	movf	?__Umul8_16+1,w
  3245  0108  1283               	bcf	3,5	;RP0=0, select bank0
  3246  0109  1303               	bcf	3,6	;RP1=0, select bank0
  3247  010A  00CB               	movwf	___flmul@temp+1
  3248  010B  0875               	movf	?__Umul8_16,w
  3249  010C  00CA               	movwf	___flmul@temp
  3250  010D                     l2480:
  3251  010D  084A               	movf	___flmul@temp,w
  3252  010E  00BA               	movwf	??___flmul
  3253  010F  01BB               	clrf	??___flmul+1
  3254  0110  01BC               	clrf	??___flmul+2
  3255  0111  01BD               	clrf	??___flmul+3
  3256  0112  083A               	movf	??___flmul,w
  3257  0113  07C1               	addwf	___flmul@grs,f
  3258  0114  083B               	movf	??___flmul+1,w
  3259  0115  1103               	clrz
  3260  0116  1803               	skipnc
  3261  0117  3E01               	addlw	1
  3262  0118  1903               	skipnz
  3263  0119  291B               	goto	u3881
  3264  011A  07C2               	addwf	___flmul@grs+1,f
  3265  011B                     u3881:
  3266  011B  083C               	movf	??___flmul+2,w
  3267  011C  1103               	clrz
  3268  011D  1803               	skipnc
  3269  011E  3E01               	addlw	1
  3270  011F  1903               	skipnz
  3271  0120  2922               	goto	u3882
  3272  0121  07C3               	addwf	___flmul@grs+2,f
  3273  0122                     u3882:
  3274  0122  083D               	movf	??___flmul+3,w
  3275  0123  1103               	clrz
  3276  0124  1803               	skipnc
  3277  0125  3E01               	addlw	1
  3278  0126  1903               	skipnz
  3279  0127  2929               	goto	u3883
  3280  0128  07C4               	addwf	___flmul@grs+3,f
  3281  0129                     u3883:
  3282  0129                     l2482:
  3283  0129  084B               	movf	___flmul@temp+1,w
  3284  012A  00BA               	movwf	??___flmul
  3285  012B  01BB               	clrf	??___flmul+1
  3286  012C  01BC               	clrf	??___flmul+2
  3287  012D  01BD               	clrf	??___flmul+3
  3288  012E  083A               	movf	??___flmul,w
  3289  012F  07C6               	addwf	___flmul@prod,f
  3290  0130  083B               	movf	??___flmul+1,w
  3291  0131  1103               	clrz
  3292  0132  1803               	skipnc
  3293  0133  3E01               	addlw	1
  3294  0134  1903               	skipnz
  3295  0135  2937               	goto	u3891
  3296  0136  07C7               	addwf	___flmul@prod+1,f
  3297  0137                     u3891:
  3298  0137  083C               	movf	??___flmul+2,w
  3299  0138  1103               	clrz
  3300  0139  1803               	skipnc
  3301  013A  3E01               	addlw	1
  3302  013B  1903               	skipnz
  3303  013C  293E               	goto	u3892
  3304  013D  07C8               	addwf	___flmul@prod+2,f
  3305  013E                     u3892:
  3306  013E  083D               	movf	??___flmul+3,w
  3307  013F  1103               	clrz
  3308  0140  1803               	skipnc
  3309  0141  3E01               	addlw	1
  3310  0142  1903               	skipnz
  3311  0143  2945               	goto	u3893
  3312  0144  07C9               	addwf	___flmul@prod+3,f
  3313  0145                     u3893:
  3314  0145                     l2484:
  3315  0145  3008               	movlw	8
  3316  0146  00BA               	movwf	??___flmul
  3317  0147                     u3905:
  3318  0147  1003               	clrc
  3319  0148  0DC1               	rlf	___flmul@grs,f
  3320  0149  0DC2               	rlf	___flmul@grs+1,f
  3321  014A  0DC3               	rlf	___flmul@grs+2,f
  3322  014B  0DC4               	rlf	___flmul@grs+3,f
  3323  014C  0BBA               	decfsz	??___flmul,f
  3324  014D  2947               	goto	u3905
  3325  014E                     l2486:
  3326  014E  0833               	movf	___flmul@b+1,w
  3327  014F  00BA               	movwf	??___flmul
  3328  0150  083A               	movf	??___flmul,w
  3329  0151  00F5               	movwf	__Umul8_16@multiplicand
  3330  0152  0836               	movf	___flmul@a,w
  3331  0153  120A  158A  2341  120A  118A  	fcall	__Umul8_16
  3332  0158  0876               	movf	?__Umul8_16+1,w
  3333  0159  1283               	bcf	3,5	;RP0=0, select bank0
  3334  015A  1303               	bcf	3,6	;RP1=0, select bank0
  3335  015B  00CB               	movwf	___flmul@temp+1
  3336  015C  0875               	movf	?__Umul8_16,w
  3337  015D  00CA               	movwf	___flmul@temp
  3338  015E                     l2488:
  3339  015E  084A               	movf	___flmul@temp,w
  3340  015F  00BA               	movwf	??___flmul
  3341  0160  084B               	movf	___flmul@temp+1,w
  3342  0161  00BB               	movwf	??___flmul+1
  3343  0162  01BC               	clrf	??___flmul+2
  3344  0163  01BD               	clrf	??___flmul+3
  3345  0164  083A               	movf	??___flmul,w
  3346  0165  07C1               	addwf	___flmul@grs,f
  3347  0166  083B               	movf	??___flmul+1,w
  3348  0167  1103               	clrz
  3349  0168  1803               	skipnc
  3350  0169  3E01               	addlw	1
  3351  016A  1903               	skipnz
  3352  016B  296D               	goto	u3911
  3353  016C  07C2               	addwf	___flmul@grs+1,f
  3354  016D                     u3911:
  3355  016D  083C               	movf	??___flmul+2,w
  3356  016E  1103               	clrz
  3357  016F  1803               	skipnc
  3358  0170  3E01               	addlw	1
  3359  0171  1903               	skipnz
  3360  0172  2974               	goto	u3912
  3361  0173  07C3               	addwf	___flmul@grs+2,f
  3362  0174                     u3912:
  3363  0174  083D               	movf	??___flmul+3,w
  3364  0175  1103               	clrz
  3365  0176  1803               	skipnc
  3366  0177  3E01               	addlw	1
  3367  0178  1903               	skipnz
  3368  0179  297B               	goto	u3913
  3369  017A  07C4               	addwf	___flmul@grs+3,f
  3370  017B                     u3913:
  3371  017B                     l2490:
  3372  017B  0832               	movf	___flmul@b,w
  3373  017C  00BA               	movwf	??___flmul
  3374  017D  083A               	movf	??___flmul,w
  3375  017E  00F5               	movwf	__Umul8_16@multiplicand
  3376  017F  0837               	movf	___flmul@a+1,w
  3377  0180  120A  158A  2341  120A  118A  	fcall	__Umul8_16
  3378  0185  0876               	movf	?__Umul8_16+1,w
  3379  0186  1283               	bcf	3,5	;RP0=0, select bank0
  3380  0187  1303               	bcf	3,6	;RP1=0, select bank0
  3381  0188  00CB               	movwf	___flmul@temp+1
  3382  0189  0875               	movf	?__Umul8_16,w
  3383  018A  00CA               	movwf	___flmul@temp
  3384  018B                     l2492:
  3385  018B  084A               	movf	___flmul@temp,w
  3386  018C  00BA               	movwf	??___flmul
  3387  018D  084B               	movf	___flmul@temp+1,w
  3388  018E  00BB               	movwf	??___flmul+1
  3389  018F  01BC               	clrf	??___flmul+2
  3390  0190  01BD               	clrf	??___flmul+3
  3391  0191  083A               	movf	??___flmul,w
  3392  0192  07C1               	addwf	___flmul@grs,f
  3393  0193  083B               	movf	??___flmul+1,w
  3394  0194  1103               	clrz
  3395  0195  1803               	skipnc
  3396  0196  3E01               	addlw	1
  3397  0197  1903               	skipnz
  3398  0198  299A               	goto	u3921
  3399  0199  07C2               	addwf	___flmul@grs+1,f
  3400  019A                     u3921:
  3401  019A  083C               	movf	??___flmul+2,w
  3402  019B  1103               	clrz
  3403  019C  1803               	skipnc
  3404  019D  3E01               	addlw	1
  3405  019E  1903               	skipnz
  3406  019F  29A1               	goto	u3922
  3407  01A0  07C3               	addwf	___flmul@grs+2,f
  3408  01A1                     u3922:
  3409  01A1  083D               	movf	??___flmul+3,w
  3410  01A2  1103               	clrz
  3411  01A3  1803               	skipnc
  3412  01A4  3E01               	addlw	1
  3413  01A5  1903               	skipnz
  3414  01A6  29A8               	goto	u3923
  3415  01A7  07C4               	addwf	___flmul@grs+3,f
  3416  01A8                     u3923:
  3417  01A8                     l2494:
  3418  01A8  3008               	movlw	8
  3419  01A9  00BA               	movwf	??___flmul
  3420  01AA                     u3935:
  3421  01AA  1003               	clrc
  3422  01AB  0DC1               	rlf	___flmul@grs,f
  3423  01AC  0DC2               	rlf	___flmul@grs+1,f
  3424  01AD  0DC3               	rlf	___flmul@grs+2,f
  3425  01AE  0DC4               	rlf	___flmul@grs+3,f
  3426  01AF  0BBA               	decfsz	??___flmul,f
  3427  01B0  29AA               	goto	u3935
  3428  01B1  0832               	movf	___flmul@b,w
  3429  01B2  00BA               	movwf	??___flmul
  3430  01B3  083A               	movf	??___flmul,w
  3431  01B4  00F5               	movwf	__Umul8_16@multiplicand
  3432  01B5  0836               	movf	___flmul@a,w
  3433  01B6  120A  158A  2341  120A  118A  	fcall	__Umul8_16
  3434  01BB  0876               	movf	?__Umul8_16+1,w
  3435  01BC  1283               	bcf	3,5	;RP0=0, select bank0
  3436  01BD  1303               	bcf	3,6	;RP1=0, select bank0
  3437  01BE  00CB               	movwf	___flmul@temp+1
  3438  01BF  0875               	movf	?__Umul8_16,w
  3439  01C0  00CA               	movwf	___flmul@temp
  3440  01C1                     l2496:
  3441  01C1  084A               	movf	___flmul@temp,w
  3442  01C2  00BA               	movwf	??___flmul
  3443  01C3  084B               	movf	___flmul@temp+1,w
  3444  01C4  00BB               	movwf	??___flmul+1
  3445  01C5  01BC               	clrf	??___flmul+2
  3446  01C6  01BD               	clrf	??___flmul+3
  3447  01C7  083A               	movf	??___flmul,w
  3448  01C8  07C1               	addwf	___flmul@grs,f
  3449  01C9  083B               	movf	??___flmul+1,w
  3450  01CA  1103               	clrz
  3451  01CB  1803               	skipnc
  3452  01CC  3E01               	addlw	1
  3453  01CD  1903               	skipnz
  3454  01CE  29D0               	goto	u3941
  3455  01CF  07C2               	addwf	___flmul@grs+1,f
  3456  01D0                     u3941:
  3457  01D0  083C               	movf	??___flmul+2,w
  3458  01D1  1103               	clrz
  3459  01D2  1803               	skipnc
  3460  01D3  3E01               	addlw	1
  3461  01D4  1903               	skipnz
  3462  01D5  29D7               	goto	u3942
  3463  01D6  07C3               	addwf	___flmul@grs+2,f
  3464  01D7                     u3942:
  3465  01D7  083D               	movf	??___flmul+3,w
  3466  01D8  1103               	clrz
  3467  01D9  1803               	skipnc
  3468  01DA  3E01               	addlw	1
  3469  01DB  1903               	skipnz
  3470  01DC  29DE               	goto	u3943
  3471  01DD  07C4               	addwf	___flmul@grs+3,f
  3472  01DE                     u3943:
  3473  01DE                     l2498:
  3474  01DE  0833               	movf	___flmul@b+1,w
  3475  01DF  00BA               	movwf	??___flmul
  3476  01E0  083A               	movf	??___flmul,w
  3477  01E1  00F5               	movwf	__Umul8_16@multiplicand
  3478  01E2  0838               	movf	___flmul@a+2,w
  3479  01E3  120A  158A  2341  120A  118A  	fcall	__Umul8_16
  3480  01E8  0876               	movf	?__Umul8_16+1,w
  3481  01E9  1283               	bcf	3,5	;RP0=0, select bank0
  3482  01EA  1303               	bcf	3,6	;RP1=0, select bank0
  3483  01EB  00CB               	movwf	___flmul@temp+1
  3484  01EC  0875               	movf	?__Umul8_16,w
  3485  01ED  00CA               	movwf	___flmul@temp
  3486  01EE  084A               	movf	___flmul@temp,w
  3487  01EF  00BA               	movwf	??___flmul
  3488  01F0  084B               	movf	___flmul@temp+1,w
  3489  01F1  00BB               	movwf	??___flmul+1
  3490  01F2  01BC               	clrf	??___flmul+2
  3491  01F3  01BD               	clrf	??___flmul+3
  3492  01F4  083A               	movf	??___flmul,w
  3493  01F5  07C6               	addwf	___flmul@prod,f
  3494  01F6  083B               	movf	??___flmul+1,w
  3495  01F7  1103               	clrz
  3496  01F8  1803               	skipnc
  3497  01F9  3E01               	addlw	1
  3498  01FA  1903               	skipnz
  3499  01FB  29FD               	goto	u3951
  3500  01FC  07C7               	addwf	___flmul@prod+1,f
  3501  01FD                     u3951:
  3502  01FD  083C               	movf	??___flmul+2,w
  3503  01FE  1103               	clrz
  3504  01FF  1803               	skipnc
  3505  0200  3E01               	addlw	1
  3506  0201  1903               	skipnz
  3507  0202  2A04               	goto	u3952
  3508  0203  07C8               	addwf	___flmul@prod+2,f
  3509  0204                     u3952:
  3510  0204  083D               	movf	??___flmul+3,w
  3511  0205  1103               	clrz
  3512  0206  1803               	skipnc
  3513  0207  3E01               	addlw	1
  3514  0208  1903               	skipnz
  3515  0209  2A0B               	goto	u3953
  3516  020A  07C9               	addwf	___flmul@prod+3,f
  3517  020B                     u3953:
  3518  020B                     l2500:
  3519  020B  0834               	movf	___flmul@b+2,w
  3520  020C  00BA               	movwf	??___flmul
  3521  020D  083A               	movf	??___flmul,w
  3522  020E  00F5               	movwf	__Umul8_16@multiplicand
  3523  020F  0837               	movf	___flmul@a+1,w
  3524  0210  120A  158A  2341  120A  118A  	fcall	__Umul8_16
  3525  0215  0876               	movf	?__Umul8_16+1,w
  3526  0216  1283               	bcf	3,5	;RP0=0, select bank0
  3527  0217  1303               	bcf	3,6	;RP1=0, select bank0
  3528  0218  00CB               	movwf	___flmul@temp+1
  3529  0219  0875               	movf	?__Umul8_16,w
  3530  021A  00CA               	movwf	___flmul@temp
  3531  021B                     l2502:
  3532  021B  084A               	movf	___flmul@temp,w
  3533  021C  00BA               	movwf	??___flmul
  3534  021D  084B               	movf	___flmul@temp+1,w
  3535  021E  00BB               	movwf	??___flmul+1
  3536  021F  01BC               	clrf	??___flmul+2
  3537  0220  01BD               	clrf	??___flmul+3
  3538  0221  083A               	movf	??___flmul,w
  3539  0222  07C6               	addwf	___flmul@prod,f
  3540  0223  083B               	movf	??___flmul+1,w
  3541  0224  1103               	clrz
  3542  0225  1803               	skipnc
  3543  0226  3E01               	addlw	1
  3544  0227  1903               	skipnz
  3545  0228  2A2A               	goto	u3961
  3546  0229  07C7               	addwf	___flmul@prod+1,f
  3547  022A                     u3961:
  3548  022A  083C               	movf	??___flmul+2,w
  3549  022B  1103               	clrz
  3550  022C  1803               	skipnc
  3551  022D  3E01               	addlw	1
  3552  022E  1903               	skipnz
  3553  022F  2A31               	goto	u3962
  3554  0230  07C8               	addwf	___flmul@prod+2,f
  3555  0231                     u3962:
  3556  0231  083D               	movf	??___flmul+3,w
  3557  0232  1103               	clrz
  3558  0233  1803               	skipnc
  3559  0234  3E01               	addlw	1
  3560  0235  1903               	skipnz
  3561  0236  2A38               	goto	u3963
  3562  0237  07C9               	addwf	___flmul@prod+3,f
  3563  0238                     u3963:
  3564  0238  0834               	movf	___flmul@b+2,w
  3565  0239  00BA               	movwf	??___flmul
  3566  023A  083A               	movf	??___flmul,w
  3567  023B  00F5               	movwf	__Umul8_16@multiplicand
  3568  023C  0838               	movf	___flmul@a+2,w
  3569  023D  120A  158A  2341  120A  118A  	fcall	__Umul8_16
  3570  0242  0876               	movf	?__Umul8_16+1,w
  3571  0243  1283               	bcf	3,5	;RP0=0, select bank0
  3572  0244  1303               	bcf	3,6	;RP1=0, select bank0
  3573  0245  00CB               	movwf	___flmul@temp+1
  3574  0246  0875               	movf	?__Umul8_16,w
  3575  0247  00CA               	movwf	___flmul@temp
  3576  0248                     l2504:
  3577  0248  084A               	movf	___flmul@temp,w
  3578  0249  00BA               	movwf	??___flmul
  3579  024A  084B               	movf	___flmul@temp+1,w
  3580  024B  00BB               	movwf	??___flmul+1
  3581  024C  01BC               	clrf	??___flmul+2
  3582  024D  01BD               	clrf	??___flmul+3
  3583  024E  3008               	movlw	8
  3584  024F                     u3975:
  3585  024F  1003               	clrc
  3586  0250  0DBA               	rlf	??___flmul,f
  3587  0251  0DBB               	rlf	??___flmul+1,f
  3588  0252  0DBC               	rlf	??___flmul+2,f
  3589  0253  0DBD               	rlf	??___flmul+3,f
  3590  0254                     u3970:
  3591  0254  3EFF               	addlw	-1
  3592  0255  1D03               	skipz
  3593  0256  2A4F               	goto	u3975
  3594  0257  083A               	movf	??___flmul,w
  3595  0258  07C6               	addwf	___flmul@prod,f
  3596  0259  083B               	movf	??___flmul+1,w
  3597  025A  1103               	clrz
  3598  025B  1803               	skipnc
  3599  025C  3E01               	addlw	1
  3600  025D  1903               	skipnz
  3601  025E  2A60               	goto	u3981
  3602  025F  07C7               	addwf	___flmul@prod+1,f
  3603  0260                     u3981:
  3604  0260  083C               	movf	??___flmul+2,w
  3605  0261  1103               	clrz
  3606  0262  1803               	skipnc
  3607  0263  3E01               	addlw	1
  3608  0264  1903               	skipnz
  3609  0265  2A67               	goto	u3982
  3610  0266  07C8               	addwf	___flmul@prod+2,f
  3611  0267                     u3982:
  3612  0267  083D               	movf	??___flmul+3,w
  3613  0268  1103               	clrz
  3614  0269  1803               	skipnc
  3615  026A  3E01               	addlw	1
  3616  026B  1903               	skipnz
  3617  026C  2A6E               	goto	u3983
  3618  026D  07C9               	addwf	___flmul@prod+3,f
  3619  026E                     u3983:
  3620  026E                     l2506:
  3621  026E  0841               	movf	___flmul@grs,w
  3622  026F  00BA               	movwf	??___flmul
  3623  0270  0842               	movf	___flmul@grs+1,w
  3624  0271  00BB               	movwf	??___flmul+1
  3625  0272  0843               	movf	___flmul@grs+2,w
  3626  0273  00BC               	movwf	??___flmul+2
  3627  0274  0844               	movf	___flmul@grs+3,w
  3628  0275  00BD               	movwf	??___flmul+3
  3629  0276  3018               	movlw	24
  3630  0277                     u3995:
  3631  0277  1003               	clrc
  3632  0278  0CBD               	rrf	??___flmul+3,f
  3633  0279  0CBC               	rrf	??___flmul+2,f
  3634  027A  0CBB               	rrf	??___flmul+1,f
  3635  027B  0CBA               	rrf	??___flmul,f
  3636  027C                     u3990:
  3637  027C  3EFF               	addlw	-1
  3638  027D  1D03               	skipz
  3639  027E  2A77               	goto	u3995
  3640  027F  083A               	movf	??___flmul,w
  3641  0280  07C6               	addwf	___flmul@prod,f
  3642  0281  083B               	movf	??___flmul+1,w
  3643  0282  1103               	clrz
  3644  0283  1803               	skipnc
  3645  0284  3E01               	addlw	1
  3646  0285  1903               	skipnz
  3647  0286  2A88               	goto	u4001
  3648  0287  07C7               	addwf	___flmul@prod+1,f
  3649  0288                     u4001:
  3650  0288  083C               	movf	??___flmul+2,w
  3651  0289  1103               	clrz
  3652  028A  1803               	skipnc
  3653  028B  3E01               	addlw	1
  3654  028C  1903               	skipnz
  3655  028D  2A8F               	goto	u4002
  3656  028E  07C8               	addwf	___flmul@prod+2,f
  3657  028F                     u4002:
  3658  028F  083D               	movf	??___flmul+3,w
  3659  0290  1103               	clrz
  3660  0291  1803               	skipnc
  3661  0292  3E01               	addlw	1
  3662  0293  1903               	skipnz
  3663  0294  2A96               	goto	u4003
  3664  0295  07C9               	addwf	___flmul@prod+3,f
  3665  0296                     u4003:
  3666  0296                     l2508:
  3667  0296  3008               	movlw	8
  3668  0297  00BA               	movwf	??___flmul
  3669  0298                     u4015:
  3670  0298  1003               	clrc
  3671  0299  0DC1               	rlf	___flmul@grs,f
  3672  029A  0DC2               	rlf	___flmul@grs+1,f
  3673  029B  0DC3               	rlf	___flmul@grs+2,f
  3674  029C  0DC4               	rlf	___flmul@grs+3,f
  3675  029D  0BBA               	decfsz	??___flmul,f
  3676  029E  2A98               	goto	u4015
  3677  029F                     l2510:
  3678  029F  0845               	movf	___flmul@bexp,w
  3679  02A0  0740               	addwf	___flmul@aexp,w
  3680  02A1  00BA               	movwf	??___flmul
  3681  02A2  01BB               	clrf	??___flmul+1
  3682  02A3  0DBB               	rlf	??___flmul+1,f
  3683  02A4  083A               	movf	??___flmul,w
  3684  02A5  3E82               	addlw	130
  3685  02A6  00CA               	movwf	___flmul@temp
  3686  02A7  083B               	movf	??___flmul+1,w
  3687  02A8  1803               	skipnc
  3688  02A9  3E01               	addlw	1
  3689  02AA  3EFF               	addlw	255
  3690  02AB  00CB               	movwf	___flmul@temp+1
  3691  02AC  2ACA               	goto	l2522
  3692  02AD                     l2512:
  3693  02AD  3001               	movlw	1
  3694  02AE  00BA               	movwf	??___flmul
  3695  02AF                     u4025:
  3696  02AF  1003               	clrc
  3697  02B0  0DC6               	rlf	___flmul@prod,f
  3698  02B1  0DC7               	rlf	___flmul@prod+1,f
  3699  02B2  0DC8               	rlf	___flmul@prod+2,f
  3700  02B3  0DC9               	rlf	___flmul@prod+3,f
  3701  02B4  0BBA               	decfsz	??___flmul,f
  3702  02B5  2AAF               	goto	u4025
  3703  02B6                     l2514:
  3704  02B6  1FC4               	btfss	___flmul@grs+3,7
  3705  02B7  2AB9               	goto	u4031
  3706  02B8  2ABA               	goto	u4030
  3707  02B9                     u4031:
  3708  02B9  2ABB               	goto	l2518
  3709  02BA                     u4030:
  3710  02BA                     l2516:
  3711  02BA  1446               	bsf	___flmul@prod,0
  3712  02BB                     l2518:
  3713  02BB  3001               	movlw	1
  3714  02BC  00BA               	movwf	??___flmul
  3715  02BD                     u4045:
  3716  02BD  1003               	clrc
  3717  02BE  0DC1               	rlf	___flmul@grs,f
  3718  02BF  0DC2               	rlf	___flmul@grs+1,f
  3719  02C0  0DC3               	rlf	___flmul@grs+2,f
  3720  02C1  0DC4               	rlf	___flmul@grs+3,f
  3721  02C2  0BBA               	decfsz	??___flmul,f
  3722  02C3  2ABD               	goto	u4045
  3723  02C4                     l2520:
  3724  02C4  30FF               	movlw	255
  3725  02C5  07CA               	addwf	___flmul@temp,f
  3726  02C6  1803               	skipnc
  3727  02C7  0ACB               	incf	___flmul@temp+1,f
  3728  02C8  30FF               	movlw	255
  3729  02C9  07CB               	addwf	___flmul@temp+1,f
  3730  02CA                     l2522:
  3731  02CA  1FC8               	btfss	___flmul@prod+2,7
  3732  02CB  2ACD               	goto	u4051
  3733  02CC  2ACE               	goto	u4050
  3734  02CD                     u4051:
  3735  02CD  2AAD               	goto	l2512
  3736  02CE                     u4050:
  3737  02CE                     l2524:
  3738  02CE  01C0               	clrf	___flmul@aexp
  3739  02CF                     l2526:
  3740  02CF  1FC4               	btfss	___flmul@grs+3,7
  3741  02D0  2AD2               	goto	u4061
  3742  02D1  2AD3               	goto	u4060
  3743  02D2                     u4061:
  3744  02D2  2AEF               	goto	l2534
  3745  02D3                     u4060:
  3746  02D3                     l2528:
  3747  02D3  30FF               	movlw	255
  3748  02D4  0541               	andwf	___flmul@grs,w
  3749  02D5  00BA               	movwf	??___flmul
  3750  02D6  30FF               	movlw	255
  3751  02D7  0542               	andwf	___flmul@grs+1,w
  3752  02D8  00BB               	movwf	??___flmul+1
  3753  02D9  30FF               	movlw	255
  3754  02DA  0543               	andwf	___flmul@grs+2,w
  3755  02DB  00BC               	movwf	??___flmul+2
  3756  02DC  307F               	movlw	127
  3757  02DD  0544               	andwf	___flmul@grs+3,w
  3758  02DE  00BD               	movwf	??___flmul+3
  3759  02DF  083D               	movf	??___flmul+3,w
  3760  02E0  043C               	iorwf	??___flmul+2,w
  3761  02E1  043B               	iorwf	??___flmul+1,w
  3762  02E2  043A               	iorwf	??___flmul,w
  3763  02E3  1903               	skipnz
  3764  02E4  2AE6               	goto	u4071
  3765  02E5  2AE7               	goto	u4070
  3766  02E6                     u4071:
  3767  02E6  2AEA               	goto	l579
  3768  02E7                     u4070:
  3769  02E7                     l2530:
  3770  02E7  01C0               	clrf	___flmul@aexp
  3771  02E8  0AC0               	incf	___flmul@aexp,f
  3772  02E9  2AEF               	goto	l2534
  3773  02EA                     l579:
  3774  02EA  1C46               	btfss	___flmul@prod,0
  3775  02EB  2AED               	goto	u4081
  3776  02EC  2AEE               	goto	u4080
  3777  02ED                     u4081:
  3778  02ED  2AEF               	goto	l2534
  3779  02EE                     u4080:
  3780  02EE  2AE7               	goto	l2530
  3781  02EF                     l2534:
  3782  02EF  0840               	movf	___flmul@aexp,w
  3783  02F0  1903               	btfsc	3,2
  3784  02F1  2AF3               	goto	u4091
  3785  02F2  2AF4               	goto	u4090
  3786  02F3                     u4091:
  3787  02F3  2B25               	goto	l2544
  3788  02F4                     u4090:
  3789  02F4                     l2536:
  3790  02F4  3001               	movlw	1
  3791  02F5  07C6               	addwf	___flmul@prod,f
  3792  02F6  3000               	movlw	0
  3793  02F7  1803               	skipnc
  3794  02F8  3001               	movlw	1
  3795  02F9  07C7               	addwf	___flmul@prod+1,f
  3796  02FA  3000               	movlw	0
  3797  02FB  1803               	skipnc
  3798  02FC  3001               	movlw	1
  3799  02FD  07C8               	addwf	___flmul@prod+2,f
  3800  02FE  3000               	movlw	0
  3801  02FF  1803               	skipnc
  3802  0300  3001               	movlw	1
  3803  0301  07C9               	addwf	___flmul@prod+3,f
  3804  0302                     l2538:
  3805  0302  1C49               	btfss	___flmul@prod+3,0
  3806  0303  2B05               	goto	u4101
  3807  0304  2B06               	goto	u4100
  3808  0305                     u4101:
  3809  0305  2B25               	goto	l2544
  3810  0306                     u4100:
  3811  0306                     l2540:
  3812  0306  0846               	movf	___flmul@prod,w
  3813  0307  00BA               	movwf	??___flmul
  3814  0308  0847               	movf	___flmul@prod+1,w
  3815  0309  00BB               	movwf	??___flmul+1
  3816  030A  0848               	movf	___flmul@prod+2,w
  3817  030B  00BC               	movwf	??___flmul+2
  3818  030C  0849               	movf	___flmul@prod+3,w
  3819  030D  00BD               	movwf	??___flmul+3
  3820  030E  3001               	movlw	1
  3821  030F  00BE               	movwf	??___flmul+4
  3822  0310                     u4115:
  3823  0310  0D3D               	rlf	??___flmul+3,w
  3824  0311  0CBD               	rrf	??___flmul+3,f
  3825  0312  0CBC               	rrf	??___flmul+2,f
  3826  0313  0CBB               	rrf	??___flmul+1,f
  3827  0314  0CBA               	rrf	??___flmul,f
  3828  0315                     u4110:
  3829  0315  0BBE               	decfsz	??___flmul+4,f
  3830  0316  2B10               	goto	u4115
  3831  0317  083D               	movf	??___flmul+3,w
  3832  0318  00C9               	movwf	___flmul@prod+3
  3833  0319  083C               	movf	??___flmul+2,w
  3834  031A  00C8               	movwf	___flmul@prod+2
  3835  031B  083B               	movf	??___flmul+1,w
  3836  031C  00C7               	movwf	___flmul@prod+1
  3837  031D  083A               	movf	??___flmul,w
  3838  031E  00C6               	movwf	___flmul@prod
  3839  031F                     l2542:
  3840  031F  3001               	movlw	1
  3841  0320  07CA               	addwf	___flmul@temp,f
  3842  0321  1803               	skipnc
  3843  0322  0ACB               	incf	___flmul@temp+1,f
  3844  0323  3000               	movlw	0
  3845  0324  07CB               	addwf	___flmul@temp+1,f
  3846  0325                     l2544:
  3847  0325  084B               	movf	___flmul@temp+1,w
  3848  0326  3A80               	xorlw	128
  3849  0327  00FF               	movwf	btemp+1
  3850  0328  3080               	movlw	128
  3851  0329  027F               	subwf	btemp+1,w
  3852  032A  1D03               	skipz
  3853  032B  2B2E               	goto	u4125
  3854  032C  30FF               	movlw	255
  3855  032D  024A               	subwf	___flmul@temp,w
  3856  032E                     u4125:
  3857  032E  1C03               	skipc
  3858  032F  2B31               	goto	u4121
  3859  0330  2B32               	goto	u4120
  3860  0331                     u4121:
  3861  0331  2B3D               	goto	l2548
  3862  0332                     u4120:
  3863  0332                     l2546:
  3864  0332  307F               	movlw	127
  3865  0333  1283               	bcf	3,5	;RP0=0, select bank0
  3866  0334  1303               	bcf	3,6	;RP1=0, select bank0
  3867  0335  00C9               	movwf	___flmul@prod+3
  3868  0336  3080               	movlw	128
  3869  0337  00C8               	movwf	___flmul@prod+2
  3870  0338  3000               	movlw	0
  3871  0339  00C7               	movwf	___flmul@prod+1
  3872  033A  3000               	movlw	0
  3873  033B  00C6               	movwf	___flmul@prod
  3874  033C  2B72               	goto	l585
  3875  033D                     l2548:
  3876  033D  1283               	bcf	3,5	;RP0=0, select bank0
  3877  033E  1303               	bcf	3,6	;RP1=0, select bank0
  3878  033F  084B               	movf	___flmul@temp+1,w
  3879  0340  3A80               	xorlw	128
  3880  0341  00FF               	movwf	btemp+1
  3881  0342  3080               	movlw	128
  3882  0343  027F               	subwf	btemp+1,w
  3883  0344  1D03               	skipz
  3884  0345  2B48               	goto	u4135
  3885  0346  3001               	movlw	1
  3886  0347  024A               	subwf	___flmul@temp,w
  3887  0348                     u4135:
  3888  0348  1803               	skipnc
  3889  0349  2B4B               	goto	u4131
  3890  034A  2B4C               	goto	u4130
  3891  034B                     u4131:
  3892  034B  2B58               	goto	l2554
  3893  034C                     u4130:
  3894  034C                     l2550:
  3895  034C  3000               	movlw	0
  3896  034D  1283               	bcf	3,5	;RP0=0, select bank0
  3897  034E  1303               	bcf	3,6	;RP1=0, select bank0
  3898  034F  00C9               	movwf	___flmul@prod+3
  3899  0350  3000               	movlw	0
  3900  0351  00C8               	movwf	___flmul@prod+2
  3901  0352  3000               	movlw	0
  3902  0353  00C7               	movwf	___flmul@prod+1
  3903  0354  3000               	movlw	0
  3904  0355  00C6               	movwf	___flmul@prod
  3905  0356                     l2552:
  3906  0356  01BF               	clrf	___flmul@sign
  3907  0357  2B72               	goto	l585
  3908  0358                     l2554:
  3909  0358  1283               	bcf	3,5	;RP0=0, select bank0
  3910  0359  1303               	bcf	3,6	;RP1=0, select bank0
  3911  035A  084A               	movf	___flmul@temp,w
  3912  035B  00BA               	movwf	??___flmul
  3913  035C  083A               	movf	??___flmul,w
  3914  035D  00C5               	movwf	___flmul@bexp
  3915  035E  30FF               	movlw	255
  3916  035F  05C6               	andwf	___flmul@prod,f
  3917  0360  30FF               	movlw	255
  3918  0361  05C7               	andwf	___flmul@prod+1,f
  3919  0362  307F               	movlw	127
  3920  0363  05C8               	andwf	___flmul@prod+2,f
  3921  0364  3000               	movlw	0
  3922  0365  05C9               	andwf	___flmul@prod+3,f
  3923  0366                     l2556:
  3924  0366  1C45               	btfss	___flmul@bexp,0
  3925  0367  2B69               	goto	u4141
  3926  0368  2B6A               	goto	u4140
  3927  0369                     u4141:
  3928  0369  2B6B               	goto	l2560
  3929  036A                     u4140:
  3930  036A                     l2558:
  3931  036A  17C8               	bsf	___flmul@prod+2,7
  3932  036B                     l2560:
  3933  036B  0845               	movf	___flmul@bexp,w
  3934  036C  00BA               	movwf	??___flmul
  3935  036D  1003               	clrc
  3936  036E  0C3A               	rrf	??___flmul,w
  3937  036F  00BB               	movwf	??___flmul+1
  3938  0370  083B               	movf	??___flmul+1,w
  3939  0371  00C9               	movwf	___flmul@prod+3
  3940  0372                     l585:
  3941  0372  083F               	movf	___flmul@sign,w
  3942  0373  00BA               	movwf	??___flmul
  3943  0374  083A               	movf	??___flmul,w
  3944  0375  04C9               	iorwf	___flmul@prod+3,f
  3945  0376                     l2562:
  3946  0376  0849               	movf	___flmul@prod+3,w
  3947  0377  00B5               	movwf	?___flmul+3
  3948  0378  0848               	movf	___flmul@prod+2,w
  3949  0379  00B4               	movwf	?___flmul+2
  3950  037A  0847               	movf	___flmul@prod+1,w
  3951  037B  00B3               	movwf	?___flmul+1
  3952  037C  0846               	movf	___flmul@prod,w
  3953  037D  00B2               	movwf	?___flmul
  3954  037E                     l573:
  3955  037E  0008               	return
  3956  037F                     __end_of___flmul:
  3957                           
  3958                           	psect	text8
  3959  0B41                     __ptext8:	
  3960 ;; *************** function __Umul8_16 *****************
  3961 ;; Defined at:
  3962 ;;		line 4 in file "C:\Program Files\Microchip\xc8\v2.35\pic\sources\c90\common\Umul8_16.c"
  3963 ;; Parameters:    Size  Location     Type
  3964 ;;  multiplier      1    wreg     unsigned char 
  3965 ;;  multiplicand    1    5[COMMON] unsigned char 
  3966 ;; Auto vars:     Size  Location     Type
  3967 ;;  multiplier      1    6[BANK0 ] unsigned char 
  3968 ;;  word_mpld       2    4[BANK0 ] unsigned int 
  3969 ;;  product         2    2[BANK0 ] unsigned int 
  3970 ;; Return value:  Size  Location     Type
  3971 ;;                  2    5[COMMON] unsigned int 
  3972 ;; Registers used:
  3973 ;;		wreg, status,2, status,0
  3974 ;; Tracked objects:
  3975 ;;		On entry : 0/0
  3976 ;;		On exit  : 0/0
  3977 ;;		Unchanged: 0/0
  3978 ;; Data sizes:     COMMON   BANK0   BANK1   BANK3   BANK2
  3979 ;;      Params:         2       0       0       0       0
  3980 ;;      Locals:         0       5       0       0       0
  3981 ;;      Temps:          0       2       0       0       0
  3982 ;;      Totals:         2       7       0       0       0
  3983 ;;Total ram usage:        9 bytes
  3984 ;; Hardware stack levels used: 1
  3985 ;; Hardware stack levels required when called: 2
  3986 ;; This function calls:
  3987 ;;		Nothing
  3988 ;; This function is called by:
  3989 ;;		___flmul
  3990 ;; This function uses a non-reentrant model
  3991 ;;
  3992                           
  3993  0B41                     __Umul8_16:	
  3994                           ;psect for function __Umul8_16
  3995                           
  3996                           
  3997                           ;incstack = 0
  3998                           ; Regs used in __Umul8_16: [wreg+status,2+status,0]
  3999                           ;__Umul8_16@multiplier stored from wreg
  4000  0B41  1283               	bcf	3,5	;RP0=0, select bank0
  4001  0B42  1303               	bcf	3,6	;RP1=0, select bank0
  4002  0B43  00A6               	movwf	__Umul8_16@multiplier
  4003  0B44                     l2356:
  4004  0B44  01A2               	clrf	__Umul8_16@product
  4005  0B45  01A3               	clrf	__Umul8_16@product+1
  4006  0B46                     l2358:
  4007  0B46  0875               	movf	__Umul8_16@multiplicand,w
  4008  0B47  00A0               	movwf	??__Umul8_16
  4009  0B48  01A1               	clrf	??__Umul8_16+1
  4010  0B49  0820               	movf	??__Umul8_16,w
  4011  0B4A  00A4               	movwf	__Umul8_16@word_mpld
  4012  0B4B  0821               	movf	??__Umul8_16+1,w
  4013  0B4C  00A5               	movwf	__Umul8_16@word_mpld+1
  4014  0B4D                     l2360:
  4015  0B4D  1C26               	btfss	__Umul8_16@multiplier,0
  4016  0B4E  2B50               	goto	u3611
  4017  0B4F  2B51               	goto	u3610
  4018  0B50                     u3611:
  4019  0B50  2B57               	goto	l592
  4020  0B51                     u3610:
  4021  0B51                     l2362:
  4022  0B51  0824               	movf	__Umul8_16@word_mpld,w
  4023  0B52  07A2               	addwf	__Umul8_16@product,f
  4024  0B53  1803               	skipnc
  4025  0B54  0AA3               	incf	__Umul8_16@product+1,f
  4026  0B55  0825               	movf	__Umul8_16@word_mpld+1,w
  4027  0B56  07A3               	addwf	__Umul8_16@product+1,f
  4028  0B57                     l592:
  4029  0B57  3001               	movlw	1
  4030  0B58                     u3625:
  4031  0B58  1003               	clrc
  4032  0B59  0DA4               	rlf	__Umul8_16@word_mpld,f
  4033  0B5A  0DA5               	rlf	__Umul8_16@word_mpld+1,f
  4034  0B5B  3EFF               	addlw	-1
  4035  0B5C  1D03               	skipz
  4036  0B5D  2B58               	goto	u3625
  4037  0B5E  1003               	clrc
  4038  0B5F  0CA6               	rrf	__Umul8_16@multiplier,f
  4039  0B60                     l2364:
  4040  0B60  0826               	movf	__Umul8_16@multiplier,w
  4041  0B61  1D03               	btfss	3,2
  4042  0B62  2B64               	goto	u3631
  4043  0B63  2B65               	goto	u3630
  4044  0B64                     u3631:
  4045  0B64  2B4D               	goto	l2360
  4046  0B65                     u3630:
  4047  0B65                     l2366:
  4048  0B65  0823               	movf	__Umul8_16@product+1,w
  4049  0B66  00F6               	movwf	?__Umul8_16+1
  4050  0B67  0822               	movf	__Umul8_16@product,w
  4051  0B68  00F5               	movwf	?__Umul8_16
  4052  0B69                     l594:
  4053  0B69  0008               	return
  4054  0B6A                     __end_of__Umul8_16:
  4055                           
  4056                           	psect	text9
  4057  0607                     __ptext9:	
  4058 ;; *************** function ___fldiv *****************
  4059 ;; Defined at:
  4060 ;;		line 8 in file "C:\Program Files\Microchip\xc8\v2.35\pic\sources\c90\common\sprcdiv.c"
  4061 ;; Parameters:    Size  Location     Type
  4062 ;;  a               4   52[BANK0 ] unsigned int 
  4063 ;;  b               4   56[BANK0 ] unsigned int 
  4064 ;; Auto vars:     Size  Location     Type
  4065 ;;  grs             4   72[BANK0 ] unsigned long 
  4066 ;;  rem             4   65[BANK0 ] unsigned long 
  4067 ;;  new_exp         2   70[BANK0 ] int 
  4068 ;;  aexp            1   77[BANK0 ] unsigned char 
  4069 ;;  bexp            1   76[BANK0 ] unsigned char 
  4070 ;;  sign            1   69[BANK0 ] unsigned char 
  4071 ;; Return value:  Size  Location     Type
  4072 ;;                  4   52[BANK0 ] unsigned char 
  4073 ;; Registers used:
  4074 ;;		wreg, status,2, status,0, btemp+1
  4075 ;; Tracked objects:
  4076 ;;		On entry : 0/0
  4077 ;;		On exit  : 0/0
  4078 ;;		Unchanged: 0/0
  4079 ;; Data sizes:     COMMON   BANK0   BANK1   BANK3   BANK2
  4080 ;;      Params:         0       8       0       0       0
  4081 ;;      Locals:         0      13       0       0       0
  4082 ;;      Temps:          0       5       0       0       0
  4083 ;;      Totals:         0      26       0       0       0
  4084 ;;Total ram usage:       26 bytes
  4085 ;; Hardware stack levels used: 1
  4086 ;; Hardware stack levels required when called: 2
  4087 ;; This function calls:
  4088 ;;		Nothing
  4089 ;; This function is called by:
  4090 ;;		_main
  4091 ;; This function uses a non-reentrant model
  4092 ;;
  4093                           
  4094  0607                     ___fldiv:	
  4095                           ;psect for function ___fldiv
  4096                           
  4097  0607                     l1754:	
  4098                           ;incstack = 0
  4099                           ; Regs used in ___fldiv: [wreg+status,2+status,0+btemp+1]
  4100                           
  4101  0607  1283               	bcf	3,5	;RP0=0, select bank0
  4102  0608  1303               	bcf	3,6	;RP1=0, select bank0
  4103  0609  085B               	movf	___fldiv@b+3,w
  4104  060A  3980               	andlw	128
  4105  060B  00DC               	movwf	??___fldiv
  4106  060C  085C               	movf	??___fldiv,w
  4107  060D  00E5               	movwf	___fldiv@sign
  4108  060E                     l1756:
  4109  060E  085B               	movf	___fldiv@b+3,w
  4110  060F  00DC               	movwf	??___fldiv
  4111  0610  075C               	addwf	??___fldiv,w
  4112  0611  00DD               	movwf	??___fldiv+1
  4113  0612  085D               	movf	??___fldiv+1,w
  4114  0613  00EC               	movwf	___fldiv@bexp
  4115  0614                     l1758:
  4116  0614  1FDA               	btfss	___fldiv@b+2,7
  4117  0615  2E17               	goto	u2211
  4118  0616  2E18               	goto	u2210
  4119  0617                     u2211:
  4120  0617  2E19               	goto	l1762
  4121  0618                     u2210:
  4122  0618                     l1760:
  4123  0618  146C               	bsf	___fldiv@bexp,0
  4124  0619                     l1762:
  4125  0619  086C               	movf	___fldiv@bexp,w
  4126  061A  1903               	btfsc	3,2
  4127  061B  2E1D               	goto	u2221
  4128  061C  2E1E               	goto	u2220
  4129  061D                     u2221:
  4130  061D  2E2E               	goto	l1772
  4131  061E                     u2220:
  4132  061E                     l1764:
  4133  061E  0A6C               	incf	___fldiv@bexp,w
  4134  061F  1D03               	btfss	3,2
  4135  0620  2E22               	goto	u2231
  4136  0621  2E23               	goto	u2230
  4137  0622                     u2231:
  4138  0622  2E2B               	goto	l1768
  4139  0623                     u2230:
  4140  0623                     l1766:
  4141  0623  3000               	movlw	0
  4142  0624  00DB               	movwf	___fldiv@b+3
  4143  0625  3000               	movlw	0
  4144  0626  00DA               	movwf	___fldiv@b+2
  4145  0627  3000               	movlw	0
  4146  0628  00D9               	movwf	___fldiv@b+1
  4147  0629  3000               	movlw	0
  4148  062A  00D8               	movwf	___fldiv@b
  4149  062B                     l1768:
  4150  062B  17DA               	bsf	___fldiv@b+2,7
  4151  062C                     l1770:
  4152  062C  01DB               	clrf	___fldiv@b+3
  4153  062D  2E36               	goto	l1774
  4154  062E                     l1772:
  4155  062E  3000               	movlw	0
  4156  062F  00DB               	movwf	___fldiv@b+3
  4157  0630  3000               	movlw	0
  4158  0631  00DA               	movwf	___fldiv@b+2
  4159  0632  3000               	movlw	0
  4160  0633  00D9               	movwf	___fldiv@b+1
  4161  0634  3000               	movlw	0
  4162  0635  00D8               	movwf	___fldiv@b
  4163  0636                     l1774:
  4164  0636  0857               	movf	___fldiv@a+3,w
  4165  0637  3980               	andlw	128
  4166  0638  00DC               	movwf	??___fldiv
  4167  0639  085C               	movf	??___fldiv,w
  4168  063A  06E5               	xorwf	___fldiv@sign,f
  4169  063B                     l1776:
  4170  063B  0857               	movf	___fldiv@a+3,w
  4171  063C  00DC               	movwf	??___fldiv
  4172  063D  075C               	addwf	??___fldiv,w
  4173  063E  00DD               	movwf	??___fldiv+1
  4174  063F  085D               	movf	??___fldiv+1,w
  4175  0640  00ED               	movwf	___fldiv@aexp
  4176  0641                     l1778:
  4177  0641  1FD6               	btfss	___fldiv@a+2,7
  4178  0642  2E44               	goto	u2241
  4179  0643  2E45               	goto	u2240
  4180  0644                     u2241:
  4181  0644  2E46               	goto	l1782
  4182  0645                     u2240:
  4183  0645                     l1780:
  4184  0645  146D               	bsf	___fldiv@aexp,0
  4185  0646                     l1782:
  4186  0646  086D               	movf	___fldiv@aexp,w
  4187  0647  1903               	btfsc	3,2
  4188  0648  2E4A               	goto	u2251
  4189  0649  2E4B               	goto	u2250
  4190  064A                     u2251:
  4191  064A  2E5B               	goto	l1792
  4192  064B                     u2250:
  4193  064B                     l1784:
  4194  064B  0A6D               	incf	___fldiv@aexp,w
  4195  064C  1D03               	btfss	3,2
  4196  064D  2E4F               	goto	u2261
  4197  064E  2E50               	goto	u2260
  4198  064F                     u2261:
  4199  064F  2E58               	goto	l1788
  4200  0650                     u2260:
  4201  0650                     l1786:
  4202  0650  3000               	movlw	0
  4203  0651  00D7               	movwf	___fldiv@a+3
  4204  0652  3000               	movlw	0
  4205  0653  00D6               	movwf	___fldiv@a+2
  4206  0654  3000               	movlw	0
  4207  0655  00D5               	movwf	___fldiv@a+1
  4208  0656  3000               	movlw	0
  4209  0657  00D4               	movwf	___fldiv@a
  4210  0658                     l1788:
  4211  0658  17D6               	bsf	___fldiv@a+2,7
  4212  0659                     l1790:
  4213  0659  01D7               	clrf	___fldiv@a+3
  4214  065A  2E63               	goto	l533
  4215  065B                     l1792:
  4216  065B  3000               	movlw	0
  4217  065C  00D7               	movwf	___fldiv@a+3
  4218  065D  3000               	movlw	0
  4219  065E  00D6               	movwf	___fldiv@a+2
  4220  065F  3000               	movlw	0
  4221  0660  00D5               	movwf	___fldiv@a+1
  4222  0661  3000               	movlw	0
  4223  0662  00D4               	movwf	___fldiv@a
  4224  0663                     l533:
  4225  0663  0857               	movf	___fldiv@a+3,w
  4226  0664  0456               	iorwf	___fldiv@a+2,w
  4227  0665  0455               	iorwf	___fldiv@a+1,w
  4228  0666  0454               	iorwf	___fldiv@a,w
  4229  0667  1D03               	skipz
  4230  0668  2E6A               	goto	u2271
  4231  0669  2E6B               	goto	u2270
  4232  066A                     u2271:
  4233  066A  2E84               	goto	l1802
  4234  066B                     u2270:
  4235  066B                     l1794:
  4236  066B  3000               	movlw	0
  4237  066C  00DB               	movwf	___fldiv@b+3
  4238  066D  3000               	movlw	0
  4239  066E  00DA               	movwf	___fldiv@b+2
  4240  066F  3000               	movlw	0
  4241  0670  00D9               	movwf	___fldiv@b+1
  4242  0671  3000               	movlw	0
  4243  0672  00D8               	movwf	___fldiv@b
  4244  0673  3080               	movlw	128
  4245  0674  04DA               	iorwf	___fldiv@b+2,f
  4246  0675  307F               	movlw	127
  4247  0676  04DB               	iorwf	___fldiv@b+3,f
  4248  0677                     l1796:
  4249  0677  0865               	movf	___fldiv@sign,w
  4250  0678  00DC               	movwf	??___fldiv
  4251  0679  085C               	movf	??___fldiv,w
  4252  067A  04DB               	iorwf	___fldiv@b+3,f
  4253  067B                     l1798:
  4254  067B  085B               	movf	___fldiv@b+3,w
  4255  067C  00D7               	movwf	?___fldiv+3
  4256  067D  085A               	movf	___fldiv@b+2,w
  4257  067E  00D6               	movwf	?___fldiv+2
  4258  067F  0859               	movf	___fldiv@b+1,w
  4259  0680  00D5               	movwf	?___fldiv+1
  4260  0681  0858               	movf	___fldiv@b,w
  4261  0682  00D4               	movwf	?___fldiv
  4262  0683  2FE3               	goto	l535
  4263  0684                     l1802:
  4264  0684  086C               	movf	___fldiv@bexp,w
  4265  0685  1D03               	btfss	3,2
  4266  0686  2E88               	goto	u2281
  4267  0687  2E89               	goto	u2280
  4268  0688                     u2281:
  4269  0688  2E92               	goto	l1808
  4270  0689                     u2280:
  4271  0689                     l1804:
  4272  0689  3000               	movlw	0
  4273  068A  00D7               	movwf	?___fldiv+3
  4274  068B  3000               	movlw	0
  4275  068C  00D6               	movwf	?___fldiv+2
  4276  068D  3000               	movlw	0
  4277  068E  00D5               	movwf	?___fldiv+1
  4278  068F  3000               	movlw	0
  4279  0690  00D4               	movwf	?___fldiv
  4280  0691  2FE3               	goto	l535
  4281  0692                     l1808:
  4282  0692  086C               	movf	___fldiv@bexp,w
  4283  0693  00DC               	movwf	??___fldiv
  4284  0694  01DD               	clrf	??___fldiv+1
  4285  0695  085D               	movf	??___fldiv+1,w
  4286  0696  00DF               	movwf	??___fldiv+3
  4287  0697  086D               	movf	___fldiv@aexp,w
  4288  0698  025C               	subwf	??___fldiv,w
  4289  0699  00DE               	movwf	??___fldiv+2
  4290  069A  1C03               	skipc
  4291  069B  03DF               	decf	??___fldiv+3,f
  4292  069C  085E               	movf	??___fldiv+2,w
  4293  069D  3E7F               	addlw	127
  4294  069E  00E6               	movwf	___fldiv@new_exp
  4295  069F  085F               	movf	??___fldiv+3,w
  4296  06A0  1803               	skipnc
  4297  06A1  3E01               	addlw	1
  4298  06A2  3E00               	addlw	0
  4299  06A3  00E7               	movwf	___fldiv@new_exp+1
  4300  06A4                     l1810:
  4301  06A4  085B               	movf	___fldiv@b+3,w
  4302  06A5  00E4               	movwf	___fldiv@rem+3
  4303  06A6  085A               	movf	___fldiv@b+2,w
  4304  06A7  00E3               	movwf	___fldiv@rem+2
  4305  06A8  0859               	movf	___fldiv@b+1,w
  4306  06A9  00E2               	movwf	___fldiv@rem+1
  4307  06AA  0858               	movf	___fldiv@b,w
  4308  06AB  00E1               	movwf	___fldiv@rem
  4309  06AC                     l1812:
  4310  06AC  3000               	movlw	0
  4311  06AD  00DB               	movwf	___fldiv@b+3
  4312  06AE  3000               	movlw	0
  4313  06AF  00DA               	movwf	___fldiv@b+2
  4314  06B0  3000               	movlw	0
  4315  06B1  00D9               	movwf	___fldiv@b+1
  4316  06B2  3000               	movlw	0
  4317  06B3  00D8               	movwf	___fldiv@b
  4318  06B4                     l1814:
  4319  06B4  3000               	movlw	0
  4320  06B5  00EB               	movwf	___fldiv@grs+3
  4321  06B6  3000               	movlw	0
  4322  06B7  00EA               	movwf	___fldiv@grs+2
  4323  06B8  3000               	movlw	0
  4324  06B9  00E9               	movwf	___fldiv@grs+1
  4325  06BA  3000               	movlw	0
  4326  06BB  00E8               	movwf	___fldiv@grs
  4327  06BC                     l1816:
  4328  06BC  01ED               	clrf	___fldiv@aexp
  4329  06BD  2F08               	goto	l1836
  4330  06BE                     l1818:
  4331  06BE  086D               	movf	___fldiv@aexp,w
  4332  06BF  1903               	btfsc	3,2
  4333  06C0  2EC2               	goto	u2291
  4334  06C1  2EC3               	goto	u2290
  4335  06C2                     u2291:
  4336  06C2  2EE3               	goto	l1828
  4337  06C3                     u2290:
  4338  06C3                     l1820:
  4339  06C3  3001               	movlw	1
  4340  06C4  00DC               	movwf	??___fldiv
  4341  06C5                     u2305:
  4342  06C5  1003               	clrc
  4343  06C6  0DE1               	rlf	___fldiv@rem,f
  4344  06C7  0DE2               	rlf	___fldiv@rem+1,f
  4345  06C8  0DE3               	rlf	___fldiv@rem+2,f
  4346  06C9  0DE4               	rlf	___fldiv@rem+3,f
  4347  06CA  0BDC               	decfsz	??___fldiv,f
  4348  06CB  2EC5               	goto	u2305
  4349  06CC  3001               	movlw	1
  4350  06CD  00DC               	movwf	??___fldiv
  4351  06CE                     u2315:
  4352  06CE  1003               	clrc
  4353  06CF  0DD8               	rlf	___fldiv@b,f
  4354  06D0  0DD9               	rlf	___fldiv@b+1,f
  4355  06D1  0DDA               	rlf	___fldiv@b+2,f
  4356  06D2  0DDB               	rlf	___fldiv@b+3,f
  4357  06D3  0BDC               	decfsz	??___fldiv,f
  4358  06D4  2ECE               	goto	u2315
  4359  06D5                     l1822:
  4360  06D5  1FEB               	btfss	___fldiv@grs+3,7
  4361  06D6  2ED8               	goto	u2321
  4362  06D7  2ED9               	goto	u2320
  4363  06D8                     u2321:
  4364  06D8  2EDA               	goto	l1826
  4365  06D9                     u2320:
  4366  06D9                     l1824:
  4367  06D9  1458               	bsf	___fldiv@b,0
  4368  06DA                     l1826:
  4369  06DA  3001               	movlw	1
  4370  06DB  00DC               	movwf	??___fldiv
  4371  06DC                     u2335:
  4372  06DC  1003               	clrc
  4373  06DD  0DE8               	rlf	___fldiv@grs,f
  4374  06DE  0DE9               	rlf	___fldiv@grs+1,f
  4375  06DF  0DEA               	rlf	___fldiv@grs+2,f
  4376  06E0  0DEB               	rlf	___fldiv@grs+3,f
  4377  06E1  0BDC               	decfsz	??___fldiv,f
  4378  06E2  2EDC               	goto	u2335
  4379  06E3                     l1828:
  4380  06E3  0857               	movf	___fldiv@a+3,w
  4381  06E4  0264               	subwf	___fldiv@rem+3,w
  4382  06E5  1D03               	skipz
  4383  06E6  2EF1               	goto	u2345
  4384  06E7  0856               	movf	___fldiv@a+2,w
  4385  06E8  0263               	subwf	___fldiv@rem+2,w
  4386  06E9  1D03               	skipz
  4387  06EA  2EF1               	goto	u2345
  4388  06EB  0855               	movf	___fldiv@a+1,w
  4389  06EC  0262               	subwf	___fldiv@rem+1,w
  4390  06ED  1D03               	skipz
  4391  06EE  2EF1               	goto	u2345
  4392  06EF  0854               	movf	___fldiv@a,w
  4393  06F0  0261               	subwf	___fldiv@rem,w
  4394  06F1                     u2345:
  4395  06F1  1C03               	skipc
  4396  06F2  2EF4               	goto	u2341
  4397  06F3  2EF5               	goto	u2340
  4398  06F4                     u2341:
  4399  06F4  2F04               	goto	l1834
  4400  06F5                     u2340:
  4401  06F5                     l1830:
  4402  06F5  176B               	bsf	___fldiv@grs+3,6
  4403  06F6                     l1832:
  4404  06F6  0854               	movf	___fldiv@a,w
  4405  06F7  02E1               	subwf	___fldiv@rem,f
  4406  06F8  0855               	movf	___fldiv@a+1,w
  4407  06F9  1C03               	skipc
  4408  06FA  0F55               	incfsz	___fldiv@a+1,w
  4409  06FB  02E2               	subwf	___fldiv@rem+1,f
  4410  06FC  0856               	movf	___fldiv@a+2,w
  4411  06FD  1C03               	skipc
  4412  06FE  0F56               	incfsz	___fldiv@a+2,w
  4413  06FF  02E3               	subwf	___fldiv@rem+2,f
  4414  0700  0857               	movf	___fldiv@a+3,w
  4415  0701  1C03               	skipc
  4416  0702  0F57               	incfsz	___fldiv@a+3,w
  4417  0703  02E4               	subwf	___fldiv@rem+3,f
  4418  0704                     l1834:
  4419  0704  3001               	movlw	1
  4420  0705  00DC               	movwf	??___fldiv
  4421  0706  085C               	movf	??___fldiv,w
  4422  0707  07ED               	addwf	___fldiv@aexp,f
  4423  0708                     l1836:
  4424  0708  301A               	movlw	26
  4425  0709  026D               	subwf	___fldiv@aexp,w
  4426  070A  1C03               	skipc
  4427  070B  2F0D               	goto	u2351
  4428  070C  2F0E               	goto	u2350
  4429  070D                     u2351:
  4430  070D  2EBE               	goto	l1818
  4431  070E                     u2350:
  4432  070E                     l1838:
  4433  070E  0864               	movf	___fldiv@rem+3,w
  4434  070F  0463               	iorwf	___fldiv@rem+2,w
  4435  0710  0462               	iorwf	___fldiv@rem+1,w
  4436  0711  0461               	iorwf	___fldiv@rem,w
  4437  0712  1903               	skipnz
  4438  0713  2F15               	goto	u2361
  4439  0714  2F16               	goto	u2360
  4440  0715                     u2361:
  4441  0715  2F35               	goto	l1852
  4442  0716                     u2360:
  4443  0716                     l1840:
  4444  0716  1468               	bsf	___fldiv@grs,0
  4445  0717  2F35               	goto	l1852
  4446  0718                     l1842:
  4447  0718  3001               	movlw	1
  4448  0719  00DC               	movwf	??___fldiv
  4449  071A                     u2375:
  4450  071A  1003               	clrc
  4451  071B  0DD8               	rlf	___fldiv@b,f
  4452  071C  0DD9               	rlf	___fldiv@b+1,f
  4453  071D  0DDA               	rlf	___fldiv@b+2,f
  4454  071E  0DDB               	rlf	___fldiv@b+3,f
  4455  071F  0BDC               	decfsz	??___fldiv,f
  4456  0720  2F1A               	goto	u2375
  4457  0721                     l1844:
  4458  0721  1FEB               	btfss	___fldiv@grs+3,7
  4459  0722  2F24               	goto	u2381
  4460  0723  2F25               	goto	u2380
  4461  0724                     u2381:
  4462  0724  2F26               	goto	l1848
  4463  0725                     u2380:
  4464  0725                     l1846:
  4465  0725  1458               	bsf	___fldiv@b,0
  4466  0726                     l1848:
  4467  0726  3001               	movlw	1
  4468  0727  00DC               	movwf	??___fldiv
  4469  0728                     u2395:
  4470  0728  1003               	clrc
  4471  0729  0DE8               	rlf	___fldiv@grs,f
  4472  072A  0DE9               	rlf	___fldiv@grs+1,f
  4473  072B  0DEA               	rlf	___fldiv@grs+2,f
  4474  072C  0DEB               	rlf	___fldiv@grs+3,f
  4475  072D  0BDC               	decfsz	??___fldiv,f
  4476  072E  2F28               	goto	u2395
  4477  072F                     l1850:
  4478  072F  30FF               	movlw	255
  4479  0730  07E6               	addwf	___fldiv@new_exp,f
  4480  0731  1803               	skipnc
  4481  0732  0AE7               	incf	___fldiv@new_exp+1,f
  4482  0733  30FF               	movlw	255
  4483  0734  07E7               	addwf	___fldiv@new_exp+1,f
  4484  0735                     l1852:
  4485  0735  1FDA               	btfss	___fldiv@b+2,7
  4486  0736  2F38               	goto	u2401
  4487  0737  2F39               	goto	u2400
  4488  0738                     u2401:
  4489  0738  2F18               	goto	l1842
  4490  0739                     u2400:
  4491  0739                     l1854:
  4492  0739  01ED               	clrf	___fldiv@aexp
  4493  073A                     l1856:
  4494  073A  1FEB               	btfss	___fldiv@grs+3,7
  4495  073B  2F3D               	goto	u2411
  4496  073C  2F3E               	goto	u2410
  4497  073D                     u2411:
  4498  073D  2F5A               	goto	l1864
  4499  073E                     u2410:
  4500  073E                     l1858:
  4501  073E  30FF               	movlw	255
  4502  073F  0568               	andwf	___fldiv@grs,w
  4503  0740  00DC               	movwf	??___fldiv
  4504  0741  30FF               	movlw	255
  4505  0742  0569               	andwf	___fldiv@grs+1,w
  4506  0743  00DD               	movwf	??___fldiv+1
  4507  0744  30FF               	movlw	255
  4508  0745  056A               	andwf	___fldiv@grs+2,w
  4509  0746  00DE               	movwf	??___fldiv+2
  4510  0747  307F               	movlw	127
  4511  0748  056B               	andwf	___fldiv@grs+3,w
  4512  0749  00DF               	movwf	??___fldiv+3
  4513  074A  085F               	movf	??___fldiv+3,w
  4514  074B  045E               	iorwf	??___fldiv+2,w
  4515  074C  045D               	iorwf	??___fldiv+1,w
  4516  074D  045C               	iorwf	??___fldiv,w
  4517  074E  1903               	skipnz
  4518  074F  2F51               	goto	u2421
  4519  0750  2F52               	goto	u2420
  4520  0751                     u2421:
  4521  0751  2F55               	goto	l549
  4522  0752                     u2420:
  4523  0752                     l1860:
  4524  0752  01ED               	clrf	___fldiv@aexp
  4525  0753  0AED               	incf	___fldiv@aexp,f
  4526  0754  2F5A               	goto	l1864
  4527  0755                     l549:
  4528  0755  1C58               	btfss	___fldiv@b,0
  4529  0756  2F58               	goto	u2431
  4530  0757  2F59               	goto	u2430
  4531  0758                     u2431:
  4532  0758  2F5A               	goto	l1864
  4533  0759                     u2430:
  4534  0759  2F52               	goto	l1860
  4535  075A                     l1864:
  4536  075A  086D               	movf	___fldiv@aexp,w
  4537  075B  1903               	btfsc	3,2
  4538  075C  2F5E               	goto	u2441
  4539  075D  2F5F               	goto	u2440
  4540  075E                     u2441:
  4541  075E  2F90               	goto	l1874
  4542  075F                     u2440:
  4543  075F                     l1866:
  4544  075F  3001               	movlw	1
  4545  0760  07D8               	addwf	___fldiv@b,f
  4546  0761  3000               	movlw	0
  4547  0762  1803               	skipnc
  4548  0763  3001               	movlw	1
  4549  0764  07D9               	addwf	___fldiv@b+1,f
  4550  0765  3000               	movlw	0
  4551  0766  1803               	skipnc
  4552  0767  3001               	movlw	1
  4553  0768  07DA               	addwf	___fldiv@b+2,f
  4554  0769  3000               	movlw	0
  4555  076A  1803               	skipnc
  4556  076B  3001               	movlw	1
  4557  076C  07DB               	addwf	___fldiv@b+3,f
  4558  076D                     l1868:
  4559  076D  1C5B               	btfss	___fldiv@b+3,0
  4560  076E  2F70               	goto	u2451
  4561  076F  2F71               	goto	u2450
  4562  0770                     u2451:
  4563  0770  2F90               	goto	l1874
  4564  0771                     u2450:
  4565  0771                     l1870:
  4566  0771  0858               	movf	___fldiv@b,w
  4567  0772  00DC               	movwf	??___fldiv
  4568  0773  0859               	movf	___fldiv@b+1,w
  4569  0774  00DD               	movwf	??___fldiv+1
  4570  0775  085A               	movf	___fldiv@b+2,w
  4571  0776  00DE               	movwf	??___fldiv+2
  4572  0777  085B               	movf	___fldiv@b+3,w
  4573  0778  00DF               	movwf	??___fldiv+3
  4574  0779  3001               	movlw	1
  4575  077A  00E0               	movwf	??___fldiv+4
  4576  077B                     u2465:
  4577  077B  0D5F               	rlf	??___fldiv+3,w
  4578  077C  0CDF               	rrf	??___fldiv+3,f
  4579  077D  0CDE               	rrf	??___fldiv+2,f
  4580  077E  0CDD               	rrf	??___fldiv+1,f
  4581  077F  0CDC               	rrf	??___fldiv,f
  4582  0780                     u2460:
  4583  0780  0BE0               	decfsz	??___fldiv+4,f
  4584  0781  2F7B               	goto	u2465
  4585  0782  085F               	movf	??___fldiv+3,w
  4586  0783  00DB               	movwf	___fldiv@b+3
  4587  0784  085E               	movf	??___fldiv+2,w
  4588  0785  00DA               	movwf	___fldiv@b+2
  4589  0786  085D               	movf	??___fldiv+1,w
  4590  0787  00D9               	movwf	___fldiv@b+1
  4591  0788  085C               	movf	??___fldiv,w
  4592  0789  00D8               	movwf	___fldiv@b
  4593  078A                     l1872:
  4594  078A  3001               	movlw	1
  4595  078B  07E6               	addwf	___fldiv@new_exp,f
  4596  078C  1803               	skipnc
  4597  078D  0AE7               	incf	___fldiv@new_exp+1,f
  4598  078E  3000               	movlw	0
  4599  078F  07E7               	addwf	___fldiv@new_exp+1,f
  4600  0790                     l1874:
  4601  0790  0867               	movf	___fldiv@new_exp+1,w
  4602  0791  3A80               	xorlw	128
  4603  0792  00FF               	movwf	btemp+1
  4604  0793  3080               	movlw	128
  4605  0794  027F               	subwf	btemp+1,w
  4606  0795  1D03               	skipz
  4607  0796  2F99               	goto	u2475
  4608  0797  30FF               	movlw	255
  4609  0798  0266               	subwf	___fldiv@new_exp,w
  4610  0799                     u2475:
  4611  0799  1C03               	skipc
  4612  079A  2F9C               	goto	u2471
  4613  079B  2F9D               	goto	u2470
  4614  079C                     u2471:
  4615  079C  2FAB               	goto	l1878
  4616  079D                     u2470:
  4617  079D                     l1876:
  4618  079D  30FF               	movlw	255
  4619  079E  1283               	bcf	3,5	;RP0=0, select bank0
  4620  079F  1303               	bcf	3,6	;RP1=0, select bank0
  4621  07A0  00E6               	movwf	___fldiv@new_exp
  4622  07A1  3000               	movlw	0
  4623  07A2  00E7               	movwf	___fldiv@new_exp+1
  4624  07A3  3000               	movlw	0
  4625  07A4  00DB               	movwf	___fldiv@b+3
  4626  07A5  3000               	movlw	0
  4627  07A6  00DA               	movwf	___fldiv@b+2
  4628  07A7  3000               	movlw	0
  4629  07A8  00D9               	movwf	___fldiv@b+1
  4630  07A9  3000               	movlw	0
  4631  07AA  00D8               	movwf	___fldiv@b
  4632  07AB                     l1878:
  4633  07AB  1283               	bcf	3,5	;RP0=0, select bank0
  4634  07AC  1303               	bcf	3,6	;RP1=0, select bank0
  4635  07AD  0867               	movf	___fldiv@new_exp+1,w
  4636  07AE  3A80               	xorlw	128
  4637  07AF  00FF               	movwf	btemp+1
  4638  07B0  3080               	movlw	128
  4639  07B1  027F               	subwf	btemp+1,w
  4640  07B2  1D03               	skipz
  4641  07B3  2FB6               	goto	u2485
  4642  07B4  3001               	movlw	1
  4643  07B5  0266               	subwf	___fldiv@new_exp,w
  4644  07B6                     u2485:
  4645  07B6  1803               	skipnc
  4646  07B7  2FB9               	goto	u2481
  4647  07B8  2FBA               	goto	u2480
  4648  07B9                     u2481:
  4649  07B9  2FC7               	goto	l555
  4650  07BA                     u2480:
  4651  07BA                     l1880:
  4652  07BA  1283               	bcf	3,5	;RP0=0, select bank0
  4653  07BB  1303               	bcf	3,6	;RP1=0, select bank0
  4654  07BC  01E6               	clrf	___fldiv@new_exp
  4655  07BD  01E7               	clrf	___fldiv@new_exp+1
  4656  07BE                     l1882:
  4657  07BE  3000               	movlw	0
  4658  07BF  00DB               	movwf	___fldiv@b+3
  4659  07C0  3000               	movlw	0
  4660  07C1  00DA               	movwf	___fldiv@b+2
  4661  07C2  3000               	movlw	0
  4662  07C3  00D9               	movwf	___fldiv@b+1
  4663  07C4  3000               	movlw	0
  4664  07C5  00D8               	movwf	___fldiv@b
  4665  07C6                     l1884:
  4666  07C6  01E5               	clrf	___fldiv@sign
  4667  07C7                     l555:
  4668  07C7  1283               	bcf	3,5	;RP0=0, select bank0
  4669  07C8  1303               	bcf	3,6	;RP1=0, select bank0
  4670  07C9  0866               	movf	___fldiv@new_exp,w
  4671  07CA  00DC               	movwf	??___fldiv
  4672  07CB  085C               	movf	??___fldiv,w
  4673  07CC  00EC               	movwf	___fldiv@bexp
  4674  07CD                     l1886:
  4675  07CD  1C6C               	btfss	___fldiv@bexp,0
  4676  07CE  2FD0               	goto	u2491
  4677  07CF  2FD1               	goto	u2490
  4678  07D0                     u2491:
  4679  07D0  2FD3               	goto	l1890
  4680  07D1                     u2490:
  4681  07D1                     l1888:
  4682  07D1  17DA               	bsf	___fldiv@b+2,7
  4683  07D2  2FD7               	goto	l557
  4684  07D3                     l1890:
  4685  07D3  307F               	movlw	127
  4686  07D4  00DC               	movwf	??___fldiv
  4687  07D5  085C               	movf	??___fldiv,w
  4688  07D6  05DA               	andwf	___fldiv@b+2,f
  4689  07D7                     l557:
  4690  07D7  086C               	movf	___fldiv@bexp,w
  4691  07D8  00DC               	movwf	??___fldiv
  4692  07D9  1003               	clrc
  4693  07DA  0C5C               	rrf	??___fldiv,w
  4694  07DB  00DD               	movwf	??___fldiv+1
  4695  07DC  085D               	movf	??___fldiv+1,w
  4696  07DD  00DB               	movwf	___fldiv@b+3
  4697  07DE  0865               	movf	___fldiv@sign,w
  4698  07DF  00DC               	movwf	??___fldiv
  4699  07E0  085C               	movf	??___fldiv,w
  4700  07E1  04DB               	iorwf	___fldiv@b+3,f
  4701  07E2  2E7B               	goto	l1798
  4702  07E3                     l535:
  4703  07E3  0008               	return
  4704  07E4                     __end_of___fldiv:
  4705                           
  4706                           	psect	text10
  4707  0C3D                     __ptext10:	
  4708 ;; *************** function _isr *****************
  4709 ;; Defined at:
  4710 ;;		line 35 in file "ADC.c"
  4711 ;; Parameters:    Size  Location     Type
  4712 ;;		None
  4713 ;; Auto vars:     Size  Location     Type
  4714 ;;		None
  4715 ;; Return value:  Size  Location     Type
  4716 ;;                  1    wreg      void 
  4717 ;; Registers used:
  4718 ;;		wreg, fsr0l, fsr0h, status,2, status,0, pclath
  4719 ;; Tracked objects:
  4720 ;;		On entry : 0/0
  4721 ;;		On exit  : 0/0
  4722 ;;		Unchanged: 0/0
  4723 ;; Data sizes:     COMMON   BANK0   BANK1   BANK3   BANK2
  4724 ;;      Params:         0       0       0       0       0
  4725 ;;      Locals:         0       0       0       0       0
  4726 ;;      Temps:          5       0       0       0       0
  4727 ;;      Totals:         5       0       0       0       0
  4728 ;;Total ram usage:        5 bytes
  4729 ;; Hardware stack levels used: 2
  4730 ;; This function calls:
  4731 ;;		Nothing
  4732 ;; This function is called by:
  4733 ;;		Interrupt level 1
  4734 ;; This function uses a non-reentrant model
  4735 ;;
  4736                           
  4737  0C3D                     _isr:	
  4738                           ;psect for function _isr
  4739                           
  4740  0C3D                     i1l2080:
  4741                           
  4742                           ;ADC.c: 36:     if(PIR1bits.ADIF){
  4743  0C3D  1283               	bcf	3,5	;RP0=0, select bank0
  4744  0C3E  1303               	bcf	3,6	;RP1=0, select bank0
  4745  0C3F  1F0C               	btfss	12,6	;volatile
  4746  0C40  2C42               	goto	u301_21
  4747  0C41  2C43               	goto	u301_20
  4748  0C42                     u301_21:
  4749  0C42  2C61               	goto	i1l67
  4750  0C43                     u301_20:
  4751  0C43                     i1l2082:
  4752                           
  4753                           ;ADC.c: 37:         if(ADCON0bits.CHS == 0)
  4754  0C43  0C1F               	rrf	31,w	;volatile
  4755  0C44  00F0               	movwf	??_isr
  4756  0C45  0C70               	rrf	??_isr,w
  4757  0C46  390F               	andlw	15
  4758  0C47  3A00               	xorlw	0
  4759  0C48  1D03               	skipz
  4760  0C49  2C4B               	goto	u302_21
  4761  0C4A  2C4C               	goto	u302_20
  4762  0C4B                     u302_21:
  4763  0C4B  2C4F               	goto	i1l2086
  4764  0C4C                     u302_20:
  4765  0C4C                     i1l2084:
  4766                           
  4767                           ;ADC.c: 38:             PORTB = ADRESH;
  4768  0C4C  081E               	movf	30,w	;volatile
  4769  0C4D  0086               	movwf	6	;volatile
  4770  0C4E  2C5E               	goto	i1l2090
  4771  0C4F                     i1l2086:
  4772  0C4F  0C1F               	rrf	31,w	;volatile
  4773  0C50  00F0               	movwf	??_isr
  4774  0C51  0C70               	rrf	??_isr,w
  4775  0C52  390F               	andlw	15
  4776  0C53  3A01               	xorlw	1
  4777  0C54  1D03               	skipz
  4778  0C55  2C57               	goto	u303_21
  4779  0C56  2C58               	goto	u303_20
  4780  0C57                     u303_21:
  4781  0C57  2C5E               	goto	i1l2090
  4782  0C58                     u303_20:
  4783  0C58                     i1l2088:
  4784                           
  4785                           ;ADC.c: 40:             pot2 = ADRESH;
  4786  0C58  081E               	movf	30,w	;volatile
  4787  0C59  00F0               	movwf	??_isr
  4788  0C5A  0870               	movf	??_isr,w
  4789  0C5B  1683               	bsf	3,5	;RP0=1, select bank1
  4790  0C5C  1303               	bcf	3,6	;RP1=0, select bank1
  4791  0C5D  00B4               	movwf	_pot2^(0+128)
  4792  0C5E                     i1l2090:
  4793                           
  4794                           ;ADC.c: 41:         PIR1bits.ADIF = 0;
  4795  0C5E  1283               	bcf	3,5	;RP0=0, select bank0
  4796  0C5F  130C               	bcf	12,6	;volatile
  4797                           
  4798                           ;ADC.c: 42:     }
  4799  0C60  2CD2               	goto	i1l83
  4800  0C61                     i1l67:	
  4801                           ;ADC.c: 44:     else if(INTCONbits.T0IF){
  4802                           
  4803  0C61  1D0B               	btfss	11,2	;volatile
  4804  0C62  2C64               	goto	u304_21
  4805  0C63  2C65               	goto	u304_20
  4806  0C64                     u304_21:
  4807  0C64  2CD2               	goto	i1l83
  4808  0C65                     u304_20:
  4809  0C65                     i1l2092:
  4810                           
  4811                           ;ADC.c: 45:         PORTD = 0x00;
  4812  0C65  0188               	clrf	8	;volatile
  4813  0C66                     i1l2094:
  4814                           
  4815                           ;ADC.c: 47:         if(centena > 15)
  4816  0C66  3010               	movlw	16
  4817  0C67  1683               	bsf	3,5	;RP0=1, select bank1
  4818  0C68  1303               	bcf	3,6	;RP1=0, select bank1
  4819  0C69  0235               	subwf	_centena^(0+128),w
  4820  0C6A  1C03               	skipc
  4821  0C6B  2C6D               	goto	u305_21
  4822  0C6C  2C6E               	goto	u305_20
  4823  0C6D                     u305_21:
  4824  0C6D  2C6F               	goto	i1l2098
  4825  0C6E                     u305_20:
  4826  0C6E                     i1l2096:
  4827                           
  4828                           ;ADC.c: 48:             centena=0;
  4829  0C6E  01B5               	clrf	_centena^(0+128)
  4830  0C6F                     i1l2098:
  4831                           
  4832                           ;ADC.c: 49:         if(decena > 15)
  4833  0C6F  3010               	movlw	16
  4834  0C70  0236               	subwf	_decena^(0+128),w
  4835  0C71  1C03               	skipc
  4836  0C72  2C74               	goto	u306_21
  4837  0C73  2C75               	goto	u306_20
  4838  0C74                     u306_21:
  4839  0C74  2C76               	goto	i1l2102
  4840  0C75                     u306_20:
  4841  0C75                     i1l2100:
  4842                           
  4843                           ;ADC.c: 50:             decena=0;
  4844  0C75  01B6               	clrf	_decena^(0+128)
  4845  0C76                     i1l2102:
  4846                           
  4847                           ;ADC.c: 51:         if(unidad > 15)
  4848  0C76  3010               	movlw	16
  4849  0C77  0237               	subwf	_unidad^(0+128),w
  4850  0C78  1C03               	skipc
  4851  0C79  2C7B               	goto	u307_21
  4852  0C7A  2C7C               	goto	u307_20
  4853  0C7B                     u307_21:
  4854  0C7B  2C7D               	goto	i1l2106
  4855  0C7C                     u307_20:
  4856  0C7C                     i1l2104:
  4857                           
  4858                           ;ADC.c: 52:             unidad=0;
  4859  0C7C  01B7               	clrf	_unidad^(0+128)
  4860  0C7D                     i1l2106:
  4861                           
  4862                           ;ADC.c: 54:         if(display==1){
  4863  0C7D  0377               	decf	_display,w
  4864  0C7E  1D03               	btfss	3,2
  4865  0C7F  2C81               	goto	u308_21
  4866  0C80  2C82               	goto	u308_20
  4867  0C81                     u308_21:
  4868  0C81  2C93               	goto	i1l2112
  4869  0C82                     u308_20:
  4870  0C82                     i1l2108:
  4871                           
  4872                           ;ADC.c: 55:             RD2 = 1;
  4873  0C82  1283               	bcf	3,5	;RP0=0, select bank0
  4874  0C83  1303               	bcf	3,6	;RP1=0, select bank0
  4875  0C84  1508               	bsf	8,2	;volatile
  4876  0C85                     i1l2110:
  4877                           
  4878                           ;ADC.c: 56:             PORTC = (tabla[unidad]);
  4879  0C85  1683               	bsf	3,5	;RP0=1, select bank1
  4880  0C86  1303               	bcf	3,6	;RP1=0, select bank1
  4881  0C87  0837               	movf	_unidad^(0+128),w
  4882  0C88  3E01               	addlw	low ((_tabla-__stringbase)| (0+32768))
  4883  0C89  0084               	movwf	4
  4884  0C8A  120A  118A  27E4  120A  158A  	fcall	stringdir
  4885  0C8F  1283               	bcf	3,5	;RP0=0, select bank0
  4886  0C90  1303               	bcf	3,6	;RP1=0, select bank0
  4887  0C91  0087               	movwf	7	;volatile
  4888                           
  4889                           ;ADC.c: 57:         }else if(display==2){
  4890  0C92  2CCA               	goto	i1l2130
  4891  0C93                     i1l2112:
  4892  0C93  3002               	movlw	2
  4893  0C94  0677               	xorwf	_display,w
  4894  0C95  1D03               	btfss	3,2
  4895  0C96  2C98               	goto	u309_21
  4896  0C97  2C99               	goto	u309_20
  4897  0C98                     u309_21:
  4898  0C98  2CAA               	goto	i1l2118
  4899  0C99                     u309_20:
  4900  0C99                     i1l2114:
  4901                           
  4902                           ;ADC.c: 58:             RD1 = 1;
  4903  0C99  1283               	bcf	3,5	;RP0=0, select bank0
  4904  0C9A  1303               	bcf	3,6	;RP1=0, select bank0
  4905  0C9B  1488               	bsf	8,1	;volatile
  4906  0C9C                     i1l2116:
  4907                           
  4908                           ;ADC.c: 59:             PORTC = (tabla[decena]);
  4909  0C9C  1683               	bsf	3,5	;RP0=1, select bank1
  4910  0C9D  1303               	bcf	3,6	;RP1=0, select bank1
  4911  0C9E  0836               	movf	_decena^(0+128),w
  4912  0C9F  3E01               	addlw	low ((_tabla-__stringbase)| (0+32768))
  4913  0CA0  0084               	movwf	4
  4914  0CA1  120A  118A  27E4  120A  158A  	fcall	stringdir
  4915  0CA6  1283               	bcf	3,5	;RP0=0, select bank0
  4916  0CA7  1303               	bcf	3,6	;RP1=0, select bank0
  4917  0CA8  0087               	movwf	7	;volatile
  4918                           
  4919                           ;ADC.c: 60:         }else if(display ==3){
  4920  0CA9  2CCA               	goto	i1l2130
  4921  0CAA                     i1l2118:
  4922  0CAA  3003               	movlw	3
  4923  0CAB  0677               	xorwf	_display,w
  4924  0CAC  1D03               	btfss	3,2
  4925  0CAD  2CAF               	goto	u310_21
  4926  0CAE  2CB0               	goto	u310_20
  4927  0CAF                     u310_21:
  4928  0CAF  2CC2               	goto	i1l2126
  4929  0CB0                     u310_20:
  4930  0CB0                     i1l2120:
  4931                           
  4932                           ;ADC.c: 61:             RD0 = 1;
  4933  0CB0  1283               	bcf	3,5	;RP0=0, select bank0
  4934  0CB1  1303               	bcf	3,6	;RP1=0, select bank0
  4935  0CB2  1408               	bsf	8,0	;volatile
  4936  0CB3                     i1l2122:
  4937                           
  4938                           ;ADC.c: 62:             PORTC = (tabla[centena]);
  4939  0CB3  1683               	bsf	3,5	;RP0=1, select bank1
  4940  0CB4  1303               	bcf	3,6	;RP1=0, select bank1
  4941  0CB5  0835               	movf	_centena^(0+128),w
  4942  0CB6  3E01               	addlw	low ((_tabla-__stringbase)| (0+32768))
  4943  0CB7  0084               	movwf	4
  4944  0CB8  120A  118A  27E4  120A  158A  	fcall	stringdir
  4945  0CBD  1283               	bcf	3,5	;RP0=0, select bank0
  4946  0CBE  1303               	bcf	3,6	;RP1=0, select bank0
  4947  0CBF  0087               	movwf	7	;volatile
  4948  0CC0                     i1l2124:
  4949                           
  4950                           ;ADC.c: 63:             RC0 = 1;
  4951  0CC0  1407               	bsf	7,0	;volatile
  4952                           
  4953                           ;ADC.c: 64:         }else if(display == 4){
  4954  0CC1  2CCA               	goto	i1l2130
  4955  0CC2                     i1l2126:
  4956  0CC2  3004               	movlw	4
  4957  0CC3  0677               	xorwf	_display,w
  4958  0CC4  1D03               	btfss	3,2
  4959  0CC5  2CC7               	goto	u311_21
  4960  0CC6  2CC8               	goto	u311_20
  4961  0CC7                     u311_21:
  4962  0CC7  2CCA               	goto	i1l79
  4963  0CC8                     u311_20:
  4964  0CC8                     i1l2128:
  4965                           
  4966                           ;ADC.c: 65:             display = 0;
  4967  0CC8  01F7               	clrf	_display
  4968  0CC9  2CCA               	goto	i1l2130
  4969  0CCA                     i1l79:
  4970  0CCA                     i1l2130:
  4971                           
  4972                           ;ADC.c: 67:         ++display;
  4973  0CCA  3001               	movlw	1
  4974  0CCB  00F0               	movwf	??_isr
  4975  0CCC  0870               	movf	??_isr,w
  4976  0CCD  07F7               	addwf	_display,f
  4977  0CCE                     i1l2132:
  4978                           
  4979                           ;ADC.c: 68:         INTCONbits.T0IF = 0;
  4980  0CCE  110B               	bcf	11,2	;volatile
  4981  0CCF                     i1l2134:
  4982                           
  4983                           ;ADC.c: 69:         TMR0 = 252;
  4984  0CCF  30FC               	movlw	252
  4985  0CD0  1283               	bcf	3,5	;RP0=0, select bank0
  4986  0CD1  0081               	movwf	1	;volatile
  4987  0CD2                     i1l83:
  4988  0CD2  0874               	movf	??_isr+4,w
  4989  0CD3  00FF               	movwf	btemp+1
  4990  0CD4  0873               	movf	??_isr+3,w
  4991  0CD5  008A               	movwf	10
  4992  0CD6  0872               	movf	??_isr+2,w
  4993  0CD7  0084               	movwf	4
  4994  0CD8  0E71               	swapf	??_isr+1,w
  4995  0CD9  0083               	movwf	3
  4996  0CDA  0EFE               	swapf	btemp,f
  4997  0CDB  0E7E               	swapf	btemp,w
  4998  0CDC  0009               	retfie
  4999  0CDD                     __end_of_isr:
  5000  007E                     btemp	set	126	;btemp
  5001  007E                     wtemp0	set	126
  5002                           
  5003                           	psect	intentry
  5004  0004                     __pintentry:	
  5005                           ;incstack = 0
  5006                           ; Regs used in _isr: [wreg-fsr0h+status,2+status,0+pclath]
  5007                           
  5008  0004                     interrupt_function:
  5009  007E                     saved_w	set	btemp
  5010  0004  00FE               	movwf	btemp
  5011  0005  0E03               	swapf	3,w
  5012  0006  00F1               	movwf	??_isr+1
  5013  0007  0804               	movf	4,w
  5014  0008  00F2               	movwf	??_isr+2
  5015  0009  080A               	movf	10,w
  5016  000A  00F3               	movwf	??_isr+3
  5017  000B  087F               	movf	btemp+1,w
  5018  000C  00F4               	movwf	??_isr+4
  5019  000D  120A  158A  2C3D   	ljmp	_isr
  5020                           
  5021                           	psect	idloc
  5022                           
  5023                           ;Config register IDLOC0 @ 0x2000
  5024                           ;	unspecified, using default values
  5025  2000                     	org	8192
  5026  2000  3FFF               	dw	16383
  5027                           
  5028                           ;Config register IDLOC1 @ 0x2001
  5029                           ;	unspecified, using default values
  5030  2001                     	org	8193
  5031  2001  3FFF               	dw	16383
  5032                           
  5033                           ;Config register IDLOC2 @ 0x2002
  5034                           ;	unspecified, using default values
  5035  2002                     	org	8194
  5036  2002  3FFF               	dw	16383
  5037                           
  5038                           ;Config register IDLOC3 @ 0x2003
  5039                           ;	unspecified, using default values
  5040  2003                     	org	8195
  5041  2003  3FFF               	dw	16383
  5042                           
  5043                           	psect	config
  5044                           
  5045                           ;Config register CONFIG1 @ 0x2007
  5046                           ;	Oscillator Selection bits
  5047                           ;	FOSC = INTRC_NOCLKOUT, INTOSCIO oscillator: I/O function on RA6/OSC2/CLKOUT pin, I/O f
      +                          unction on RA7/OSC1/CLKIN
  5048                           ;	Watchdog Timer Enable bit
  5049                           ;	WDTE = OFF, WDT disabled and can be enabled by SWDTEN bit of the WDTCON register
  5050                           ;	Power-up Timer Enable bit
  5051                           ;	PWRTE = OFF, PWRT disabled
  5052                           ;	RE3/MCLR pin function select bit
  5053                           ;	MCLRE = OFF, RE3/MCLR pin function is digital input, MCLR internally tied to VDD
  5054                           ;	Code Protection bit
  5055                           ;	CP = OFF, Program memory code protection is disabled
  5056                           ;	Data Code Protection bit
  5057                           ;	CPD = OFF, Data memory code protection is disabled
  5058                           ;	Brown Out Reset Selection bits
  5059                           ;	BOREN = OFF, BOR disabled
  5060                           ;	Internal External Switchover bit
  5061                           ;	IESO = OFF, Internal/External Switchover mode is disabled
  5062                           ;	Fail-Safe Clock Monitor Enabled bit
  5063                           ;	FCMEN = OFF, Fail-Safe Clock Monitor is disabled
  5064                           ;	Low Voltage Programming Enable bit
  5065                           ;	LVP = OFF, RB3 pin has digital I/O, HV on MCLR must be used for programming
  5066                           ;	In-Circuit Debugger Mode bit
  5067                           ;	DEBUG = 0x1, unprogrammed default
  5068  2007                     	org	8199
  5069  2007  20D4               	dw	8404
  5070                           
  5071                           ;Config register CONFIG2 @ 0x2008
  5072                           ;	Brown-out Reset Selection bit
  5073                           ;	BOR4V = BOR40V, Brown-out Reset set to 4.0V
  5074                           ;	Flash Program Memory Self Write Enable bits
  5075                           ;	WRT = OFF, Write protection off
  5076  2008                     	org	8200
  5077  2008  3FFF               	dw	16383

Data Sizes:
    Strings     0
    Constant    16
    Data        0
    BSS         5
    Persistent  0
    Stack       0

Auto Spaces:
    Space          Size  Autos    Used
    COMMON           14      7       8
    BANK0            80     80      80
    BANK1            80     20      24
    BANK3            96      0       0
    BANK2            96      0       0

Pointer List with Targets:

    None.

Critical Paths under _main in COMMON

    _main->___wmul
    ___xxtofl->___wmul
    ___fltol->___wmul
    ___flsub->___wmul
    ___flmul->__Umul8_16
    ___fldiv->___wmul

Critical Paths under _isr in COMMON

    None.

Critical Paths under _main in BANK0

    _main->___fltol
    ___xxtofl->___wmul
    ___fltol->___fldiv
    ___flsub->___flmul
    ___flmul->___xxtofl
    ___fldiv->___flsub

Critical Paths under _isr in BANK0

    None.

Critical Paths under _main in BANK1

    _main->___fltol

Critical Paths under _isr in BANK1

    None.

Critical Paths under _main in BANK3

    None.

Critical Paths under _isr in BANK3

    None.

Critical Paths under _main in BANK2

    None.

Critical Paths under _isr in BANK2

    None.

Call Graph Tables:

 ---------------------------------------------------------------------------------
 (Depth) Function   	        Calls       Base Space   Used Autos Params    Refs
 ---------------------------------------------------------------------------------
 (0) _main                                                11    11      0   10960
                                              9 BANK1     11    11      0
                            ___fldiv
                            ___flmul
                            ___flsub
                            ___fltol
                             ___wmul
                           ___xxtofl
                              _setup
 ---------------------------------------------------------------------------------
 (1) _setup                                                1     1      0       0
                                              5 COMMON     1     1      0
 ---------------------------------------------------------------------------------
 (1) ___xxtofl                                            14    10      4     778
                                              4 BANK0     14    10      4
                             ___wmul (ARG)
 ---------------------------------------------------------------------------------
 (1) ___wmul                                               6     2      4     676
                                              5 COMMON     2     2      0
                                              0 BANK0      4     0      4
 ---------------------------------------------------------------------------------
 (1) ___fltol                                             11     7      4     607
                                             78 BANK0      2     2      0
                                              0 BANK1      9     5      4
                            ___fldiv (ARG)
                            ___flmul (ARG)
                            ___flsub (ARG)
                             ___wmul (ARG)
                           ___xxtofl (ARG)
 ---------------------------------------------------------------------------------
 (1) ___flsub                                              8     0      8    3727
                                             44 BANK0      8     0      8
                            ___fladd
                            ___flmul (ARG)
                             ___wmul (ARG)
                           ___xxtofl (ARG)
 ---------------------------------------------------------------------------------
 (2) ___fladd                                             20    12      8    3122
                                              0 BANK0     20    12      8
 ---------------------------------------------------------------------------------
 (1) ___flmul                                             26    18      8    3713
                                             18 BANK0     26    18      8
                          __Umul8_16
                           ___xxtofl (ARG)
 ---------------------------------------------------------------------------------
 (2) __Umul8_16                                            9     7      2     980
                                              5 COMMON     2     0      2
                                              0 BANK0      7     7      0
 ---------------------------------------------------------------------------------
 (1) ___fldiv                                             26    18      8    1425
                                             52 BANK0     26    18      8
                            ___flmul (ARG)
                            ___flsub (ARG)
                             ___wmul (ARG)
                           ___xxtofl (ARG)
 ---------------------------------------------------------------------------------
 Estimated maximum stack depth 2
 ---------------------------------------------------------------------------------
 (Depth) Function   	        Calls       Base Space   Used Autos Params    Refs
 ---------------------------------------------------------------------------------
 (4) _isr                                                  5     5      0       0
                                              0 COMMON     5     5      0
 ---------------------------------------------------------------------------------
 Estimated maximum stack depth 4
 ---------------------------------------------------------------------------------

 Call Graph Graphs:

 _main (ROOT)
   ___fldiv
     ___flmul (ARG)
       __Umul8_16
       ___xxtofl (ARG)
         ___wmul (ARG)
     ___flsub (ARG)
       ___fladd
       ___flmul (ARG)
       ___wmul (ARG)
       ___xxtofl (ARG)
     ___wmul (ARG)
     ___xxtofl (ARG)
   ___flmul
   ___flsub
   ___fltol
     ___fldiv (ARG)
     ___flmul (ARG)
     ___flsub (ARG)
     ___wmul (ARG)
     ___xxtofl (ARG)
   ___wmul
   ___xxtofl
   _setup

 _isr (ROOT)

 Address spaces:
Name               Size   Autos  Total    Cost      Usage
BITCOMMON            E      0       0       0        0.0%
EEDATA             100      0       0       0        0.0%
NULL                 0      0       0       0        0.0%
CODE                 0      0       0       0        0.0%
COMMON               E      7       8       1       57.1%
BITSFR0              0      0       0       1        0.0%
SFR0                 0      0       0       1        0.0%
BITSFR1              0      0       0       2        0.0%
SFR1                 0      0       0       2        0.0%
STACK                0      0       0       2        0.0%
ABS                  0      0      70       3        0.0%
BITBANK0            50      0       0       4        0.0%
BITSFR3              0      0       0       4        0.0%
SFR3                 0      0       0       4        0.0%
BANK0               50     50      50       5      100.0%
BITSFR2              0      0       0       5        0.0%
SFR2                 0      0       0       5        0.0%
BITBANK1            50      0       0       6        0.0%
BANK1               50     14      18       7       30.0%
BITBANK3            60      0       0       8        0.0%
BANK3               60      0       0       9        0.0%
BITBANK2            60      0       0      10        0.0%
BANK2               60      0       0      11        0.0%
DATA                 0      0      70      12        0.0%


Microchip Technology PIC Macro Assembler V2.35 build 20211206165544 
Symbol Table                                                                                   Sat Apr 23 12:25:03 2022

           ___fldiv@aexp 006D             ___fldiv@bexp 006C                        pc 0002  
           ___fldiv@sign 0065                       l98 0BAA                       fsr 0004  
    ___wmul@multiplicand 0022      __Umul8_16@word_mpld 0024                      l502 0578  
                    l511 05D8                      l520 0606                      l184 0B28  
                    l370 0C3C                      l186 0B40                      l523 0B19  
                    l508 059A                      l380 0C3C                      l533 0663  
                    l630 0D62                      l535 07E3                      l519 05FA  
                    l631 0D6E                      l623 0D46                      l481 0489  
                    l377 0C25                      l617 0D01                      l490 0606  
                    l555 07C7                      l483 0460                      l619 0D98  
                    l557 07D7                      l549 0755                      l573 037E  
                    l477 03E2                      l592 0B57                      l585 0372  
                    l594 0B69                      l498 0554                      l579 02EA  
                    _RC0 0038                      _RD0 0040                      _RD1 0041  
                    _RD2 0042                      _isr 0C3D                      fsr0 0004  
           ___flmul@aexp 0040             ___flmul@bexp 0045             ___flmul@sign 003F  
           ___flmul@temp 004A             ___flmul@prod 0046             ___fltol@exp1 006F  
                   l2200 03D7                     l2040 0CE9                     l2210 03F0  
                   l2202 03D8                     l2050 0D17                     l2042 0CF9  
                   l2220 0404                     l2212 03F4                     l2204 03DA  
                   l2060 0D4D                     l2052 0D24                     l2044 0D09  
                   l2036 0CE0                     l2310 057F                     l2302 056A  
                   l2230 0418                     l2222 0408                     l2214 03F8  
                   l2206 03E8                     l2070 0D86                     l2062 0D58  
                   l2054 0D2B                     l2038 0CE5                     l2320 058D  
                   l2312 0581                     l2304 0573                     l2232 041C  
                   l2224 040C                     l2216 03FC                     l2208 03EC  
                   l2240 042C                     l2400 0BF1                     l2072 0D8B  
                   l2064 0D5C                     l2056 0D2F                     l2048 0D12  
                   l2330 05A4                     l2322 0591                     l2314 0586  
                   l2306 0577                     l2250 046F                     l2242 042D  
                   l2234 0420                     l2226 0410                     l2218 0400  
                   l2170 0391                     l2162 037F                     l2074 0D8F  
                   l2066 0D66                     l2058 0D3D                     l2500 020B  
                   l2340 05E2                     l2332 05B2                     l2324 0597  
                   l2308 057C                     l2316 0588                     l2260 048D  
                   l2252 0473                     l2244 0444                     l2236 0424  
                   l2228 0414                     l2172 0396                     l2180 03A6  
                   l2164 0386                     l2420 0AF6                     l2076 0D90  
                   l2068 0D70                     l2510 029F                     l2502 021B  
                   l2430 002B                     l2350 05F6                     l2342 05EA  
                   l2334 05B6                     l2270 04B6                     l2318 058C  
                   l2262 0492                     l2254 0474                     l2246 0464  
                   l2238 0428                     l2190 03C0                     l2182 03AE  
                   l2174 039B                     l2166 038C                     l2422 0AFA  
                   l2414 0C16                     l2406 0BF9                     l2360 0B4D  
                   l2520 02C4                     l2512 02AD                     l2504 0248  
                   l2440 0042                     l2432 002F                     l2352 0601  
                   l2344 05EF                     l2336 05D4                     l2328 059F  
                   l2280 04CA                     l2272 04BA                     l2256 047D  
                   l2248 046D                     l2192 03C4                     l2184 03B3  
                   l2176 03A3                     l2168 0390                     l2416 0C2A  
                   l2408 0C0F                     l1640 0B75                     l1810 06A4  
                   l1802 0684                     l2362 0B51                     l2530 02E7  
                   l2514 02B6                     l2522 02CA                     l2506 026E  
                   l2450 005B                     l2442 0044                     l2434 0030  
                   l2426 001E                     l2354 0605                     l2346 05F0  
                   l2338 05DD                     l2290 0532                     l2282 04D3  
                   l2274 04C3                     l2266 049B                     l2258 0481  
                   l2194 03C5                     l2186 03B9                     l2178 03A4  
                   l2418 0C2F                     l2370 0B1A                     l1650 0B7B  
                   l1642 0B76                     l1634 0B6A                     l1820 06C3  
                   l1812 06AC                     l1804 0689                     l2364 0B60  
                   l2356 0B44                     l2540 0306                     l2524 02CE  
                   l2516 02BA                     l2508 0296                     l2460 0070  
                   l2452 005C                     l2444 004C                     l2436 0035  
                   l2428 0025                     l2348 05F4                     l2292 0537  
                   l2276 04C5                     l2268 04B2                     l2284 04D8  
                   l2196 03CA                     l2188 03BA                     l2380 0B3C  
                   l2372 0B1C                     l1660 0B84                     l1652 0B7E  
                   l1644 0B78                     l1636 0B6E                     l1830 06F5  
                   l1822 06D5                     l1814 06B4                     l2366 0B65  
                   l2358 0B46                     l2550 034C                     l2542 031F  
                   l2534 02EF                     l2526 02CF                     l2518 02BB  
                   l2470 008B                     l2462 0078                     l2454 0061  
                   l2446 0051                     l2438 003A                     l2286 04EE  
                   l2294 0546                     l2278 04C9                     l2198 03CF  
                   l2390 0BC5                     l2374 0B22                     l1670 0B8C  
                   l1662 0B85                     l1654 0B7F                     l1646 0B79  
                   l1638 0B6F                     l1840 0716                     l1832 06F6  
                   l1824 06D9                     l1816 06BC                     l1808 0692  
                   l1760 0618                     l2560 036B                     l2552 0356  
                   l2536 02F4                     l2544 0325                     l2528 02D3  
                   l2480 010D                     l2472 009B                     l2464 007D  
                   l2456 0066                     l2448 0057                     l2296 055C  
                   l2288 052C                     l2392 0BDE                     l2384 0BAB  
                   l2376 0B2F                     l1680 0B99                     l1672 0B8E  
                   l1664 0B86                     l1656 0B80                     l1648 0B7A  
                   l1850 072F                     l1842 0718                     l1834 0704  
                   l1826 06DA                     l1818 06BE                     l1770 062C  
                   l1762 0619                     l1754 0607                     l2562 0376  
                   l2554 0358                     l2546 0332                     l2538 0302  
                   l2490 017B                     l2482 0129                     l2474 00A8  
                   l2466 0082                     l2458 006E                     l2298 0561  
                   l2394 0BE1                     l2386 0BBA                     l2378 0B36  
                   l1690 0BA7                     l1682 0B9C                     l1674 0B91  
                   l1666 0B87                     l1658 0B81                     l2570 0DA4  
                   l1860 0752                     l1844 0721                     l1852 0735  
                   l1828 06E3                     l1836 0708                     l1780 0645  
                   l1764 061E                     l1772 062E                     l1756 060E  
                   l2556 0366                     l2548 033D                     l2492 018B  
                   l2484 0145                     l2476 00C5                     l2396 0BE9  
                   l1692 0BA8                     l1684 0BA0                     l1676 0B92  
                   l1668 0B88                     l2580 0DCE                     l2572 0DAF  
                   l1870 0771                     l1854 0739                     l1846 0725  
                   l1838 070E                     l1790 0659                     l1782 0646  
                   l1774 0636                     l1766 0623                     l1758 0614  
                   l2558 036A                     l2494 01A8                     l2486 014E  
                   l2478 00E1                     l2398 0BED                     l1694 0BA9  
                   l1686 0BA3                     l1678 0B96                     l2574 0DB6  
                   l2582 0DD1                     l2566 0D99                     l1880 07BA  
                   l1872 078A                     l1864 075A                     l1856 073A  
                   l1848 0726                     l1784 064B                     l1792 065B  
                   l1776 063B                     l1768 062B                     l2496 01C1  
                   l2488 015E                     l1688 0BA6                     l2584 0E45  
                   l2576 0DC3                     l2568 0D9E                     l1890 07D3  
                   l1882 07BE                     l1866 075F                     l1874 0790  
                   l1858 073E                     l1794 066B                     l1786 0650  
                   l1778 0641                     l2498 01DE                     l2586 0EF9  
                   l2578 0DC7                     l1884 07C6                     l1876 079D  
                   l1868 076D                     l1796 0677                     l1788 0658  
                   l2588 0F8B                     l1886 07CD                     l1878 07AB  
                   l1798 067B                     l1888 07D1                     ?_isr 0070  
                   u3000 0D8F                     u3001 0D8E                     u2210 0618  
                   u2211 0617                     u2220 061E                     u2221 061D  
                   u2230 0623                     u2231 0622                     u2400 0739  
                   u2320 06D9                     u2240 0645                     u3200 03CA  
                   u2401 0738                     u2321 06D8                     u2305 06C5  
                   u2241 0644                     u4001 0288                     u3201 03C9  
                   u2410 073E                     u2250 064B                     u4002 028F  
                   u3210 03CF                     u2411 073D                     u2315 06CE  
                   u2251 064A                     u4003 0296                     u3211 03CE  
                   u2420 0752                     u2340 06F5                     u2260 0650  
                   u4100 0306                     u3300 0489                     u3220 03E8  
                   u2421 0751                     u2341 06F4                     u2261 064F  
                   u4101 0305                     u3301 0488                     u3221 03E7  
                   u2430 0759                     u2350 070E                     u2270 066B  
                   u4110 0315                     u4030 02BA                     u3310 048D  
                   u3230 03EC                     u3150 0390                     u2431 0758  
                   u2351 070D                     u2335 06DC                     u2271 066A  
                   u4031 02B9                     u4015 0298                     u3311 048C  
                   u3231 03EB                     u3151 038F                     u2440 075F  
                   u2360 0716                     u2280 0689                     u4120 0332  
                   u3400 0519                     u3320 0492                     u3240 0444  
                   u3160 0396                     u2441 075E                     u2361 0715  
                   u2345 06F1                     u2281 0688                     u4121 0331  
                   u4025 02AF                     u3401 051A                     u3321 0491  
                   u3241 0443                     u3161 0395                     u2450 0771  
                   u2290 06C3                     u4130 034C                     u4050 02CE  
                   u3410 0537                     u3402 051F                     u3250 044F  
                   u3170 039B                     u2451 0770                     u2291 06C2  
                   u4131 034B                     u4115 0310                     u4051 02CD  
                   u3411 0536                     u3403 0520                     u3331 04A4  
                   u3251 044D                     u3171 039A                     u2460 0780  
                   u2380 0725                     u4140 036A                     u4060 02D3  
                   u3500 0597                     u3420 055C                     u3340 04B6  
                   u3332 04AB                     u3260 0450                     u3180 03B9  
                   u2381 0724                     u4141 0369                     u4125 032E  
                   u4061 02D2                     u4045 02BD                     u3501 0596  
                   u3421 055B                     u3341 04B5                     u3333 04B2  
                   u3245 0440                     u3181 03B8                     u2470 079D  
                   u4070 02E7                     u3510 059E                     u3430 0561  
                   u3350 04BA                     u3270 0464                     u3190 03C4  
                   u4150 0DA4                     u2471 079C                     u2375 071A  
                   u4135 0348                     u4071 02E6                     u3511 059D  
                   u3431 0560                     u3351 04B9                     u3271 0463  
                   u3191 03C3                     u4151 0DA3                     u2480 07BA  
                   u4080 02EE                     u3600 0605                     u3520 05A4  
                   u3360 04C9                     u3280 0473                     u4160 0DAF  
                   u2481 07B9                     u2465 077B                     u4081 02ED  
                   u3601 0604                     u3521 05A3                     u3361 04C8  
                   u3281 0472                     u4161 0DAE                     u2490 07D1  
                   u3610 0B51                     u4090 02F4                     u3530 05B6  
                   u3450 0577                     u4170 0DC3                     u2491 07D0  
                   u2475 0799                     u2395 0728                     u3611 0B50  
                   u4091 02F3                     u3531 05B5                     u3451 0576  
                   u4171 0DC2                     u3540 05C5                     u3460 057C  
                   u3380 04EE                     u3700 0BF1                     u2485 07B6  
                   u3461 057B                     u3445 056C                     u3381 04ED  
                   u3701 0BF0                     u3630 0B65                     u3550 05D4  
                   u3470 0586                     u3710 0BF8                     u2910 0D2A  
                   u3631 0B64                     u3551 05D3                     u3471 0585  
                   u3391 0505                     u3383 04EA                     u3375 04CC  
                   u3295 0476                     u3711 0BF7                     u2911 0D29  
                   u3800 003A                     u3560 05DD                     u3480 058C  
                   u3392 0506                     u3640 0B22                     u3625 0B58  
                   u3801 0039                     u3561 05DC                     u3545 05C0  
                   u3481 058B                     u3393 050B                     u3641 0B21  
                   u2905 0D1C                     u3810 005B                     u3570 05E2  
                   u3490 0591                     u3394 050C                     u3730 0C0E  
                   u2930 0D4C                     u3811 005A                     u3571 05E1  
                   u3491 0590                     u3395 0511                     u3731 0C0D  
                   u2931 0D4B                     u4187 0DCB                     u3820 0061  
                   u3580 05EF                     u3396 0512                     u3740 0C15  
                   u3821 0060                     u3581 05EE                     u3741 0C14  
                   u3725 0BFA                     u2925 0D3E                     u4197 0B9E  
                   u3830 0066                     u3590 05F4                     u3670 0B3C  
                   u2950 0D5C                     u2870 0CE5                     u3911 016D  
                   u3831 0065                     u3591 05F3                     u3671 0B3B  
                   u3655 0B29                     u2951 0D5B                     u2871 0CE4  
                   u3912 0174                     u3840 007D                     u3760 0C2A  
                   u3680 0BBA                     u2960 0D62                     u2880 0CE9  
                   u3921 019A                     u3913 017B                     u3905 0147  
                   u3841 007C                     u3761 0C29                     u3681 0BB9  
                   u3665 0B30                     u2961 0D61                     u2945 0D51  
                   u2881 0CE8                     u3922 01A1                     u3850 0082  
                   u3770 0C2F                     u3690 0BD5                     u2970 0D66  
                   u2890 0D09                     u3923 01A8                     u3851 0081  
                   u3771 0C2E                     u3755 0C1A                     u2971 0D65  
                   u2891 0D08                     u3780 002F                     u2980 0D7B  
                   u3941 01D0                     u3861 00D3                     u3781 002E  
                   u3942 01D7                     u3862 00DA                     u3790 0035  
                   u2990 0D8B                     u3951 01FD                     u3943 01DE  
                   u3935 01AA                     u3871 00EF                     u3863 00E1  
                   u3791 0034                     u3695 0BD0                     u2991 0D8A  
                   u3952 0204                     u3872 00F6                     u3961 022A  
                   u3953 020B                     u3881 011B                     u3873 00FD  
                   u2985 0D76                     u3970 0254                     u3962 0231  
                   u3882 0122                     i1l83 0CD2                     i1l67 0C61  
                   u3963 0238                     u3891 0137                     u3883 0129  
                   u3892 013E                     u3981 0260                     u3893 0145  
                   u3990 027C                     u3982 0267                     i1l79 0CCA  
                   u3983 026E                     u3975 024F                     u3995 0277  
                   _TMR0 0001                     _main 0D99                     _pot2 00B4  
                   btemp 007E                     start 0010          ___fldiv@new_exp 0066  
                  ??_isr 0070            ___fltol@sign1 006E          __end_of___fladd 0607  
                  ?_main 0070          __end_of___fldiv 07E4          __end_of___flmul 037F  
        __end_of___flsub 0B1A          __end_of___fltol 0C3D                    _ANSEL 0188  
                  _PORTA 0005                    _PORTB 0006                    _PORTC 0007  
                  _PORTD 0008                    _TRISA 0085                    _TRISB 0086  
                  _TRISC 0087                    _TRISD 0088                    _tabla 07EA  
                  _setup 0B6A                    pclath 000A                    status 0003  
                  wtemp0 007E          __initialization 0013             __end_of_main 1000  
                 ??_main 00A9                   _ADRESH 001E                   ?_setup 0070  
                 _ANSELH 0189                   i1l2100 0C75                   i1l2110 0C85  
                 i1l2102 0C76                   i1l2120 0CB0                   i1l2112 0C93  
                 i1l2104 0C7C                   i1l2122 0CB3                   i1l2114 0C99  
                 i1l2130 0CCA                   i1l2106 0C7D                   i1l2132 0CCE  
                 i1l2124 0CC0                   i1l2116 0C9C                   i1l2108 0C82  
                 i1l2134 0CCF                   i1l2126 0CC2                   i1l2118 0CAA  
                 i1l2128 0CC8                   i1l2080 0C3D                   i1l2090 0C5E  
                 i1l2082 0C43                   i1l2092 0C65                   i1l2084 0C4C  
                 i1l2094 0C66                   i1l2086 0C4F                   i1l2096 0C6E  
                 i1l2088 0C58                   i1l2098 0C6F                   u301_20 0C43  
                 u301_21 0C42                   u310_20 0CB0                   u302_20 0C4C  
                 u310_21 0CAF                   u302_21 0C4B                   u311_20 0CC8  
                 u303_20 0C58                   u311_21 0CC7                   u303_21 0C57  
                 u304_20 0C65                   u304_21 0C64                   u305_20 0C6E  
                 u305_21 0C6D                   u306_20 0C75                   u306_21 0C74  
                 u307_20 0C7C                   u307_21 0C7B                   u308_20 0C82  
                 u308_21 0C81                   u309_20 0C99                   u309_21 0C98  
       __end_of___xxtofl 0D99                ??___fladd 0028                   ___wmul 0B1A  
              ??___fldiv 005C                   _decena 00B6                ??___flmul 003A  
              ??___flsub 0077                ??___fltol 00A4                   _unidad 00B7  
                 saved_w 007E             ___xxtofl@arg 002E             ___xxtofl@exp 002D  
           ___xxtofl@val 0024  __end_of__initialization 001A               ___fltol@f1 00A0  
         __pcstackCOMMON 0070            __end_of_tabla 07FA            __end_of_setup 0BAB  
         _OPTION_REGbits 0081                  ??_setup 0075               __pbssBANK1 00B4  
      __end_of__Umul8_16 0B6A               __pmaintext 0D99                  ?___wmul 0020  
             __pintentry 0004                ?___xxtofl 0024               __stringtab 07E4  
                ___fladd 037F                  ___fldiv 0607                  ___flmul 001E  
                ___flsub 0AF6                  ___fltol 0BAB                  _centena 00B5  
                __ptext1 0B6A                  __ptext2 0CDD                  __ptext3 0B1A  
                __ptext4 0BAB                  __ptext5 0AF6                  __ptext6 037F  
                __ptext7 001E                  __ptext8 0B41                  __ptext9 0607  
                _display 0077               ??___xxtofl 0028     end_of_initialization 001A  
            ___fladd@grs 0033            ___xxtofl@sign 002C              ___fldiv@grs 0068  
            ___fldiv@rem 0061              ___flmul@grs 0041           __end_of___wmul 0B41  
    start_initialization 0013              __end_of_isr 0CDD                 ??___wmul 0075  
              __Umul8_16 0B41                ___fladd@a 0024                ___fladd@b 0020  
              ___fldiv@a 0054                ___fldiv@b 0058                ___flmul@a 0036  
              ___flmul@b 0032              __pbssCOMMON 0077                ___flsub@a 004C  
              ___flsub@b 0050                ___latbits 0002            __pcstackBANK0 0020  
          __pcstackBANK1 00A0                 ?___fladd 0020                 ?___fldiv 0054  
               ?___flmul 0032                 ?___flsub 004C                 ?___fltol 00A0  
             ?__Umul8_16 0075                __pstrings 07E4        interrupt_function 0004  
         ___wmul@product 0075                 _PIE1bits 008C                 _PIR1bits 000C  
             _ADCON0bits 001F              __stringbase 07E9               _ADCON1bits 009F  
      ___wmul@multiplier 0020              ??__Umul8_16 0020       __end_of__stringtab 07EA  
               ___xxtofl 0CDD                 _main$882 00B0                 __ptext10 0C3D  
             _INTCONbits 000B                 intlevel1 0000                stringcode 07E4  
             _OSCCONbits 008F   __Umul8_16@multiplicand 0075                 stringdir 07E4  
               stringtab 07E4            ___fladd@signs 0030             ___fladd@aexp 0031  
           ___fladd@bexp 0032     __Umul8_16@multiplier 0026        __Umul8_16@product 0022  
