

Microchip MPLAB XC8 Assembler V2.35 build 20211206165544 
                                                                                               Fri Apr 29 23:45:51 2022

Microchip MPLAB XC8 C Compiler v2.35 (Free license) build 20211206165544 Og1 
     1                           	processor	16F887
     2                           	pagewidth 120
     3                           	opt	flic
     4                           	psect	cinit,global,class=CODE,merge=1,delta=2
     5                           	psect	bssBANK1,global,class=BANK1,space=1,delta=1,noexec
     6                           	psect	cstackBANK1,global,class=BANK1,space=1,delta=1,noexec
     7                           	psect	cstackCOMMON,global,class=COMMON,space=1,delta=1,noexec
     8                           	psect	cstackBANK0,global,class=BANK0,space=1,delta=1,noexec
     9                           	psect	maintext,global,class=CODE,split=1,delta=2
    10                           	psect	text1,local,class=CODE,merge=1,delta=2
    11                           	psect	text2,local,class=CODE,merge=1,delta=2
    12                           	psect	intentry,global,class=CODE,delta=2
    13                           	psect	text3,local,class=CODE,merge=1,delta=2
    14                           	psect	text4,local,class=CODE,merge=1,delta=2,group=1
    15                           	psect	text5,local,class=CODE,merge=1,delta=2,group=1
    16                           	psect	text6,local,class=CODE,merge=1,delta=2,group=1
    17                           	psect	text7,local,class=CODE,merge=1,delta=2,group=1
    18                           	psect	text8,local,class=CODE,merge=1,delta=2,group=1
    19                           	psect	text9,local,class=CODE,merge=1,delta=2,group=1
    20                           	psect	idloc,global,abs,ovrld,class=IDLOC,space=5,delta=2,noexec
    21                           	psect	config,global,abs,ovrld,class=CONFIG,space=4,delta=2,noexec
    22                           	dabs	1,0x7E,2
    23  0000                     
    24                           ; Version 2.40
    25                           ; Generated 17/11/2021 GMT
    26                           ; 
    27                           ; Copyright © 2021, Microchip Technology Inc. and its subsidiaries ("Microchip")
    28                           ; All rights reserved.
    29                           ; 
    30                           ; This software is developed by Microchip Technology Inc. and its subsidiaries ("Microch
      +                          ip").
    31                           ; 
    32                           ; Redistribution and use in source and binary forms, with or without modification, are
    33                           ; permitted provided that the following conditions are met:
    34                           ; 
    35                           ;     1. Redistributions of source code must retain the above copyright notice, this lis
      +                          t of
    36                           ;        conditions and the following disclaimer.
    37                           ; 
    38                           ;     2. Redistributions in binary form must reproduce the above copyright notice, this 
      +                          list
    39                           ;        of conditions and the following disclaimer in the documentation and/or other
    40                           ;        materials provided with the distribution. Publication is not required when
    41                           ;        this file is used in an embedded application.
    42                           ; 
    43                           ;     3. Microchip's name may not be used to endorse or promote products derived from th
      +                          is
    44                           ;        software without specific prior written permission.
    45                           ; 
    46                           ; THIS SOFTWARE IS PROVIDED BY MICROCHIP "AS IS" AND ANY EXPRESS OR IMPLIED WARRANTIES,
    47                           ; INCLUDING, BUT NOT LIMITED TO, THE IMPLIED WARRANTIES OF MERCHANTABILITY AND FITNESS F
      +                          OR
    48                           ; PURPOSE ARE DISCLAIMED.  IN NO EVENT SHALL MICROCHIP BE LIABLE FOR ANY DIRECT, INDIREC
      +                          T,
    49                           ; INCIDENTAL, SPECIAL, EXEMPLARY, OR CONSEQUENTIAL DAMAGES (INCLUDING BUT NOT LIMITED TO
    50                           ; PROCUREMENT OF SUBSTITUTE GOODS OR SERVICES; LOSS OF USE, DATA OR PROFITS; OR BUSINESS
    51                           ; INTERRUPTION) HOWSOEVER CAUSED AND ON ANY THEORY OF LIABILITY, WHETHER IN CONTRACT, ST
      +                          RICT
    52                           ; LIABILITY, OR TORT (INCLUDING NEGLIGENCE OR OTHERWISE) ARISING IN ANY WAY OUT OF THE U
      +                          SE OF
    53                           ; THIS SOFTWARE, EVEN IF ADVISED OF THE POSSIBILITY OF SUCH DAMAGE.
    54                           ; 
    55                           ; 
    56                           ; Code-generator required, PIC16F887 Definitions
    57                           ; 
    58                           ; SFR Addresses
    59  0000                     	;# 
    60  0001                     	;# 
    61  0002                     	;# 
    62  0003                     	;# 
    63  0004                     	;# 
    64  0005                     	;# 
    65  0006                     	;# 
    66  0007                     	;# 
    67  0008                     	;# 
    68  0009                     	;# 
    69  000A                     	;# 
    70  000B                     	;# 
    71  000C                     	;# 
    72  000D                     	;# 
    73  000E                     	;# 
    74  000E                     	;# 
    75  000F                     	;# 
    76  0010                     	;# 
    77  0011                     	;# 
    78  0012                     	;# 
    79  0013                     	;# 
    80  0014                     	;# 
    81  0015                     	;# 
    82  0015                     	;# 
    83  0016                     	;# 
    84  0017                     	;# 
    85  0018                     	;# 
    86  0019                     	;# 
    87  001A                     	;# 
    88  001B                     	;# 
    89  001B                     	;# 
    90  001C                     	;# 
    91  001D                     	;# 
    92  001E                     	;# 
    93  001F                     	;# 
    94  0081                     	;# 
    95  0085                     	;# 
    96  0086                     	;# 
    97  0087                     	;# 
    98  0088                     	;# 
    99  0089                     	;# 
   100  008C                     	;# 
   101  008D                     	;# 
   102  008E                     	;# 
   103  008F                     	;# 
   104  0090                     	;# 
   105  0091                     	;# 
   106  0092                     	;# 
   107  0093                     	;# 
   108  0093                     	;# 
   109  0093                     	;# 
   110  0094                     	;# 
   111  0095                     	;# 
   112  0096                     	;# 
   113  0097                     	;# 
   114  0098                     	;# 
   115  0099                     	;# 
   116  009A                     	;# 
   117  009B                     	;# 
   118  009C                     	;# 
   119  009D                     	;# 
   120  009E                     	;# 
   121  009F                     	;# 
   122  0105                     	;# 
   123  0107                     	;# 
   124  0108                     	;# 
   125  0109                     	;# 
   126  010C                     	;# 
   127  010C                     	;# 
   128  010D                     	;# 
   129  010E                     	;# 
   130  010F                     	;# 
   131  0185                     	;# 
   132  0187                     	;# 
   133  0188                     	;# 
   134  0189                     	;# 
   135  018C                     	;# 
   136  018D                     	;# 
   137  0000                     	;# 
   138  0001                     	;# 
   139  0002                     	;# 
   140  0003                     	;# 
   141  0004                     	;# 
   142  0005                     	;# 
   143  0006                     	;# 
   144  0007                     	;# 
   145  0008                     	;# 
   146  0009                     	;# 
   147  000A                     	;# 
   148  000B                     	;# 
   149  000C                     	;# 
   150  000D                     	;# 
   151  000E                     	;# 
   152  000E                     	;# 
   153  000F                     	;# 
   154  0010                     	;# 
   155  0011                     	;# 
   156  0012                     	;# 
   157  0013                     	;# 
   158  0014                     	;# 
   159  0015                     	;# 
   160  0015                     	;# 
   161  0016                     	;# 
   162  0017                     	;# 
   163  0018                     	;# 
   164  0019                     	;# 
   165  001A                     	;# 
   166  001B                     	;# 
   167  001B                     	;# 
   168  001C                     	;# 
   169  001D                     	;# 
   170  001E                     	;# 
   171  001F                     	;# 
   172  0081                     	;# 
   173  0085                     	;# 
   174  0086                     	;# 
   175  0087                     	;# 
   176  0088                     	;# 
   177  0089                     	;# 
   178  008C                     	;# 
   179  008D                     	;# 
   180  008E                     	;# 
   181  008F                     	;# 
   182  0090                     	;# 
   183  0091                     	;# 
   184  0092                     	;# 
   185  0093                     	;# 
   186  0093                     	;# 
   187  0093                     	;# 
   188  0094                     	;# 
   189  0095                     	;# 
   190  0096                     	;# 
   191  0097                     	;# 
   192  0098                     	;# 
   193  0099                     	;# 
   194  009A                     	;# 
   195  009B                     	;# 
   196  009C                     	;# 
   197  009D                     	;# 
   198  009E                     	;# 
   199  009F                     	;# 
   200  0105                     	;# 
   201  0107                     	;# 
   202  0108                     	;# 
   203  0109                     	;# 
   204  010C                     	;# 
   205  010C                     	;# 
   206  010D                     	;# 
   207  010E                     	;# 
   208  010F                     	;# 
   209  0185                     	;# 
   210  0187                     	;# 
   211  0188                     	;# 
   212  0189                     	;# 
   213  018C                     	;# 
   214  018D                     	;# 
   215  0012                     _T2CONbits	set	18
   216  001D                     _CCP2CON	set	29
   217  0017                     _CCP1CON	set	23
   218  0007                     _PORTC	set	7
   219  0005                     _PORTA	set	5
   220  0001                     _TMR0	set	1
   221  000B                     _INTCONbits	set	11
   222  0007                     _PORTCbits	set	7
   223  001D                     _CCP2CONbits	set	29
   224  001B                     _CCPR2L	set	27
   225  0017                     _CCP1CONbits	set	23
   226  0015                     _CCPR1L	set	21
   227  001E                     _ADRESH	set	30
   228  001F                     _ADCON0bits	set	31
   229  000C                     _PIR1bits	set	12
   230  008C                     _PIE1bits	set	140
   231  0092                     _PR2	set	146
   232  009F                     _ADCON1bits	set	159
   233  0081                     _OPTION_REGbits	set	129
   234  0087                     _TRISCbits	set	135
   235  0085                     _TRISA	set	133
   236  008F                     _OSCCONbits	set	143
   237  0189                     _ANSELH	set	393
   238  0188                     _ANSEL	set	392
   239                           
   240                           	psect	cinit
   241  0013                     start_initialization:	
   242                           ; #config settings
   243                           
   244  0013                     __initialization:
   245                           
   246                           ; Clear objects allocated to BANK1
   247  0013  1683               	bsf	3,5	;RP0=1, select bank1
   248  0014  1303               	bcf	3,6	;RP1=0, select bank1
   249  0015  01B2               	clrf	__pbssBANK1& (0+127)
   250  0016  01B3               	clrf	(__pbssBANK1+1)& (0+127)
   251  0017  01B4               	clrf	(__pbssBANK1+2)& (0+127)
   252  0018  01B5               	clrf	(__pbssBANK1+3)& (0+127)
   253  0019  01B6               	clrf	(__pbssBANK1+4)& (0+127)
   254  001A  01B7               	clrf	(__pbssBANK1+5)& (0+127)
   255  001B  01B8               	clrf	(__pbssBANK1+6)& (0+127)
   256  001C  01B9               	clrf	(__pbssBANK1+7)& (0+127)
   257  001D                     end_of_initialization:	
   258                           ;End of C runtime variable initialization code
   259                           
   260  001D                     __end_of__initialization:
   261  001D  0183               	clrf	3
   262  001E  120A  158A  2C33   	ljmp	_main	;jump to C main() function
   263                           
   264                           	psect	bssBANK1
   265  00B2                     __pbssBANK1:
   266  00B2                     _pot:
   267  00B2                     	ds	2
   268  00B4                     _pot3:
   269  00B4                     	ds	2
   270  00B6                     _CCP2:
   271  00B6                     	ds	2
   272  00B8                     _CCP1:
   273  00B8                     	ds	2
   274                           
   275                           	psect	cstackBANK1
   276  00A0                     __pcstackBANK1:
   277  00A0                     ??___fltol:
   278                           
   279                           ; 1 bytes @ 0x0
   280  00A0                     	ds	5
   281  00A5                     ?_map:
   282  00A5                     map@x0:	
   283                           ; 2 bytes @ 0x5
   284                           
   285                           
   286                           ; 1 bytes @ 0x5
   287  00A5                     	ds	1
   288  00A6                     map@x1:
   289                           
   290                           ; 1 bytes @ 0x6
   291  00A6                     	ds	1
   292  00A7                     map@y0:
   293                           
   294                           ; 2 bytes @ 0x7
   295  00A7                     	ds	2
   296  00A9                     map@y1:
   297                           
   298                           ; 2 bytes @ 0x9
   299  00A9                     	ds	2
   300  00AB                     ??_isr:
   301                           
   302                           ; 1 bytes @ 0xB
   303  00AB                     	ds	5
   304  00B0                     ??_setup:
   305                           
   306                           ; 1 bytes @ 0x10
   307  00B0                     	ds	1
   308  00B1                     ??_main:
   309                           
   310                           ; 1 bytes @ 0x11
   311  00B1                     	ds	1
   312                           
   313                           	psect	cstackCOMMON
   314  0070                     __pcstackCOMMON:
   315  0070                     ?_setup:
   316  0070                     ?_isr:	
   317                           ; 1 bytes @ 0x0
   318                           
   319  0070                     ?_main:	
   320                           ; 1 bytes @ 0x0
   321                           
   322  0070                     ?__Umul8_16:	
   323                           ; 1 bytes @ 0x0
   324                           
   325  0070                     ?___xxtofl:	
   326                           ; 2 bytes @ 0x0
   327                           
   328  0070                     __Umul8_16@multiplicand:	
   329                           ; 4 bytes @ 0x0
   330                           
   331  0070                     ___xxtofl@val:	
   332                           ; 1 bytes @ 0x0
   333                           
   334                           
   335                           ; 4 bytes @ 0x0
   336  0070                     	ds	2
   337  0072                     ??__Umul8_16:
   338                           
   339                           ; 1 bytes @ 0x2
   340  0072                     	ds	2
   341  0074                     ??___xxtofl:
   342  0074                     __Umul8_16@product:	
   343                           ; 1 bytes @ 0x4
   344                           
   345                           
   346                           ; 2 bytes @ 0x4
   347  0074                     	ds	2
   348  0076                     __Umul8_16@word_mpld:
   349                           
   350                           ; 2 bytes @ 0x6
   351  0076                     	ds	2
   352  0078                     __Umul8_16@multiplier:
   353  0078                     ___xxtofl@sign:	
   354                           ; 1 bytes @ 0x8
   355                           
   356                           
   357                           ; 1 bytes @ 0x8
   358  0078                     	ds	1
   359  0079                     ___xxtofl@exp:
   360                           
   361                           ; 1 bytes @ 0x9
   362  0079                     	ds	1
   363  007A                     ___xxtofl@arg:
   364                           
   365                           ; 4 bytes @ 0xA
   366  007A                     	ds	4
   367  007E                     ??_map:
   368                           
   369                           	psect	cstackBANK0
   370  0020                     __pcstackBANK0:	
   371                           ; 1 bytes @ 0xE
   372                           
   373  0020                     ?___fldiv:
   374  0020                     ___fldiv@a:	
   375                           ; 4 bytes @ 0x0
   376                           
   377                           
   378                           ; 4 bytes @ 0x0
   379  0020                     	ds	4
   380  0024                     ___fldiv@b:
   381                           
   382                           ; 4 bytes @ 0x4
   383  0024                     	ds	4
   384  0028                     ??___fldiv:
   385                           
   386                           ; 1 bytes @ 0x8
   387  0028                     	ds	5
   388  002D                     ___fldiv@rem:
   389                           
   390                           ; 4 bytes @ 0xD
   391  002D                     	ds	4
   392  0031                     ___fldiv@sign:
   393                           
   394                           ; 1 bytes @ 0x11
   395  0031                     	ds	1
   396  0032                     ___fldiv@new_exp:
   397                           
   398                           ; 2 bytes @ 0x12
   399  0032                     	ds	2
   400  0034                     ___fldiv@grs:
   401                           
   402                           ; 4 bytes @ 0x14
   403  0034                     	ds	4
   404  0038                     ___fldiv@bexp:
   405                           
   406                           ; 1 bytes @ 0x18
   407  0038                     	ds	1
   408  0039                     ___fldiv@aexp:
   409                           
   410                           ; 1 bytes @ 0x19
   411  0039                     	ds	1
   412  003A                     ?___flmul:
   413  003A                     ___flmul@b:	
   414                           ; 4 bytes @ 0x1A
   415                           
   416                           
   417                           ; 4 bytes @ 0x1A
   418  003A                     	ds	4
   419  003E                     ___flmul@a:
   420                           
   421                           ; 4 bytes @ 0x1E
   422  003E                     	ds	4
   423  0042                     ??___flmul:
   424                           
   425                           ; 1 bytes @ 0x22
   426  0042                     	ds	5
   427  0047                     ___flmul@sign:
   428                           
   429                           ; 1 bytes @ 0x27
   430  0047                     	ds	1
   431  0048                     ___flmul@grs:
   432                           
   433                           ; 4 bytes @ 0x28
   434  0048                     	ds	4
   435  004C                     ___flmul@aexp:
   436                           
   437                           ; 1 bytes @ 0x2C
   438  004C                     	ds	1
   439  004D                     ___flmul@bexp:
   440                           
   441                           ; 1 bytes @ 0x2D
   442  004D                     	ds	1
   443  004E                     ___flmul@prod:
   444                           
   445                           ; 4 bytes @ 0x2E
   446  004E                     	ds	4
   447  0052                     ___flmul@temp:
   448                           
   449                           ; 2 bytes @ 0x32
   450  0052                     	ds	2
   451  0054                     ?___fladd:
   452  0054                     ___fladd@b:	
   453                           ; 4 bytes @ 0x34
   454                           
   455                           
   456                           ; 4 bytes @ 0x34
   457  0054                     	ds	4
   458  0058                     ___fladd@a:
   459                           
   460                           ; 4 bytes @ 0x38
   461  0058                     	ds	4
   462  005C                     ??___fladd:
   463                           
   464                           ; 1 bytes @ 0x3C
   465  005C                     	ds	8
   466  0064                     ___fladd@signs:
   467                           
   468                           ; 1 bytes @ 0x44
   469  0064                     	ds	1
   470  0065                     ___fladd@aexp:
   471                           
   472                           ; 1 bytes @ 0x45
   473  0065                     	ds	1
   474  0066                     ___fladd@bexp:
   475                           
   476                           ; 1 bytes @ 0x46
   477  0066                     	ds	1
   478  0067                     ___fladd@grs:
   479                           
   480                           ; 1 bytes @ 0x47
   481  0067                     	ds	1
   482  0068                     ?___fltol:
   483  0068                     ___fltol@f1:	
   484                           ; 4 bytes @ 0x48
   485                           
   486                           
   487                           ; 4 bytes @ 0x48
   488  0068                     	ds	4
   489  006C                     ___fltol@sign1:
   490                           
   491                           ; 1 bytes @ 0x4C
   492  006C                     	ds	1
   493  006D                     ___fltol@exp1:
   494                           
   495                           ; 1 bytes @ 0x4D
   496  006D                     	ds	1
   497  006E                     map@x:
   498                           
   499                           ; 1 bytes @ 0x4E
   500  006E                     	ds	1
   501                           
   502                           	psect	maintext
   503  0C33                     __pmaintext:	
   504 ;;
   505 ;;Main: autosize = 0, tempsize = 1, incstack = 0, save=0
   506 ;;
   507 ;; *************** function _main *****************
   508 ;; Defined at:
   509 ;;		line 75 in file "PWM.c"
   510 ;; Parameters:    Size  Location     Type
   511 ;;		None
   512 ;; Auto vars:     Size  Location     Type
   513 ;;		None
   514 ;; Return value:  Size  Location     Type
   515 ;;                  1    wreg      void 
   516 ;; Registers used:
   517 ;;		wreg, status,2, status,0, pclath, cstack
   518 ;; Tracked objects:
   519 ;;		On entry : B00/0
   520 ;;		On exit  : 0/0
   521 ;;		Unchanged: 0/0
   522 ;; Data sizes:     COMMON   BANK0   BANK1   BANK3   BANK2
   523 ;;      Params:         0       0       0       0       0
   524 ;;      Locals:         0       0       0       0       0
   525 ;;      Temps:          0       0       1       0       0
   526 ;;      Totals:         0       0       1       0       0
   527 ;;Total ram usage:        1 bytes
   528 ;; Hardware stack levels required when called: 5
   529 ;; This function calls:
   530 ;;		_setup
   531 ;; This function is called by:
   532 ;;		Startup code after reset
   533 ;; This function uses a non-reentrant model
   534 ;;
   535                           
   536  0C33                     _main:	
   537                           ;psect for function _main
   538                           
   539  0C33                     l2089:	
   540                           ;incstack = 0
   541                           ; Regs used in _main: [wreg+status,2+status,0+pclath+cstack]
   542                           
   543                           
   544                           ;PWM.c: 76:     setup();
   545  0C33  120A  158A  2483  120A  158A  	fcall	_setup
   546  0C38                     l2091:
   547                           
   548                           ;PWM.c: 78:         if(ADCON0bits.GO == 0){
   549  0C38  1283               	bcf	3,5	;RP0=0, select bank0
   550  0C39  1303               	bcf	3,6	;RP1=0, select bank0
   551  0C3A  189F               	btfsc	31,1	;volatile
   552  0C3B  2C3D               	goto	u2991
   553  0C3C  2C3E               	goto	u2990
   554  0C3D                     u2991:
   555  0C3D  2C38               	goto	l2091
   556  0C3E                     u2990:
   557  0C3E                     l2093:
   558                           
   559                           ;PWM.c: 79:             if(ADCON0bits.CHS == 0b0000)
   560  0C3E  0C1F               	rrf	31,w	;volatile
   561  0C3F  1683               	bsf	3,5	;RP0=1, select bank1
   562  0C40  1303               	bcf	3,6	;RP1=0, select bank1
   563  0C41  00B1               	movwf	??_main^(0+128)
   564  0C42  0C31               	rrf	??_main^(0+128),w
   565  0C43  390F               	andlw	15
   566  0C44  3A00               	xorlw	0
   567  0C45  1D03               	skipz
   568  0C46  2C48               	goto	u3001
   569  0C47  2C49               	goto	u3000
   570  0C48                     u3001:
   571  0C48  2C50               	goto	l2097
   572  0C49                     u3000:
   573  0C49                     l2095:
   574                           
   575                           ;PWM.c: 80:                 ADCON0bits.CHS = 0b0001;
   576  0C49  1283               	bcf	3,5	;RP0=0, select bank0
   577  0C4A  1303               	bcf	3,6	;RP1=0, select bank0
   578  0C4B  081F               	movf	31,w	;volatile
   579  0C4C  39C3               	andlw	-61
   580  0C4D  3804               	iorlw	4
   581  0C4E  009F               	movwf	31	;volatile
   582  0C4F  2C75               	goto	l2105
   583  0C50                     l2097:
   584  0C50  1283               	bcf	3,5	;RP0=0, select bank0
   585  0C51  1303               	bcf	3,6	;RP1=0, select bank0
   586  0C52  0C1F               	rrf	31,w	;volatile
   587  0C53  1683               	bsf	3,5	;RP0=1, select bank1
   588  0C54  1303               	bcf	3,6	;RP1=0, select bank1
   589  0C55  00B1               	movwf	??_main^(0+128)
   590  0C56  0C31               	rrf	??_main^(0+128),w
   591  0C57  390F               	andlw	15
   592  0C58  3A01               	xorlw	1
   593  0C59  1D03               	skipz
   594  0C5A  2C5C               	goto	u3011
   595  0C5B  2C5D               	goto	u3010
   596  0C5C                     u3011:
   597  0C5C  2C64               	goto	l2101
   598  0C5D                     u3010:
   599  0C5D                     l2099:
   600                           
   601                           ;PWM.c: 82:                 ADCON0bits.CHS = 0b0010;
   602  0C5D  1283               	bcf	3,5	;RP0=0, select bank0
   603  0C5E  1303               	bcf	3,6	;RP1=0, select bank0
   604  0C5F  081F               	movf	31,w	;volatile
   605  0C60  39C3               	andlw	-61
   606  0C61  3808               	iorlw	8
   607  0C62  009F               	movwf	31	;volatile
   608  0C63  2C75               	goto	l2105
   609  0C64                     l2101:
   610  0C64  1283               	bcf	3,5	;RP0=0, select bank0
   611  0C65  1303               	bcf	3,6	;RP1=0, select bank0
   612  0C66  0C1F               	rrf	31,w	;volatile
   613  0C67  1683               	bsf	3,5	;RP0=1, select bank1
   614  0C68  1303               	bcf	3,6	;RP1=0, select bank1
   615  0C69  00B1               	movwf	??_main^(0+128)
   616  0C6A  0C31               	rrf	??_main^(0+128),w
   617  0C6B  390F               	andlw	15
   618  0C6C  3A02               	xorlw	2
   619  0C6D  1D03               	skipz
   620  0C6E  2C70               	goto	u3021
   621  0C6F  2C71               	goto	u3020
   622  0C70                     u3021:
   623  0C70  2C75               	goto	l2105
   624  0C71                     u3020:
   625  0C71                     l2103:
   626                           
   627                           ;PWM.c: 84:                 ADCON0bits.CHS = 0b0000;
   628  0C71  30C3               	movlw	-61
   629  0C72  1283               	bcf	3,5	;RP0=0, select bank0
   630  0C73  1303               	bcf	3,6	;RP1=0, select bank0
   631  0C74  059F               	andwf	31,f	;volatile
   632  0C75                     l2105:
   633                           
   634                           ;PWM.c: 86:             _delay((unsigned long)((40)*(1000000/4000000.0)));
   635  0C75  3002               	movlw	2
   636  0C76  1683               	bsf	3,5	;RP0=1, select bank1
   637  0C77  1303               	bcf	3,6	;RP1=0, select bank1
   638  0C78  00B1               	movwf	??_main^(0+128)
   639  0C79                     u3037:
   640  0C79  0BB1               	decfsz	??_main^(0+128),f
   641  0C7A  2C79               	goto	u3037
   642  0C7B  0000               	nop
   643  0C7C                     l2107:
   644                           
   645                           ;PWM.c: 87:             ADCON0bits.GO = 1;
   646  0C7C  1283               	bcf	3,5	;RP0=0, select bank0
   647  0C7D  1303               	bcf	3,6	;RP1=0, select bank0
   648  0C7E  149F               	bsf	31,1	;volatile
   649  0C7F  2C38               	goto	l2091
   650  0C80  120A  118A  2810   	ljmp	start
   651  0C83                     __end_of_main:
   652                           
   653                           	psect	text1
   654  0C83                     __ptext1:	
   655 ;; *************** function _setup *****************
   656 ;; Defined at:
   657 ;;		line 93 in file "PWM.c"
   658 ;; Parameters:    Size  Location     Type
   659 ;;		None
   660 ;; Auto vars:     Size  Location     Type
   661 ;;		None
   662 ;; Return value:  Size  Location     Type
   663 ;;                  1    wreg      void 
   664 ;; Registers used:
   665 ;;		wreg, status,2, status,0
   666 ;; Tracked objects:
   667 ;;		On entry : 0/0
   668 ;;		On exit  : 0/0
   669 ;;		Unchanged: 0/0
   670 ;; Data sizes:     COMMON   BANK0   BANK1   BANK3   BANK2
   671 ;;      Params:         0       0       0       0       0
   672 ;;      Locals:         0       0       0       0       0
   673 ;;      Temps:          0       0       1       0       0
   674 ;;      Totals:         0       0       1       0       0
   675 ;;Total ram usage:        1 bytes
   676 ;; Hardware stack levels used: 1
   677 ;; Hardware stack levels required when called: 4
   678 ;; This function calls:
   679 ;;		Nothing
   680 ;; This function is called by:
   681 ;;		_main
   682 ;; This function uses a non-reentrant model
   683 ;;
   684                           
   685  0C83                     _setup:	
   686                           ;psect for function _setup
   687                           
   688  0C83                     l1975:	
   689                           ;incstack = 0
   690                           ; Regs used in _setup: [wreg+status,2+status,0]
   691                           
   692                           
   693                           ;PWM.c: 94:     ANSEL =0b00000111;
   694  0C83  3007               	movlw	7
   695  0C84  1683               	bsf	3,5	;RP0=1, select bank3
   696  0C85  1703               	bsf	3,6	;RP1=1, select bank3
   697  0C86  0088               	movwf	8	;volatile
   698  0C87                     l1977:
   699                           
   700                           ;PWM.c: 95:     ANSELH = 0x00;
   701  0C87  0189               	clrf	9	;volatile
   702  0C88                     l1979:
   703                           
   704                           ;PWM.c: 97:     OSCCONbits.IRCF = 0b0100;
   705  0C88  1683               	bsf	3,5	;RP0=1, select bank1
   706  0C89  1303               	bcf	3,6	;RP1=0, select bank1
   707  0C8A  080F               	movf	15,w	;volatile
   708  0C8B  398F               	andlw	-113
   709  0C8C  3840               	iorlw	64
   710  0C8D  008F               	movwf	15	;volatile
   711  0C8E                     l1981:
   712                           
   713                           ;PWM.c: 98:     OSCCONbits.SCS = 1;
   714  0C8E  140F               	bsf	15,0	;volatile
   715  0C8F                     l1983:
   716                           
   717                           ;PWM.c: 100:     TRISA = 0b00000111;
   718  0C8F  3007               	movlw	7
   719  0C90  0085               	movwf	5	;volatile
   720  0C91                     l1985:
   721                           
   722                           ;PWM.c: 101:     PORTA = 0x00;
   723  0C91  1283               	bcf	3,5	;RP0=0, select bank0
   724  0C92  1303               	bcf	3,6	;RP1=0, select bank0
   725  0C93  0185               	clrf	5	;volatile
   726  0C94                     l1987:
   727                           
   728                           ;PWM.c: 102:     TRISCbits.TRISC3 = 0;
   729  0C94  1683               	bsf	3,5	;RP0=1, select bank1
   730  0C95  1303               	bcf	3,6	;RP1=0, select bank1
   731  0C96  1187               	bcf	7,3	;volatile
   732  0C97                     l1989:
   733                           
   734                           ;PWM.c: 103:     PORTC = 0x00;
   735  0C97  1283               	bcf	3,5	;RP0=0, select bank0
   736  0C98  1303               	bcf	3,6	;RP1=0, select bank0
   737  0C99  0187               	clrf	7	;volatile
   738  0C9A                     l1991:
   739                           
   740                           ;PWM.c: 105:     OPTION_REGbits.T0CS = 0;
   741  0C9A  1683               	bsf	3,5	;RP0=1, select bank1
   742  0C9B  1303               	bcf	3,6	;RP1=0, select bank1
   743  0C9C  1281               	bcf	1,5	;volatile
   744  0C9D                     l1993:
   745                           
   746                           ;PWM.c: 106:     OPTION_REGbits.PSA = 0;
   747  0C9D  1181               	bcf	1,3	;volatile
   748  0C9E                     l1995:
   749                           
   750                           ;PWM.c: 107:     OPTION_REGbits.PS2 = 1;
   751  0C9E  1501               	bsf	1,2	;volatile
   752  0C9F                     l1997:
   753                           
   754                           ;PWM.c: 108:     OPTION_REGbits.PS1 = 1;
   755  0C9F  1481               	bsf	1,1	;volatile
   756  0CA0                     l1999:
   757                           
   758                           ;PWM.c: 109:     OPTION_REGbits.PS0 = 1;
   759  0CA0  1401               	bsf	1,0	;volatile
   760  0CA1                     l2001:
   761                           
   762                           ;PWM.c: 110:     TMR0 = 255;
   763  0CA1  30FF               	movlw	255
   764  0CA2  1283               	bcf	3,5	;RP0=0, select bank0
   765  0CA3  1303               	bcf	3,6	;RP1=0, select bank0
   766  0CA4  0081               	movwf	1	;volatile
   767  0CA5                     l2003:
   768                           
   769                           ;PWM.c: 114:     ADCON0bits.ADCS = 0b00;
   770  0CA5  303F               	movlw	-193
   771  0CA6  059F               	andwf	31,f	;volatile
   772  0CA7                     l2005:
   773                           
   774                           ;PWM.c: 116:     ADCON1bits.VCFG0 = 0;
   775  0CA7  1683               	bsf	3,5	;RP0=1, select bank1
   776  0CA8  1303               	bcf	3,6	;RP1=0, select bank1
   777  0CA9  121F               	bcf	31,4	;volatile
   778  0CAA                     l2007:
   779                           
   780                           ;PWM.c: 117:     ADCON1bits.VCFG1 = 0;
   781  0CAA  129F               	bcf	31,5	;volatile
   782  0CAB                     l2009:
   783                           
   784                           ;PWM.c: 119:     ADCON0bits.CHS = 0b0000;
   785  0CAB  30C3               	movlw	-61
   786  0CAC  1283               	bcf	3,5	;RP0=0, select bank0
   787  0CAD  1303               	bcf	3,6	;RP1=0, select bank0
   788  0CAE  059F               	andwf	31,f	;volatile
   789  0CAF                     l2011:
   790                           
   791                           ;PWM.c: 120:     ADCON1bits.ADFM = 0;
   792  0CAF  1683               	bsf	3,5	;RP0=1, select bank1
   793  0CB0  1303               	bcf	3,6	;RP1=0, select bank1
   794  0CB1  139F               	bcf	31,7	;volatile
   795  0CB2                     l2013:
   796                           
   797                           ;PWM.c: 121:     ADCON0bits.ADON = 1;
   798  0CB2  1283               	bcf	3,5	;RP0=0, select bank0
   799  0CB3  1303               	bcf	3,6	;RP1=0, select bank0
   800  0CB4  141F               	bsf	31,0	;volatile
   801  0CB5                     l2015:
   802                           
   803                           ;PWM.c: 122:     _delay((unsigned long)((40)*(1000000/4000000.0)));
   804  0CB5  3002               	movlw	2
   805  0CB6  1683               	bsf	3,5	;RP0=1, select bank1
   806  0CB7  1303               	bcf	3,6	;RP1=0, select bank1
   807  0CB8  00B0               	movwf	??_setup^(0+128)
   808  0CB9                     u3047:
   809  0CB9  0BB0               	decfsz	??_setup^(0+128),f
   810  0CBA  2CB9               	goto	u3047
   811  0CBB  0000               	nop
   812  0CBC                     l2017:
   813                           
   814                           ;PWM.c: 125:     TRISCbits.TRISC2 = 1;
   815  0CBC  1683               	bsf	3,5	;RP0=1, select bank1
   816  0CBD  1303               	bcf	3,6	;RP1=0, select bank1
   817  0CBE  1507               	bsf	7,2	;volatile
   818  0CBF                     l2019:
   819                           
   820                           ;PWM.c: 126:     TRISCbits.TRISC1 = 1;
   821  0CBF  1487               	bsf	7,1	;volatile
   822  0CC0                     l2021:
   823                           
   824                           ;PWM.c: 127:     PR2 = 155;
   825  0CC0  309B               	movlw	155
   826  0CC1  0092               	movwf	18	;volatile
   827  0CC2                     l2023:
   828                           
   829                           ;PWM.c: 130:     CCP1CON = 0;
   830  0CC2  1283               	bcf	3,5	;RP0=0, select bank0
   831  0CC3  1303               	bcf	3,6	;RP1=0, select bank0
   832  0CC4  0197               	clrf	23	;volatile
   833  0CC5                     l2025:
   834                           
   835                           ;PWM.c: 131:     CCP2CON = 0;
   836  0CC5  019D               	clrf	29	;volatile
   837  0CC6                     l2027:
   838                           
   839                           ;PWM.c: 132:     CCP1CONbits.P1M = 0;
   840  0CC6  303F               	movlw	-193
   841  0CC7  0597               	andwf	23,f	;volatile
   842  0CC8                     l2029:
   843                           
   844                           ;PWM.c: 133:     CCP1CONbits.CCP1M = 0b1100;
   845  0CC8  0817               	movf	23,w	;volatile
   846  0CC9  39F0               	andlw	-16
   847  0CCA  380C               	iorlw	12
   848  0CCB  0097               	movwf	23	;volatile
   849  0CCC                     l2031:
   850                           
   851                           ;PWM.c: 134:     CCP2CONbits.CCP2M = 0b1100;
   852  0CCC  081D               	movf	29,w	;volatile
   853  0CCD  39F0               	andlw	-16
   854  0CCE  380C               	iorlw	12
   855  0CCF  009D               	movwf	29	;volatile
   856  0CD0                     l2033:
   857                           
   858                           ;PWM.c: 136:     CCPR1L = 125>>2;
   859  0CD0  301F               	movlw	31
   860  0CD1  0095               	movwf	21	;volatile
   861  0CD2                     l2035:
   862                           
   863                           ;PWM.c: 137:     CCP1CONbits.DC1B = 125 & 0b11;
   864  0CD2  0817               	movf	23,w	;volatile
   865  0CD3  39CF               	andlw	-49
   866  0CD4  3810               	iorlw	16
   867  0CD5  0097               	movwf	23	;volatile
   868  0CD6                     l2037:
   869                           
   870                           ;PWM.c: 139:     CCPR2L = 125>>2;
   871  0CD6  301F               	movlw	31
   872  0CD7  009B               	movwf	27	;volatile
   873  0CD8                     l2039:
   874                           
   875                           ;PWM.c: 140:     CCP2CONbits.DC2B0 = 125 & 0b1;
   876  0CD8  161D               	bsf	29,4	;volatile
   877  0CD9                     l2041:
   878                           
   879                           ;PWM.c: 141:     CCP2CONbits.DC2B1 = 125 & 0b1;
   880  0CD9  169D               	bsf	29,5	;volatile
   881  0CDA                     l2043:
   882                           
   883                           ;PWM.c: 143:     PIR1bits.TMR2IF = 0;
   884  0CDA  108C               	bcf	12,1	;volatile
   885  0CDB                     l2045:
   886                           
   887                           ;PWM.c: 144:     T2CONbits.T2CKPS = 0b11;
   888  0CDB  3003               	movlw	3
   889  0CDC  0492               	iorwf	18,f	;volatile
   890  0CDD                     l2047:
   891                           
   892                           ;PWM.c: 145:     T2CONbits.TMR2ON = 1;
   893  0CDD  1512               	bsf	18,2	;volatile
   894  0CDE                     l95:	
   895                           ;PWM.c: 146:     while(!PIR1bits.TMR2IF);
   896                           
   897  0CDE  1C8C               	btfss	12,1	;volatile
   898  0CDF  2CE1               	goto	u2911
   899  0CE0  2CE2               	goto	u2910
   900  0CE1                     u2911:
   901  0CE1  2CDE               	goto	l95
   902  0CE2                     u2910:
   903  0CE2                     l97:
   904                           
   905                           ;PWM.c: 147:     PIR1bits.TMR2IF = 0;
   906  0CE2  108C               	bcf	12,1	;volatile
   907                           
   908                           ;PWM.c: 149:     TRISCbits.TRISC2 = 0;
   909  0CE3  1683               	bsf	3,5	;RP0=1, select bank1
   910  0CE4  1303               	bcf	3,6	;RP1=0, select bank1
   911  0CE5  1107               	bcf	7,2	;volatile
   912                           
   913                           ;PWM.c: 150:     TRISCbits.TRISC1 = 0;
   914  0CE6  1087               	bcf	7,1	;volatile
   915                           
   916                           ;PWM.c: 153:     PIR1bits.ADIF = 0;
   917  0CE7  1283               	bcf	3,5	;RP0=0, select bank0
   918  0CE8  1303               	bcf	3,6	;RP1=0, select bank0
   919  0CE9  130C               	bcf	12,6	;volatile
   920                           
   921                           ;PWM.c: 154:     PIE1bits.ADIE = 1;
   922  0CEA  1683               	bsf	3,5	;RP0=1, select bank1
   923  0CEB  1303               	bcf	3,6	;RP1=0, select bank1
   924  0CEC  170C               	bsf	12,6	;volatile
   925                           
   926                           ;PWM.c: 155:     INTCONbits.PEIE = 1;
   927  0CED  170B               	bsf	11,6	;volatile
   928                           
   929                           ;PWM.c: 156:     INTCONbits.GIE = 1;
   930  0CEE  178B               	bsf	11,7	;volatile
   931                           
   932                           ;PWM.c: 157:     INTCONbits.T0IF = 0;
   933  0CEF  110B               	bcf	11,2	;volatile
   934                           
   935                           ;PWM.c: 158:     INTCONbits.T0IE = 1;
   936  0CF0  168B               	bsf	11,5	;volatile
   937  0CF1                     l98:	
   938                           ;PWM.c: 159:     return;
   939                           
   940  0CF1  0008               	return
   941  0CF2                     __end_of_setup:
   942                           
   943                           	psect	text2
   944  0EFA                     __ptext2:	
   945 ;; *************** function _isr *****************
   946 ;; Defined at:
   947 ;;		line 40 in file "PWM.c"
   948 ;; Parameters:    Size  Location     Type
   949 ;;		None
   950 ;; Auto vars:     Size  Location     Type
   951 ;;		None
   952 ;; Return value:  Size  Location     Type
   953 ;;                  1    wreg      void 
   954 ;; Registers used:
   955 ;;		wreg, status,2, status,0, btemp+1, pclath, cstack
   956 ;; Tracked objects:
   957 ;;		On entry : 0/0
   958 ;;		On exit  : 0/0
   959 ;;		Unchanged: 0/0
   960 ;; Data sizes:     COMMON   BANK0   BANK1   BANK3   BANK2
   961 ;;      Params:         0       0       0       0       0
   962 ;;      Locals:         0       0       0       0       0
   963 ;;      Temps:          0       0       5       0       0
   964 ;;      Totals:         0       0       5       0       0
   965 ;;Total ram usage:        5 bytes
   966 ;; Hardware stack levels used: 1
   967 ;; Hardware stack levels required when called: 3
   968 ;; This function calls:
   969 ;;		_map
   970 ;; This function is called by:
   971 ;;		Interrupt level 1
   972 ;; This function uses a non-reentrant model
   973 ;;
   974                           
   975  0EFA                     _isr:	
   976                           ;psect for function _isr
   977                           
   978  0EFA                     i1l2049:
   979                           
   980                           ;PWM.c: 41:     if(PIR1bits.ADIF){
   981  0EFA  1283               	bcf	3,5	;RP0=0, select bank0
   982  0EFB  1303               	bcf	3,6	;RP1=0, select bank0
   983  0EFC  1F0C               	btfss	12,6	;volatile
   984  0EFD  2EFF               	goto	u292_21
   985  0EFE  2F00               	goto	u292_20
   986  0EFF                     u292_21:
   987  0EFF  2FDB               	goto	i1l67
   988  0F00                     u292_20:
   989  0F00                     i1l2051:
   990                           
   991                           ;PWM.c: 42:         if(ADCON0bits.CHS == 0){
   992  0F00  0C1F               	rrf	31,w	;volatile
   993  0F01  1683               	bsf	3,5	;RP0=1, select bank1
   994  0F02  1303               	bcf	3,6	;RP1=0, select bank1
   995  0F03  00AB               	movwf	??_isr^(0+128)
   996  0F04  0C2B               	rrf	??_isr^(0+128),w
   997  0F05  390F               	andlw	15
   998  0F06  3A00               	xorlw	0
   999  0F07  1D03               	skipz
  1000  0F08  2F0A               	goto	u293_21
  1001  0F09  2F0B               	goto	u293_20
  1002  0F0A                     u293_21:
  1003  0F0A  2F46               	goto	i1l2059
  1004  0F0B                     u293_20:
  1005  0F0B                     i1l2053:
  1006                           
  1007                           ;PWM.c: 43:             CCP1 = map(ADRESH, 0, 255, 62, 125);
  1008  0F0B  01A5               	clrf	map@x0^(0+128)
  1009  0F0C  30FF               	movlw	255
  1010  0F0D  00AB               	movwf	??_isr^(0+128)
  1011  0F0E  082B               	movf	??_isr^(0+128),w
  1012  0F0F  00A6               	movwf	map@x1^(0+128)
  1013  0F10  303E               	movlw	62
  1014  0F11  00A7               	movwf	map@y0^(0+128)
  1015  0F12  3000               	movlw	0
  1016  0F13  00A8               	movwf	(map@y0^(0+128)+1)
  1017  0F14  307D               	movlw	125
  1018  0F15  00A9               	movwf	map@y1^(0+128)
  1019  0F16  3000               	movlw	0
  1020  0F17  00AA               	movwf	(map@y1^(0+128)+1)
  1021  0F18  1283               	bcf	3,5	;RP0=0, select bank0
  1022  0F19  1303               	bcf	3,6	;RP1=0, select bank0
  1023  0F1A  081E               	movf	30,w	;volatile
  1024  0F1B  120A  158A  258E  120A  158A  	fcall	_map
  1025  0F20  1683               	bsf	3,5	;RP0=1, select bank1
  1026  0F21  1303               	bcf	3,6	;RP1=0, select bank1
  1027  0F22  0826               	movf	(?_map+1)^(0+128),w
  1028  0F23  00B9               	movwf	(_CCP1+1)^(0+128)
  1029  0F24  0825               	movf	?_map^(0+128),w
  1030  0F25  00B8               	movwf	_CCP1^(0+128)
  1031  0F26                     i1l2055:
  1032                           
  1033                           ;PWM.c: 44:             CCPR1L = (uint8_t)(CCP1>>2);
  1034  0F26  0839               	movf	(_CCP1+1)^(0+128),w
  1035  0F27  00AC               	movwf	(??_isr^(0+128)+1)
  1036  0F28  0838               	movf	_CCP1^(0+128),w
  1037  0F29  00AB               	movwf	??_isr^(0+128)
  1038  0F2A  1003               	clrc
  1039  0F2B  0CAC               	rrf	(??_isr^(0+128)+1),f
  1040  0F2C  0CAB               	rrf	??_isr^(0+128),f
  1041  0F2D  1003               	clrc
  1042  0F2E  0CAC               	rrf	(??_isr^(0+128)+1),f
  1043  0F2F  0CAB               	rrf	??_isr^(0+128),f
  1044  0F30  082B               	movf	??_isr^(0+128),w
  1045  0F31  1283               	bcf	3,5	;RP0=0, select bank0
  1046  0F32  1303               	bcf	3,6	;RP1=0, select bank0
  1047  0F33  0095               	movwf	21	;volatile
  1048  0F34                     i1l2057:
  1049                           
  1050                           ;PWM.c: 45:             CCP1CONbits.DC1B = CCP1 & 0b11;
  1051  0F34  1683               	bsf	3,5	;RP0=1, select bank1
  1052  0F35  1303               	bcf	3,6	;RP1=0, select bank1
  1053  0F36  0838               	movf	_CCP1^(0+128),w
  1054  0F37  3903               	andlw	3
  1055  0F38  00AB               	movwf	??_isr^(0+128)
  1056  0F39  0EAB               	swapf	??_isr^(0+128),f
  1057  0F3A  1283               	bcf	3,5	;RP0=0, select bank0
  1058  0F3B  1303               	bcf	3,6	;RP1=0, select bank0
  1059  0F3C  0817               	movf	23,w	;volatile
  1060  0F3D  1683               	bsf	3,5	;RP0=1, select bank1
  1061  0F3E  1303               	bcf	3,6	;RP1=0, select bank1
  1062  0F3F  062B               	xorwf	??_isr^(0+128),w
  1063  0F40  39CF               	andlw	-49
  1064  0F41  062B               	xorwf	??_isr^(0+128),w
  1065  0F42  1283               	bcf	3,5	;RP0=0, select bank0
  1066  0F43  1303               	bcf	3,6	;RP1=0, select bank0
  1067  0F44  0097               	movwf	23	;volatile
  1068                           
  1069                           ;PWM.c: 46:         }else if(ADCON0bits.CHS == 1){
  1070  0F45  2FD8               	goto	i1l69
  1071  0F46                     i1l2059:
  1072  0F46  1283               	bcf	3,5	;RP0=0, select bank0
  1073  0F47  1303               	bcf	3,6	;RP1=0, select bank0
  1074  0F48  0C1F               	rrf	31,w	;volatile
  1075  0F49  1683               	bsf	3,5	;RP0=1, select bank1
  1076  0F4A  1303               	bcf	3,6	;RP1=0, select bank1
  1077  0F4B  00AB               	movwf	??_isr^(0+128)
  1078  0F4C  0C2B               	rrf	??_isr^(0+128),w
  1079  0F4D  390F               	andlw	15
  1080  0F4E  3A01               	xorlw	1
  1081  0F4F  1D03               	skipz
  1082  0F50  2F52               	goto	u294_21
  1083  0F51  2F53               	goto	u294_20
  1084  0F52                     u294_21:
  1085  0F52  2FA0               	goto	i1l2069
  1086  0F53                     u294_20:
  1087  0F53                     i1l2061:
  1088                           
  1089                           ;PWM.c: 47:             CCP2 = map(ADRESH, 0, 255, 62, 125);
  1090  0F53  01A5               	clrf	map@x0^(0+128)
  1091  0F54  30FF               	movlw	255
  1092  0F55  00AB               	movwf	??_isr^(0+128)
  1093  0F56  082B               	movf	??_isr^(0+128),w
  1094  0F57  00A6               	movwf	map@x1^(0+128)
  1095  0F58  303E               	movlw	62
  1096  0F59  00A7               	movwf	map@y0^(0+128)
  1097  0F5A  3000               	movlw	0
  1098  0F5B  00A8               	movwf	(map@y0^(0+128)+1)
  1099  0F5C  307D               	movlw	125
  1100  0F5D  00A9               	movwf	map@y1^(0+128)
  1101  0F5E  3000               	movlw	0
  1102  0F5F  00AA               	movwf	(map@y1^(0+128)+1)
  1103  0F60  1283               	bcf	3,5	;RP0=0, select bank0
  1104  0F61  1303               	bcf	3,6	;RP1=0, select bank0
  1105  0F62  081E               	movf	30,w	;volatile
  1106  0F63  120A  158A  258E  120A  158A  	fcall	_map
  1107  0F68  1683               	bsf	3,5	;RP0=1, select bank1
  1108  0F69  1303               	bcf	3,6	;RP1=0, select bank1
  1109  0F6A  0826               	movf	(?_map+1)^(0+128),w
  1110  0F6B  00B7               	movwf	(_CCP2+1)^(0+128)
  1111  0F6C  0825               	movf	?_map^(0+128),w
  1112  0F6D  00B6               	movwf	_CCP2^(0+128)
  1113  0F6E                     i1l2063:
  1114                           
  1115                           ;PWM.c: 48:             CCPR2L = (uint8_t)(CCP2>>2);
  1116  0F6E  0837               	movf	(_CCP2+1)^(0+128),w
  1117  0F6F  00AC               	movwf	(??_isr^(0+128)+1)
  1118  0F70  0836               	movf	_CCP2^(0+128),w
  1119  0F71  00AB               	movwf	??_isr^(0+128)
  1120  0F72  1003               	clrc
  1121  0F73  0CAC               	rrf	(??_isr^(0+128)+1),f
  1122  0F74  0CAB               	rrf	??_isr^(0+128),f
  1123  0F75  1003               	clrc
  1124  0F76  0CAC               	rrf	(??_isr^(0+128)+1),f
  1125  0F77  0CAB               	rrf	??_isr^(0+128),f
  1126  0F78  082B               	movf	??_isr^(0+128),w
  1127  0F79  1283               	bcf	3,5	;RP0=0, select bank0
  1128  0F7A  1303               	bcf	3,6	;RP1=0, select bank0
  1129  0F7B  009B               	movwf	27	;volatile
  1130  0F7C                     i1l2065:
  1131                           
  1132                           ;PWM.c: 49:             CCP2CONbits.DC2B0 = CCP2 & 0b01;
  1133  0F7C  1683               	bsf	3,5	;RP0=1, select bank1
  1134  0F7D  1303               	bcf	3,6	;RP1=0, select bank1
  1135  0F7E  0836               	movf	_CCP2^(0+128),w
  1136  0F7F  3901               	andlw	1
  1137  0F80  00AB               	movwf	??_isr^(0+128)
  1138  0F81  0EAB               	swapf	??_isr^(0+128),f
  1139  0F82  1283               	bcf	3,5	;RP0=0, select bank0
  1140  0F83  1303               	bcf	3,6	;RP1=0, select bank0
  1141  0F84  081D               	movf	29,w	;volatile
  1142  0F85  1683               	bsf	3,5	;RP0=1, select bank1
  1143  0F86  1303               	bcf	3,6	;RP1=0, select bank1
  1144  0F87  062B               	xorwf	??_isr^(0+128),w
  1145  0F88  39EF               	andlw	-17
  1146  0F89  062B               	xorwf	??_isr^(0+128),w
  1147  0F8A  1283               	bcf	3,5	;RP0=0, select bank0
  1148  0F8B  1303               	bcf	3,6	;RP1=0, select bank0
  1149  0F8C  009D               	movwf	29	;volatile
  1150  0F8D                     i1l2067:
  1151                           
  1152                           ;PWM.c: 50:             CCP2CONbits.DC2B1 = CCP2 & 0b10;
  1153  0F8D  1683               	bsf	3,5	;RP0=1, select bank1
  1154  0F8E  1303               	bcf	3,6	;RP1=0, select bank1
  1155  0F8F  0836               	movf	_CCP2^(0+128),w
  1156  0F90  3902               	andlw	2
  1157  0F91  00AB               	movwf	??_isr^(0+128)
  1158  0F92  0EAB               	swapf	??_isr^(0+128),f
  1159  0F93  0DAB               	rlf	??_isr^(0+128),f
  1160  0F94  1283               	bcf	3,5	;RP0=0, select bank0
  1161  0F95  1303               	bcf	3,6	;RP1=0, select bank0
  1162  0F96  081D               	movf	29,w	;volatile
  1163  0F97  1683               	bsf	3,5	;RP0=1, select bank1
  1164  0F98  1303               	bcf	3,6	;RP1=0, select bank1
  1165  0F99  062B               	xorwf	??_isr^(0+128),w
  1166  0F9A  39DF               	andlw	-33
  1167  0F9B  062B               	xorwf	??_isr^(0+128),w
  1168  0F9C  1283               	bcf	3,5	;RP0=0, select bank0
  1169  0F9D  1303               	bcf	3,6	;RP1=0, select bank0
  1170  0F9E  009D               	movwf	29	;volatile
  1171                           
  1172                           ;PWM.c: 51:         }else if(ADCON0bits.CHS == 2){
  1173  0F9F  2FD8               	goto	i1l69
  1174  0FA0                     i1l2069:
  1175  0FA0  1283               	bcf	3,5	;RP0=0, select bank0
  1176  0FA1  1303               	bcf	3,6	;RP1=0, select bank0
  1177  0FA2  0C1F               	rrf	31,w	;volatile
  1178  0FA3  1683               	bsf	3,5	;RP0=1, select bank1
  1179  0FA4  1303               	bcf	3,6	;RP1=0, select bank1
  1180  0FA5  00AB               	movwf	??_isr^(0+128)
  1181  0FA6  0C2B               	rrf	??_isr^(0+128),w
  1182  0FA7  390F               	andlw	15
  1183  0FA8  3A02               	xorlw	2
  1184  0FA9  1D03               	skipz
  1185  0FAA  2FAC               	goto	u295_21
  1186  0FAB  2FAD               	goto	u295_20
  1187  0FAC                     u295_21:
  1188  0FAC  2FD8               	goto	i1l69
  1189  0FAD                     u295_20:
  1190  0FAD                     i1l2071:
  1191                           
  1192                           ;PWM.c: 52:             pot = map(ADRESH, 0, 255, 0, 2);
  1193  0FAD  01A5               	clrf	map@x0^(0+128)
  1194  0FAE  30FF               	movlw	255
  1195  0FAF  00AB               	movwf	??_isr^(0+128)
  1196  0FB0  082B               	movf	??_isr^(0+128),w
  1197  0FB1  00A6               	movwf	map@x1^(0+128)
  1198  0FB2  3000               	movlw	0
  1199  0FB3  00A7               	movwf	map@y0^(0+128)
  1200  0FB4  00A8               	movwf	(map@y0+1)^(0+128)
  1201  0FB5  3002               	movlw	2
  1202  0FB6  00A9               	movwf	map@y1^(0+128)
  1203  0FB7  3000               	movlw	0
  1204  0FB8  00AA               	movwf	(map@y1^(0+128)+1)
  1205  0FB9  1283               	bcf	3,5	;RP0=0, select bank0
  1206  0FBA  1303               	bcf	3,6	;RP1=0, select bank0
  1207  0FBB  081E               	movf	30,w	;volatile
  1208  0FBC  120A  158A  258E  120A  158A  	fcall	_map
  1209  0FC1  1683               	bsf	3,5	;RP0=1, select bank1
  1210  0FC2  1303               	bcf	3,6	;RP1=0, select bank1
  1211  0FC3  0826               	movf	(?_map+1)^(0+128),w
  1212  0FC4  00B3               	movwf	(_pot+1)^(0+128)
  1213  0FC5  0825               	movf	?_map^(0+128),w
  1214  0FC6  00B2               	movwf	_pot^(0+128)
  1215  0FC7                     i1l2073:
  1216                           
  1217                           ;PWM.c: 54:             if(pot3 < pot)
  1218  0FC7  0833               	movf	(_pot+1)^(0+128),w
  1219  0FC8  0235               	subwf	(_pot3+1)^(0+128),w
  1220  0FC9  1D03               	skipz
  1221  0FCA  2FCD               	goto	u296_25
  1222  0FCB  0832               	movf	_pot^(0+128),w
  1223  0FCC  0234               	subwf	_pot3^(0+128),w
  1224  0FCD                     u296_25:
  1225  0FCD  1803               	skipnc
  1226  0FCE  2FD0               	goto	u296_21
  1227  0FCF  2FD1               	goto	u296_20
  1228  0FD0                     u296_21:
  1229  0FD0  2FD5               	goto	i1l73
  1230  0FD1                     u296_20:
  1231  0FD1                     i1l2075:
  1232                           
  1233                           ;PWM.c: 55:                 PORTCbits.RC3 = 1;
  1234  0FD1  1283               	bcf	3,5	;RP0=0, select bank0
  1235  0FD2  1303               	bcf	3,6	;RP1=0, select bank0
  1236  0FD3  1587               	bsf	7,3	;volatile
  1237  0FD4  2FD8               	goto	i1l69
  1238  0FD5                     i1l73:	
  1239                           ;PWM.c: 56:             else
  1240                           
  1241                           
  1242                           ;PWM.c: 57:                 PORTCbits.RC3 = 0;
  1243  0FD5  1283               	bcf	3,5	;RP0=0, select bank0
  1244  0FD6  1303               	bcf	3,6	;RP1=0, select bank0
  1245  0FD7  1187               	bcf	7,3	;volatile
  1246  0FD8                     i1l69:
  1247                           
  1248                           ;PWM.c: 60:         PIR1bits.ADIF = 0;
  1249  0FD8  1283               	bcf	3,5	;RP0=0, select bank0
  1250  0FD9  130C               	bcf	12,6	;volatile
  1251                           
  1252                           ;PWM.c: 61:     }
  1253  0FDA  2FF5               	goto	i1l78
  1254  0FDB                     i1l67:	
  1255                           ;PWM.c: 62:     else if(INTCONbits.T0IF){
  1256                           
  1257  0FDB  1D0B               	btfss	11,2	;volatile
  1258  0FDC  2FDE               	goto	u297_21
  1259  0FDD  2FDF               	goto	u297_20
  1260  0FDE                     u297_21:
  1261  0FDE  2FF5               	goto	i1l78
  1262  0FDF                     u297_20:
  1263  0FDF                     i1l2077:
  1264                           
  1265                           ;PWM.c: 63:         ++pot3;
  1266  0FDF  3001               	movlw	1
  1267  0FE0  1683               	bsf	3,5	;RP0=1, select bank1
  1268  0FE1  1303               	bcf	3,6	;RP1=0, select bank1
  1269  0FE2  07B4               	addwf	_pot3^(0+128),f
  1270  0FE3  1803               	skipnc
  1271  0FE4  0AB5               	incf	(_pot3+1)^(0+128),f
  1272  0FE5  3000               	movlw	0
  1273  0FE6  07B5               	addwf	(_pot3+1)^(0+128),f
  1274  0FE7                     i1l2079:
  1275                           
  1276                           ;PWM.c: 65:         if(pot3 == 20)
  1277  0FE7  3014               	movlw	20
  1278  0FE8  0634               	xorwf	_pot3^(0+128),w
  1279  0FE9  0435               	iorwf	(_pot3+1)^(0+128),w
  1280  0FEA  1D03               	btfss	3,2
  1281  0FEB  2FED               	goto	u298_21
  1282  0FEC  2FEE               	goto	u298_20
  1283  0FED                     u298_21:
  1284  0FED  2FF0               	goto	i1l2083
  1285  0FEE                     u298_20:
  1286  0FEE                     i1l2081:
  1287                           
  1288                           ;PWM.c: 66:             pot3=0;
  1289  0FEE  01B4               	clrf	_pot3^(0+128)
  1290  0FEF  01B5               	clrf	(_pot3+1)^(0+128)
  1291  0FF0                     i1l2083:
  1292                           
  1293                           ;PWM.c: 68:         INTCONbits.T0IF = 0;
  1294  0FF0  110B               	bcf	11,2	;volatile
  1295  0FF1                     i1l2085:
  1296                           
  1297                           ;PWM.c: 69:         TMR0 = 255;
  1298  0FF1  30FF               	movlw	255
  1299  0FF2  1283               	bcf	3,5	;RP0=0, select bank0
  1300  0FF3  1303               	bcf	3,6	;RP1=0, select bank0
  1301  0FF4  0081               	movwf	1	;volatile
  1302  0FF5                     i1l78:
  1303  0FF5  1683               	bsf	3,5	;RP0=1, select bank1
  1304  0FF6  1303               	bcf	3,6	;RP1=0, select bank1
  1305  0FF7  082F               	movf	(??_isr+4)^(0+128),w
  1306  0FF8  00FF               	movwf	btemp+1
  1307  0FF9  082E               	movf	(??_isr+3)^(0+128),w
  1308  0FFA  008A               	movwf	10
  1309  0FFB  0E2D               	swapf	(??_isr+2)^(0+128),w
  1310  0FFC  0083               	movwf	3
  1311  0FFD  0EFE               	swapf	btemp,f
  1312  0FFE  0E7E               	swapf	btemp,w
  1313  0FFF  0009               	retfie
  1314  1000                     __end_of_isr:
  1315                           
  1316                           	psect	intentry
  1317  0004                     __pintentry:	
  1318                           ;incstack = 0
  1319                           ; Regs used in _isr: [wreg+status,2+status,0+btemp+1+pclath+cstack]
  1320                           
  1321  0004                     interrupt_function:
  1322  007E                     saved_w	set	btemp
  1323  0004  00FE               	movwf	btemp
  1324  0005  0E03               	swapf	3,w
  1325  0006  1683               	bsf	3,5	;RP0=1, select bank1
  1326  0007  1303               	bcf	3,6	;RP1=0, select bank1
  1327  0008  00AD               	movwf	(??_isr+2)^(0+128)
  1328  0009  080A               	movf	10,w
  1329  000A  00AE               	movwf	(??_isr+3)^(0+128)
  1330  000B  087F               	movf	btemp+1,w
  1331  000C  00AF               	movwf	(??_isr+4)^(0+128)
  1332  000D  120A  158A  2EFA   	ljmp	_isr
  1333                           
  1334                           	psect	text3
  1335  0D8E                     __ptext3:	
  1336 ;; *************** function _map *****************
  1337 ;; Defined at:
  1338 ;;		line 164 in file "PWM.c"
  1339 ;; Parameters:    Size  Location     Type
  1340 ;;  x               1    wreg     unsigned char 
  1341 ;;  x0              1    5[BANK1 ] unsigned char 
  1342 ;;  x1              1    6[BANK1 ] unsigned char 
  1343 ;;  y0              2    7[BANK1 ] unsigned short 
  1344 ;;  y1              2    9[BANK1 ] unsigned short 
  1345 ;; Auto vars:     Size  Location     Type
  1346 ;;  x               1   78[BANK0 ] unsigned char 
  1347 ;; Return value:  Size  Location     Type
  1348 ;;                  2    5[BANK1 ] unsigned short 
  1349 ;; Registers used:
  1350 ;;		wreg, status,2, status,0, btemp+1, pclath, cstack
  1351 ;; Tracked objects:
  1352 ;;		On entry : 0/0
  1353 ;;		On exit  : 0/0
  1354 ;;		Unchanged: 0/0
  1355 ;; Data sizes:     COMMON   BANK0   BANK1   BANK3   BANK2
  1356 ;;      Params:         0       0       6       0       0
  1357 ;;      Locals:         0       1       0       0       0
  1358 ;;      Temps:          0       0       0       0       0
  1359 ;;      Totals:         0       1       6       0       0
  1360 ;;Total ram usage:        7 bytes
  1361 ;; Hardware stack levels used: 1
  1362 ;; Hardware stack levels required when called: 2
  1363 ;; This function calls:
  1364 ;;		___fladd
  1365 ;;		___fldiv
  1366 ;;		___flmul
  1367 ;;		___fltol
  1368 ;;		___xxtofl
  1369 ;; This function is called by:
  1370 ;;		_isr
  1371 ;; This function uses a non-reentrant model
  1372 ;;
  1373                           
  1374  0D8E                     _map:	
  1375                           ;psect for function _map
  1376                           
  1377                           
  1378                           ;incstack = 0
  1379                           ; Regs used in _map: [wreg+status,2+status,0+btemp+1+pclath+cstack]
  1380                           ;map@x stored from wreg
  1381  0D8E  1283               	bcf	3,5	;RP0=0, select bank0
  1382  0D8F  1303               	bcf	3,6	;RP1=0, select bank0
  1383  0D90  00EE               	movwf	map@x
  1384  0D91                     i1l1971:
  1385                           
  1386                           ;PWM.c: 164: unsigned short map(uint8_t x, uint8_t x0, uint8_t x1,;PWM.c: 165:          
      +                             unsigned short y0, unsigned short y1){;PWM.c: 166:     return (unsigned short)(y0+((f
      +                          loat)(y1-y0)/(x1-x0))*(x-x0));
  1387  0D91  1683               	bsf	3,5	;RP0=1, select bank1
  1388  0D92  1303               	bcf	3,6	;RP1=0, select bank1
  1389  0D93  0827               	movf	map@y0^(0+128),w
  1390  0D94  00F0               	movwf	___xxtofl@val
  1391  0D95  0828               	movf	(map@y0+1)^(0+128),w
  1392  0D96  00F1               	movwf	___xxtofl@val+1
  1393  0D97  01F2               	clrf	___xxtofl@val+2
  1394  0D98  01F3               	clrf	___xxtofl@val+3
  1395  0D99  3000               	movlw	0
  1396  0D9A  120A  158A  2640  120A  158A  	fcall	___xxtofl
  1397  0D9F  0873               	movf	?___xxtofl+3,w
  1398  0DA0  1283               	bcf	3,5	;RP0=0, select bank0
  1399  0DA1  1303               	bcf	3,6	;RP1=0, select bank0
  1400  0DA2  00DB               	movwf	___fladd@a+3
  1401  0DA3  0872               	movf	?___xxtofl+2,w
  1402  0DA4  00DA               	movwf	___fladd@a+2
  1403  0DA5  0871               	movf	?___xxtofl+1,w
  1404  0DA6  00D9               	movwf	___fladd@a+1
  1405  0DA7  0870               	movf	?___xxtofl,w
  1406  0DA8  00D8               	movwf	___fladd@a
  1407  0DA9  1683               	bsf	3,5	;RP0=1, select bank1
  1408  0DAA  1303               	bcf	3,6	;RP1=0, select bank1
  1409  0DAB  0827               	movf	map@y0^(0+128),w
  1410  0DAC  0229               	subwf	map@y1^(0+128),w
  1411  0DAD  00F0               	movwf	___xxtofl@val
  1412  0DAE  0828               	movf	(map@y0+1)^(0+128),w
  1413  0DAF  1C03               	skipc
  1414  0DB0  0A28               	incf	(map@y0+1)^(0+128),w
  1415  0DB1  022A               	subwf	(map@y1+1)^(0+128),w
  1416  0DB2  00F1               	movwf	___xxtofl@val+1
  1417  0DB3  01F2               	clrf	___xxtofl@val+2
  1418  0DB4  01F3               	clrf	___xxtofl@val+3
  1419  0DB5  3000               	movlw	0
  1420  0DB6  120A  158A  2640  120A  158A  	fcall	___xxtofl
  1421  0DBB  0873               	movf	?___xxtofl+3,w
  1422  0DBC  1283               	bcf	3,5	;RP0=0, select bank0
  1423  0DBD  1303               	bcf	3,6	;RP1=0, select bank0
  1424  0DBE  00A7               	movwf	___fldiv@b+3
  1425  0DBF  0872               	movf	?___xxtofl+2,w
  1426  0DC0  00A6               	movwf	___fldiv@b+2
  1427  0DC1  0871               	movf	?___xxtofl+1,w
  1428  0DC2  00A5               	movwf	___fldiv@b+1
  1429  0DC3  0870               	movf	?___xxtofl,w
  1430  0DC4  00A4               	movwf	___fldiv@b
  1431  0DC5  1683               	bsf	3,5	;RP0=1, select bank1
  1432  0DC6  1303               	bcf	3,6	;RP1=0, select bank1
  1433  0DC7  0825               	movf	map@x0^(0+128),w
  1434  0DC8  0226               	subwf	map@x1^(0+128),w
  1435  0DC9  00F0               	movwf	___xxtofl@val
  1436  0DCA  01F1               	clrf	___xxtofl@val+1
  1437  0DCB  1C03               	skipc
  1438  0DCC  03F1               	decf	___xxtofl@val+1,f
  1439  0DCD  01F2               	clrf	___xxtofl@val+2
  1440  0DCE  1BF1               	btfsc	___xxtofl@val+1,7
  1441  0DCF  03F2               	decf	___xxtofl@val+2,f
  1442  0DD0  0872               	movf	___xxtofl@val+2,w
  1443  0DD1  00F3               	movwf	___xxtofl@val+3
  1444  0DD2  3001               	movlw	1
  1445  0DD3  120A  158A  2640  120A  158A  	fcall	___xxtofl
  1446  0DD8  0873               	movf	?___xxtofl+3,w
  1447  0DD9  1283               	bcf	3,5	;RP0=0, select bank0
  1448  0DDA  1303               	bcf	3,6	;RP1=0, select bank0
  1449  0DDB  00A3               	movwf	___fldiv@a+3
  1450  0DDC  0872               	movf	?___xxtofl+2,w
  1451  0DDD  00A2               	movwf	___fldiv@a+2
  1452  0DDE  0871               	movf	?___xxtofl+1,w
  1453  0DDF  00A1               	movwf	___fldiv@a+1
  1454  0DE0  0870               	movf	?___xxtofl,w
  1455  0DE1  00A0               	movwf	___fldiv@a
  1456  0DE2  120A  118A  260A  120A  158A  	fcall	___fldiv
  1457  0DE7  1283               	bcf	3,5	;RP0=0, select bank0
  1458  0DE8  1303               	bcf	3,6	;RP1=0, select bank0
  1459  0DE9  0823               	movf	?___fldiv+3,w
  1460  0DEA  00C1               	movwf	___flmul@a+3
  1461  0DEB  0822               	movf	?___fldiv+2,w
  1462  0DEC  00C0               	movwf	___flmul@a+2
  1463  0DED  0821               	movf	?___fldiv+1,w
  1464  0DEE  00BF               	movwf	___flmul@a+1
  1465  0DEF  0820               	movf	?___fldiv,w
  1466  0DF0  00BE               	movwf	___flmul@a
  1467  0DF1  1683               	bsf	3,5	;RP0=1, select bank1
  1468  0DF2  1303               	bcf	3,6	;RP1=0, select bank1
  1469  0DF3  0825               	movf	map@x0^(0+128),w
  1470  0DF4  1283               	bcf	3,5	;RP0=0, select bank0
  1471  0DF5  1303               	bcf	3,6	;RP1=0, select bank0
  1472  0DF6  026E               	subwf	map@x,w
  1473  0DF7  00F0               	movwf	___xxtofl@val
  1474  0DF8  01F1               	clrf	___xxtofl@val+1
  1475  0DF9  1C03               	skipc
  1476  0DFA  03F1               	decf	___xxtofl@val+1,f
  1477  0DFB  01F2               	clrf	___xxtofl@val+2
  1478  0DFC  1BF1               	btfsc	___xxtofl@val+1,7
  1479  0DFD  03F2               	decf	___xxtofl@val+2,f
  1480  0DFE  0872               	movf	___xxtofl@val+2,w
  1481  0DFF  00F3               	movwf	___xxtofl@val+3
  1482  0E00  3001               	movlw	1
  1483  0E01  120A  158A  2640  120A  158A  	fcall	___xxtofl
  1484  0E06  0873               	movf	?___xxtofl+3,w
  1485  0E07  1283               	bcf	3,5	;RP0=0, select bank0
  1486  0E08  1303               	bcf	3,6	;RP1=0, select bank0
  1487  0E09  00BD               	movwf	___flmul@b+3
  1488  0E0A  0872               	movf	?___xxtofl+2,w
  1489  0E0B  00BC               	movwf	___flmul@b+2
  1490  0E0C  0871               	movf	?___xxtofl+1,w
  1491  0E0D  00BB               	movwf	___flmul@b+1
  1492  0E0E  0870               	movf	?___xxtofl,w
  1493  0E0F  00BA               	movwf	___flmul@b
  1494  0E10  120A  118A  2021  120A  158A  	fcall	___flmul
  1495  0E15  1283               	bcf	3,5	;RP0=0, select bank0
  1496  0E16  1303               	bcf	3,6	;RP1=0, select bank0
  1497  0E17  083D               	movf	?___flmul+3,w
  1498  0E18  00D7               	movwf	___fladd@b+3
  1499  0E19  083C               	movf	?___flmul+2,w
  1500  0E1A  00D6               	movwf	___fladd@b+2
  1501  0E1B  083B               	movf	?___flmul+1,w
  1502  0E1C  00D5               	movwf	___fladd@b+1
  1503  0E1D  083A               	movf	?___flmul,w
  1504  0E1E  00D4               	movwf	___fladd@b
  1505  0E1F  120A  118A  2382  120A  158A  	fcall	___fladd
  1506  0E24  1283               	bcf	3,5	;RP0=0, select bank0
  1507  0E25  1303               	bcf	3,6	;RP1=0, select bank0
  1508  0E26  0857               	movf	?___fladd+3,w
  1509  0E27  00EB               	movwf	___fltol@f1+3
  1510  0E28  0856               	movf	?___fladd+2,w
  1511  0E29  00EA               	movwf	___fltol@f1+2
  1512  0E2A  0855               	movf	?___fladd+1,w
  1513  0E2B  00E9               	movwf	___fltol@f1+1
  1514  0E2C  0854               	movf	?___fladd,w
  1515  0E2D  00E8               	movwf	___fltol@f1
  1516  0E2E  120A  158A  24F2  120A  158A  	fcall	___fltol
  1517  0E33  1283               	bcf	3,5	;RP0=0, select bank0
  1518  0E34  1303               	bcf	3,6	;RP1=0, select bank0
  1519  0E35  0869               	movf	?___fltol+1,w
  1520  0E36  1683               	bsf	3,5	;RP0=1, select bank1
  1521  0E37  1303               	bcf	3,6	;RP1=0, select bank1
  1522  0E38  00A6               	movwf	(?_map+1)^(0+128)
  1523  0E39  1283               	bcf	3,5	;RP0=0, select bank0
  1524  0E3A  1303               	bcf	3,6	;RP1=0, select bank0
  1525  0E3B  0868               	movf	?___fltol,w
  1526  0E3C  1683               	bsf	3,5	;RP0=1, select bank1
  1527  0E3D  1303               	bcf	3,6	;RP1=0, select bank1
  1528  0E3E  00A5               	movwf	?_map^(0+128)
  1529  0E3F                     i1l101:
  1530  0E3F  0008               	return
  1531  0E40                     __end_of_map:
  1532                           
  1533                           	psect	text4
  1534  0E40                     __ptext4:	
  1535 ;; *************** function ___xxtofl *****************
  1536 ;; Defined at:
  1537 ;;		line 10 in file "C:\Program Files\Microchip\xc8\v2.35\pic\sources\c90\common\xxtofl.c"
  1538 ;; Parameters:    Size  Location     Type
  1539 ;;  sign            1    wreg     unsigned char 
  1540 ;;  val             4    0[COMMON] long 
  1541 ;; Auto vars:     Size  Location     Type
  1542 ;;  sign            1    8[COMMON] unsigned char 
  1543 ;;  arg             4   10[COMMON] unsigned long 
  1544 ;;  exp             1    9[COMMON] unsigned char 
  1545 ;; Return value:  Size  Location     Type
  1546 ;;                  4    0[COMMON] unsigned char 
  1547 ;; Registers used:
  1548 ;;		wreg, status,2, status,0
  1549 ;; Tracked objects:
  1550 ;;		On entry : 0/0
  1551 ;;		On exit  : 0/0
  1552 ;;		Unchanged: 0/0
  1553 ;; Data sizes:     COMMON   BANK0   BANK1   BANK3   BANK2
  1554 ;;      Params:         4       0       0       0       0
  1555 ;;      Locals:         6       0       0       0       0
  1556 ;;      Temps:          4       0       0       0       0
  1557 ;;      Totals:        14       0       0       0       0
  1558 ;;Total ram usage:       14 bytes
  1559 ;; Hardware stack levels used: 1
  1560 ;; This function calls:
  1561 ;;		Nothing
  1562 ;; This function is called by:
  1563 ;;		_map
  1564 ;; This function uses a non-reentrant model
  1565 ;;
  1566                           
  1567  0E40                     ___xxtofl:	
  1568                           ;psect for function ___xxtofl
  1569                           
  1570                           
  1571                           ;incstack = 0
  1572                           ; Regs used in ___xxtofl: [wreg+status,2+status,0]
  1573                           ;___xxtofl@sign stored from wreg
  1574  0E40  00F8               	movwf	___xxtofl@sign
  1575  0E41                     i1l1927:
  1576  0E41  0878               	movf	___xxtofl@sign,w
  1577  0E42  1903               	btfsc	3,2
  1578  0E43  2E45               	goto	u277_21
  1579  0E44  2E46               	goto	u277_20
  1580  0E45                     u277_21:
  1581  0E45  2E5A               	goto	i1l1933
  1582  0E46                     u277_20:
  1583  0E46                     i1l1929:
  1584  0E46  1FF3               	btfss	___xxtofl@val+3,7
  1585  0E47  2E49               	goto	u278_21
  1586  0E48  2E4A               	goto	u278_20
  1587  0E49                     u278_21:
  1588  0E49  2E5A               	goto	i1l1933
  1589  0E4A                     u278_20:
  1590  0E4A                     i1l1931:
  1591  0E4A  0970               	comf	___xxtofl@val,w
  1592  0E4B  00FA               	movwf	___xxtofl@arg
  1593  0E4C  0971               	comf	___xxtofl@val+1,w
  1594  0E4D  00FB               	movwf	___xxtofl@arg+1
  1595  0E4E  0972               	comf	___xxtofl@val+2,w
  1596  0E4F  00FC               	movwf	___xxtofl@arg+2
  1597  0E50  0973               	comf	___xxtofl@val+3,w
  1598  0E51  00FD               	movwf	___xxtofl@arg+3
  1599  0E52  0AFA               	incf	___xxtofl@arg,f
  1600  0E53  1903               	skipnz
  1601  0E54  0AFB               	incf	___xxtofl@arg+1,f
  1602  0E55  1903               	skipnz
  1603  0E56  0AFC               	incf	___xxtofl@arg+2,f
  1604  0E57  1903               	skipnz
  1605  0E58  0AFD               	incf	___xxtofl@arg+3,f
  1606  0E59  2E62               	goto	i1l620
  1607  0E5A                     i1l1933:
  1608  0E5A  0873               	movf	___xxtofl@val+3,w
  1609  0E5B  00FD               	movwf	___xxtofl@arg+3
  1610  0E5C  0872               	movf	___xxtofl@val+2,w
  1611  0E5D  00FC               	movwf	___xxtofl@arg+2
  1612  0E5E  0871               	movf	___xxtofl@val+1,w
  1613  0E5F  00FB               	movwf	___xxtofl@arg+1
  1614  0E60  0870               	movf	___xxtofl@val,w
  1615  0E61  00FA               	movwf	___xxtofl@arg
  1616  0E62                     i1l620:
  1617  0E62  0873               	movf	___xxtofl@val+3,w
  1618  0E63  0472               	iorwf	___xxtofl@val+2,w
  1619  0E64  0471               	iorwf	___xxtofl@val+1,w
  1620  0E65  0470               	iorwf	___xxtofl@val,w
  1621  0E66  1D03               	skipz
  1622  0E67  2E69               	goto	u279_21
  1623  0E68  2E6A               	goto	u279_20
  1624  0E69                     u279_21:
  1625  0E69  2E73               	goto	i1l1939
  1626  0E6A                     u279_20:
  1627  0E6A                     i1l1935:
  1628  0E6A  3000               	movlw	0
  1629  0E6B  00F3               	movwf	?___xxtofl+3
  1630  0E6C  3000               	movlw	0
  1631  0E6D  00F2               	movwf	?___xxtofl+2
  1632  0E6E  3000               	movlw	0
  1633  0E6F  00F1               	movwf	?___xxtofl+1
  1634  0E70  3000               	movlw	0
  1635  0E71  00F0               	movwf	?___xxtofl
  1636  0E72  2EF9               	goto	i1l622
  1637  0E73                     i1l1939:
  1638  0E73  3096               	movlw	150
  1639  0E74  00F4               	movwf	??___xxtofl
  1640  0E75  0874               	movf	??___xxtofl,w
  1641  0E76  00F9               	movwf	___xxtofl@exp
  1642  0E77  2E85               	goto	i1l1943
  1643  0E78                     i1l1941:
  1644  0E78  3001               	movlw	1
  1645  0E79  00F4               	movwf	??___xxtofl
  1646  0E7A  0874               	movf	??___xxtofl,w
  1647  0E7B  07F9               	addwf	___xxtofl@exp,f
  1648  0E7C  3001               	movlw	1
  1649  0E7D                     u280_25:
  1650  0E7D  1003               	clrc
  1651  0E7E  0CFD               	rrf	___xxtofl@arg+3,f
  1652  0E7F  0CFC               	rrf	___xxtofl@arg+2,f
  1653  0E80  0CFB               	rrf	___xxtofl@arg+1,f
  1654  0E81  0CFA               	rrf	___xxtofl@arg,f
  1655  0E82  3EFF               	addlw	-1
  1656  0E83  1D03               	skipz
  1657  0E84  2E7D               	goto	u280_25
  1658  0E85                     i1l1943:
  1659  0E85  30FE               	movlw	254
  1660  0E86  057D               	andwf	___xxtofl@arg+3,w
  1661  0E87  1D03               	btfss	3,2
  1662  0E88  2E8A               	goto	u281_21
  1663  0E89  2E8B               	goto	u281_20
  1664  0E8A                     u281_21:
  1665  0E8A  2E78               	goto	i1l1941
  1666  0E8B                     u281_20:
  1667  0E8B  2EA7               	goto	i1l626
  1668  0E8C                     i1l1945:
  1669  0E8C  3001               	movlw	1
  1670  0E8D  00F4               	movwf	??___xxtofl
  1671  0E8E  0874               	movf	??___xxtofl,w
  1672  0E8F  07F9               	addwf	___xxtofl@exp,f
  1673  0E90                     i1l1947:
  1674  0E90  3001               	movlw	1
  1675  0E91  07FA               	addwf	___xxtofl@arg,f
  1676  0E92  3000               	movlw	0
  1677  0E93  1803               	skipnc
  1678  0E94  3001               	movlw	1
  1679  0E95  07FB               	addwf	___xxtofl@arg+1,f
  1680  0E96  3000               	movlw	0
  1681  0E97  1803               	skipnc
  1682  0E98  3001               	movlw	1
  1683  0E99  07FC               	addwf	___xxtofl@arg+2,f
  1684  0E9A  3000               	movlw	0
  1685  0E9B  1803               	skipnc
  1686  0E9C  3001               	movlw	1
  1687  0E9D  07FD               	addwf	___xxtofl@arg+3,f
  1688  0E9E                     i1l1949:
  1689  0E9E  3001               	movlw	1
  1690  0E9F                     u282_25:
  1691  0E9F  1003               	clrc
  1692  0EA0  0CFD               	rrf	___xxtofl@arg+3,f
  1693  0EA1  0CFC               	rrf	___xxtofl@arg+2,f
  1694  0EA2  0CFB               	rrf	___xxtofl@arg+1,f
  1695  0EA3  0CFA               	rrf	___xxtofl@arg,f
  1696  0EA4  3EFF               	addlw	-1
  1697  0EA5  1D03               	skipz
  1698  0EA6  2E9F               	goto	u282_25
  1699  0EA7                     i1l626:
  1700  0EA7  30FF               	movlw	255
  1701  0EA8  057D               	andwf	___xxtofl@arg+3,w
  1702  0EA9  1D03               	btfss	3,2
  1703  0EAA  2EAC               	goto	u283_21
  1704  0EAB  2EAD               	goto	u283_20
  1705  0EAC                     u283_21:
  1706  0EAC  2E8C               	goto	i1l1945
  1707  0EAD                     u283_20:
  1708  0EAD  2EB9               	goto	i1l1953
  1709  0EAE                     i1l1951:
  1710  0EAE  3001               	movlw	1
  1711  0EAF  02F9               	subwf	___xxtofl@exp,f
  1712  0EB0  3001               	movlw	1
  1713  0EB1  00F4               	movwf	??___xxtofl
  1714  0EB2                     u284_25:
  1715  0EB2  1003               	clrc
  1716  0EB3  0DFA               	rlf	___xxtofl@arg,f
  1717  0EB4  0DFB               	rlf	___xxtofl@arg+1,f
  1718  0EB5  0DFC               	rlf	___xxtofl@arg+2,f
  1719  0EB6  0DFD               	rlf	___xxtofl@arg+3,f
  1720  0EB7  0BF4               	decfsz	??___xxtofl,f
  1721  0EB8  2EB2               	goto	u284_25
  1722  0EB9                     i1l1953:
  1723  0EB9  1BFC               	btfsc	___xxtofl@arg+2,7
  1724  0EBA  2EBC               	goto	u285_21
  1725  0EBB  2EBD               	goto	u285_20
  1726  0EBC                     u285_21:
  1727  0EBC  2EC3               	goto	i1l633
  1728  0EBD                     u285_20:
  1729  0EBD                     i1l1955:
  1730  0EBD  3002               	movlw	2
  1731  0EBE  0279               	subwf	___xxtofl@exp,w
  1732  0EBF  1803               	skipnc
  1733  0EC0  2EC2               	goto	u286_21
  1734  0EC1  2EC3               	goto	u286_20
  1735  0EC2                     u286_21:
  1736  0EC2  2EAE               	goto	i1l1951
  1737  0EC3                     u286_20:
  1738  0EC3                     i1l633:
  1739  0EC3  1879               	btfsc	___xxtofl@exp,0
  1740  0EC4  2EC6               	goto	u287_21
  1741  0EC5  2EC7               	goto	u287_20
  1742  0EC6                     u287_21:
  1743  0EC6  2ECF               	goto	i1l634
  1744  0EC7                     u287_20:
  1745  0EC7                     i1l1957:
  1746  0EC7  30FF               	movlw	255
  1747  0EC8  05FA               	andwf	___xxtofl@arg,f
  1748  0EC9  30FF               	movlw	255
  1749  0ECA  05FB               	andwf	___xxtofl@arg+1,f
  1750  0ECB  307F               	movlw	127
  1751  0ECC  05FC               	andwf	___xxtofl@arg+2,f
  1752  0ECD  30FF               	movlw	255
  1753  0ECE  05FD               	andwf	___xxtofl@arg+3,f
  1754  0ECF                     i1l634:
  1755  0ECF  1003               	clrc
  1756  0ED0  0CF9               	rrf	___xxtofl@exp,f
  1757  0ED1                     i1l1959:
  1758  0ED1  0879               	movf	___xxtofl@exp,w
  1759  0ED2  00F4               	movwf	??___xxtofl
  1760  0ED3  01F5               	clrf	??___xxtofl+1
  1761  0ED4  01F6               	clrf	??___xxtofl+2
  1762  0ED5  01F7               	clrf	??___xxtofl+3
  1763  0ED6  3018               	movlw	24
  1764  0ED7                     u288_25:
  1765  0ED7  1003               	clrc
  1766  0ED8  0DF4               	rlf	??___xxtofl,f
  1767  0ED9  0DF5               	rlf	??___xxtofl+1,f
  1768  0EDA  0DF6               	rlf	??___xxtofl+2,f
  1769  0EDB  0DF7               	rlf	??___xxtofl+3,f
  1770  0EDC                     u288_20:
  1771  0EDC  3EFF               	addlw	-1
  1772  0EDD  1D03               	skipz
  1773  0EDE  2ED7               	goto	u288_25
  1774  0EDF  0874               	movf	??___xxtofl,w
  1775  0EE0  04FA               	iorwf	___xxtofl@arg,f
  1776  0EE1  0875               	movf	??___xxtofl+1,w
  1777  0EE2  04FB               	iorwf	___xxtofl@arg+1,f
  1778  0EE3  0876               	movf	??___xxtofl+2,w
  1779  0EE4  04FC               	iorwf	___xxtofl@arg+2,f
  1780  0EE5  0877               	movf	??___xxtofl+3,w
  1781  0EE6  04FD               	iorwf	___xxtofl@arg+3,f
  1782  0EE7                     i1l1961:
  1783  0EE7  0878               	movf	___xxtofl@sign,w
  1784  0EE8  1903               	btfsc	3,2
  1785  0EE9  2EEB               	goto	u289_21
  1786  0EEA  2EEC               	goto	u289_20
  1787  0EEB                     u289_21:
  1788  0EEB  2EF1               	goto	i1l1967
  1789  0EEC                     u289_20:
  1790  0EEC                     i1l1963:
  1791  0EEC  1FF3               	btfss	___xxtofl@val+3,7
  1792  0EED  2EEF               	goto	u290_21
  1793  0EEE  2EF0               	goto	u290_20
  1794  0EEF                     u290_21:
  1795  0EEF  2EF1               	goto	i1l1967
  1796  0EF0                     u290_20:
  1797  0EF0                     i1l1965:
  1798  0EF0  17FD               	bsf	___xxtofl@arg+3,7
  1799  0EF1                     i1l1967:
  1800  0EF1  087D               	movf	___xxtofl@arg+3,w
  1801  0EF2  00F3               	movwf	?___xxtofl+3
  1802  0EF3  087C               	movf	___xxtofl@arg+2,w
  1803  0EF4  00F2               	movwf	?___xxtofl+2
  1804  0EF5  087B               	movf	___xxtofl@arg+1,w
  1805  0EF6  00F1               	movwf	?___xxtofl+1
  1806  0EF7  087A               	movf	___xxtofl@arg,w
  1807  0EF8  00F0               	movwf	?___xxtofl
  1808  0EF9                     i1l622:
  1809  0EF9  0008               	return
  1810  0EFA                     __end_of___xxtofl:
  1811                           
  1812                           	psect	text5
  1813  0CF2                     __ptext5:	
  1814 ;; *************** function ___fltol *****************
  1815 ;; Defined at:
  1816 ;;		line 43 in file "C:\Program Files\Microchip\xc8\v2.35\pic\sources\c90\common\fltol.c"
  1817 ;; Parameters:    Size  Location     Type
  1818 ;;  f1              4   72[BANK0 ] unsigned char 
  1819 ;; Auto vars:     Size  Location     Type
  1820 ;;  exp1            1   77[BANK0 ] unsigned char 
  1821 ;;  sign1           1   76[BANK0 ] unsigned char 
  1822 ;; Return value:  Size  Location     Type
  1823 ;;                  4   72[BANK0 ] long 
  1824 ;; Registers used:
  1825 ;;		wreg, status,2, status,0
  1826 ;; Tracked objects:
  1827 ;;		On entry : 0/0
  1828 ;;		On exit  : 0/0
  1829 ;;		Unchanged: 0/0
  1830 ;; Data sizes:     COMMON   BANK0   BANK1   BANK3   BANK2
  1831 ;;      Params:         0       4       0       0       0
  1832 ;;      Locals:         0       2       0       0       0
  1833 ;;      Temps:          0       0       5       0       0
  1834 ;;      Totals:         0       6       5       0       0
  1835 ;;Total ram usage:       11 bytes
  1836 ;; Hardware stack levels used: 1
  1837 ;; This function calls:
  1838 ;;		Nothing
  1839 ;; This function is called by:
  1840 ;;		_map
  1841 ;; This function uses a non-reentrant model
  1842 ;;
  1843                           
  1844  0CF2                     ___fltol:	
  1845                           ;psect for function ___fltol
  1846                           
  1847  0CF2                     i1l1415:	
  1848                           ;incstack = 0
  1849                           ; Regs used in ___fltol: [wreg+status,2+status,0]
  1850                           
  1851  0CF2  1003               	clrc
  1852  0CF3  1283               	bcf	3,5	;RP0=0, select bank0
  1853  0CF4  1303               	bcf	3,6	;RP1=0, select bank0
  1854  0CF5  0D6A               	rlf	___fltol@f1+2,w
  1855  0CF6  0D6B               	rlf	___fltol@f1+3,w
  1856  0CF7  1683               	bsf	3,5	;RP0=1, select bank1
  1857  0CF8  1303               	bcf	3,6	;RP1=0, select bank1
  1858  0CF9  00A0               	movwf	??___fltol^(0+128)
  1859  0CFA  0820               	movf	??___fltol^(0+128),w
  1860  0CFB  1283               	bcf	3,5	;RP0=0, select bank0
  1861  0CFC  1303               	bcf	3,6	;RP1=0, select bank0
  1862  0CFD  00ED               	movwf	___fltol@exp1
  1863  0CFE  086D               	movf	___fltol@exp1,w
  1864  0CFF  1D03               	btfss	3,2
  1865  0D00  2D02               	goto	u155_21
  1866  0D01  2D03               	goto	u155_20
  1867  0D02                     u155_21:
  1868  0D02  2D0C               	goto	i1l1421
  1869  0D03                     u155_20:
  1870  0D03                     i1l1417:
  1871  0D03  3000               	movlw	0
  1872  0D04  00EB               	movwf	?___fltol+3
  1873  0D05  3000               	movlw	0
  1874  0D06  00EA               	movwf	?___fltol+2
  1875  0D07  3000               	movlw	0
  1876  0D08  00E9               	movwf	?___fltol+1
  1877  0D09  3000               	movlw	0
  1878  0D0A  00E8               	movwf	?___fltol
  1879  0D0B  2D8D               	goto	i1l373
  1880  0D0C                     i1l1421:
  1881  0D0C  0868               	movf	___fltol@f1,w
  1882  0D0D  1683               	bsf	3,5	;RP0=1, select bank1
  1883  0D0E  1303               	bcf	3,6	;RP1=0, select bank1
  1884  0D0F  00A0               	movwf	??___fltol^(0+128)
  1885  0D10  1283               	bcf	3,5	;RP0=0, select bank0
  1886  0D11  1303               	bcf	3,6	;RP1=0, select bank0
  1887  0D12  0869               	movf	___fltol@f1+1,w
  1888  0D13  1683               	bsf	3,5	;RP0=1, select bank1
  1889  0D14  1303               	bcf	3,6	;RP1=0, select bank1
  1890  0D15  00A1               	movwf	(??___fltol^(0+128)+1)
  1891  0D16  1283               	bcf	3,5	;RP0=0, select bank0
  1892  0D17  1303               	bcf	3,6	;RP1=0, select bank0
  1893  0D18  086A               	movf	___fltol@f1+2,w
  1894  0D19  1683               	bsf	3,5	;RP0=1, select bank1
  1895  0D1A  1303               	bcf	3,6	;RP1=0, select bank1
  1896  0D1B  00A2               	movwf	(??___fltol^(0+128)+2)
  1897  0D1C  1283               	bcf	3,5	;RP0=0, select bank0
  1898  0D1D  1303               	bcf	3,6	;RP1=0, select bank0
  1899  0D1E  086B               	movf	___fltol@f1+3,w
  1900  0D1F  1683               	bsf	3,5	;RP0=1, select bank1
  1901  0D20  1303               	bcf	3,6	;RP1=0, select bank1
  1902  0D21  00A3               	movwf	(??___fltol^(0+128)+3)
  1903  0D22  301F               	movlw	31
  1904  0D23                     u156_25:
  1905  0D23  1003               	clrc
  1906  0D24  0CA3               	rrf	(??___fltol^(0+128)+3),f
  1907  0D25  0CA2               	rrf	(??___fltol^(0+128)+2),f
  1908  0D26  0CA1               	rrf	(??___fltol^(0+128)+1),f
  1909  0D27  0CA0               	rrf	??___fltol^(0+128),f
  1910  0D28                     u156_20:
  1911  0D28  3EFF               	addlw	-1
  1912  0D29  1D03               	skipz
  1913  0D2A  2D23               	goto	u156_25
  1914  0D2B  0820               	movf	??___fltol^(0+128),w
  1915  0D2C  00A4               	movwf	(??___fltol+4)^(0+128)
  1916  0D2D  0824               	movf	(??___fltol+4)^(0+128),w
  1917  0D2E  1283               	bcf	3,5	;RP0=0, select bank0
  1918  0D2F  1303               	bcf	3,6	;RP1=0, select bank0
  1919  0D30  00EC               	movwf	___fltol@sign1
  1920  0D31                     i1l1423:
  1921  0D31  17EA               	bsf	___fltol@f1+2,7
  1922  0D32                     i1l1425:
  1923  0D32  30FF               	movlw	255
  1924  0D33  05E8               	andwf	___fltol@f1,f
  1925  0D34  30FF               	movlw	255
  1926  0D35  05E9               	andwf	___fltol@f1+1,f
  1927  0D36  30FF               	movlw	255
  1928  0D37  05EA               	andwf	___fltol@f1+2,f
  1929  0D38  3000               	movlw	0
  1930  0D39  05EB               	andwf	___fltol@f1+3,f
  1931  0D3A                     i1l1427:
  1932  0D3A  3096               	movlw	150
  1933  0D3B  02ED               	subwf	___fltol@exp1,f
  1934  0D3C                     i1l1429:
  1935  0D3C  1FED               	btfss	___fltol@exp1,7
  1936  0D3D  2D3F               	goto	u157_21
  1937  0D3E  2D40               	goto	u157_20
  1938  0D3F                     u157_21:
  1939  0D3F  2D5E               	goto	i1l1439
  1940  0D40                     u157_20:
  1941  0D40                     i1l1431:
  1942  0D40  086D               	movf	___fltol@exp1,w
  1943  0D41  3A80               	xorlw	128
  1944  0D42  3E97               	addlw	151
  1945  0D43  1803               	skipnc
  1946  0D44  2D46               	goto	u158_21
  1947  0D45  2D47               	goto	u158_20
  1948  0D46                     u158_21:
  1949  0D46  2D48               	goto	i1l1437
  1950  0D47                     u158_20:
  1951  0D47  2D03               	goto	i1l1417
  1952  0D48                     i1l1437:
  1953  0D48  3001               	movlw	1
  1954  0D49                     u159_25:
  1955  0D49  1003               	clrc
  1956  0D4A  0CEB               	rrf	___fltol@f1+3,f
  1957  0D4B  0CEA               	rrf	___fltol@f1+2,f
  1958  0D4C  0CE9               	rrf	___fltol@f1+1,f
  1959  0D4D  0CE8               	rrf	___fltol@f1,f
  1960  0D4E  3EFF               	addlw	-1
  1961  0D4F  1D03               	skipz
  1962  0D50  2D49               	goto	u159_25
  1963  0D51  3001               	movlw	1
  1964  0D52  1683               	bsf	3,5	;RP0=1, select bank1
  1965  0D53  1303               	bcf	3,6	;RP1=0, select bank1
  1966  0D54  00A0               	movwf	??___fltol^(0+128)
  1967  0D55  0820               	movf	??___fltol^(0+128),w
  1968  0D56  1283               	bcf	3,5	;RP0=0, select bank0
  1969  0D57  1303               	bcf	3,6	;RP1=0, select bank0
  1970  0D58  07ED               	addwf	___fltol@exp1,f
  1971  0D59  1D03               	btfss	3,2
  1972  0D5A  2D5C               	goto	u160_21
  1973  0D5B  2D5D               	goto	u160_20
  1974  0D5C                     u160_21:
  1975  0D5C  2D48               	goto	i1l1437
  1976  0D5D                     u160_20:
  1977  0D5D  2D7D               	goto	i1l1447
  1978  0D5E                     i1l1439:
  1979  0D5E  3020               	movlw	32
  1980  0D5F  026D               	subwf	___fltol@exp1,w
  1981  0D60  1C03               	skipc
  1982  0D61  2D63               	goto	u161_21
  1983  0D62  2D64               	goto	u161_20
  1984  0D63                     u161_21:
  1985  0D63  2D78               	goto	i1l380
  1986  0D64                     u161_20:
  1987  0D64  2D03               	goto	i1l1417
  1988  0D65                     i1l1445:
  1989  0D65  3001               	movlw	1
  1990  0D66  1683               	bsf	3,5	;RP0=1, select bank1
  1991  0D67  1303               	bcf	3,6	;RP1=0, select bank1
  1992  0D68  00A0               	movwf	??___fltol^(0+128)
  1993  0D69                     u162_25:
  1994  0D69  1003               	clrc
  1995  0D6A  1283               	bcf	3,5	;RP0=0, select bank0
  1996  0D6B  1303               	bcf	3,6	;RP1=0, select bank0
  1997  0D6C  0DE8               	rlf	___fltol@f1,f
  1998  0D6D  0DE9               	rlf	___fltol@f1+1,f
  1999  0D6E  0DEA               	rlf	___fltol@f1+2,f
  2000  0D6F  0DEB               	rlf	___fltol@f1+3,f
  2001  0D70  1683               	bsf	3,5	;RP0=1, select bank1
  2002  0D71  1303               	bcf	3,6	;RP1=0, select bank1
  2003  0D72  0BA0               	decfsz	??___fltol^(0+128),f
  2004  0D73  2D69               	goto	u162_25
  2005  0D74  3001               	movlw	1
  2006  0D75  1283               	bcf	3,5	;RP0=0, select bank0
  2007  0D76  1303               	bcf	3,6	;RP1=0, select bank0
  2008  0D77  02ED               	subwf	___fltol@exp1,f
  2009  0D78                     i1l380:
  2010  0D78  086D               	movf	___fltol@exp1,w
  2011  0D79  1D03               	btfss	3,2
  2012  0D7A  2D7C               	goto	u163_21
  2013  0D7B  2D7D               	goto	u163_20
  2014  0D7C                     u163_21:
  2015  0D7C  2D65               	goto	i1l1445
  2016  0D7D                     u163_20:
  2017  0D7D                     i1l1447:
  2018  0D7D  086C               	movf	___fltol@sign1,w
  2019  0D7E  1903               	btfsc	3,2
  2020  0D7F  2D81               	goto	u164_21
  2021  0D80  2D82               	goto	u164_20
  2022  0D81                     u164_21:
  2023  0D81  2D8D               	goto	i1l383
  2024  0D82                     u164_20:
  2025  0D82                     i1l1449:
  2026  0D82  09E8               	comf	___fltol@f1,f
  2027  0D83  09E9               	comf	___fltol@f1+1,f
  2028  0D84  09EA               	comf	___fltol@f1+2,f
  2029  0D85  09EB               	comf	___fltol@f1+3,f
  2030  0D86  0AE8               	incf	___fltol@f1,f
  2031  0D87  1903               	skipnz
  2032  0D88  0AE9               	incf	___fltol@f1+1,f
  2033  0D89  1903               	skipnz
  2034  0D8A  0AEA               	incf	___fltol@f1+2,f
  2035  0D8B  1903               	skipnz
  2036  0D8C  0AEB               	incf	___fltol@f1+3,f
  2037  0D8D                     i1l383:
  2038  0D8D                     i1l373:
  2039  0D8D  0008               	return
  2040  0D8E                     __end_of___fltol:
  2041                           
  2042                           	psect	text6
  2043  0021                     __ptext6:	
  2044 ;; *************** function ___flmul *****************
  2045 ;; Defined at:
  2046 ;;		line 8 in file "C:\Program Files\Microchip\xc8\v2.35\pic\sources\c90\common\sprcmul.c"
  2047 ;; Parameters:    Size  Location     Type
  2048 ;;  b               4   26[BANK0 ] long 
  2049 ;;  a               4   30[BANK0 ] long 
  2050 ;; Auto vars:     Size  Location     Type
  2051 ;;  prod            4   46[BANK0 ] struct .
  2052 ;;  grs             4   40[BANK0 ] unsigned long 
  2053 ;;  temp            2   50[BANK0 ] struct .
  2054 ;;  bexp            1   45[BANK0 ] unsigned char 
  2055 ;;  aexp            1   44[BANK0 ] unsigned char 
  2056 ;;  sign            1   39[BANK0 ] unsigned char 
  2057 ;; Return value:  Size  Location     Type
  2058 ;;                  4   26[BANK0 ] unsigned char 
  2059 ;; Registers used:
  2060 ;;		wreg, status,2, status,0, btemp+1, pclath, cstack
  2061 ;; Tracked objects:
  2062 ;;		On entry : 0/0
  2063 ;;		On exit  : 0/0
  2064 ;;		Unchanged: 0/0
  2065 ;; Data sizes:     COMMON   BANK0   BANK1   BANK3   BANK2
  2066 ;;      Params:         0       8       0       0       0
  2067 ;;      Locals:         0      13       0       0       0
  2068 ;;      Temps:          0       5       0       0       0
  2069 ;;      Totals:         0      26       0       0       0
  2070 ;;Total ram usage:       26 bytes
  2071 ;; Hardware stack levels used: 1
  2072 ;; Hardware stack levels required when called: 1
  2073 ;; This function calls:
  2074 ;;		__Umul8_16
  2075 ;; This function is called by:
  2076 ;;		_map
  2077 ;; This function uses a non-reentrant model
  2078 ;;
  2079                           
  2080  0021                     ___flmul:	
  2081                           ;psect for function ___flmul
  2082                           
  2083  0021                     i1l1787:	
  2084                           ;incstack = 0
  2085                           ; Regs used in ___flmul: [wreg+status,2+status,0+btemp+1+pclath+cstack]
  2086                           
  2087  0021  1283               	bcf	3,5	;RP0=0, select bank0
  2088  0022  1303               	bcf	3,6	;RP1=0, select bank0
  2089  0023  083D               	movf	___flmul@b+3,w
  2090  0024  3980               	andlw	128
  2091  0025  00C2               	movwf	??___flmul
  2092  0026  0842               	movf	??___flmul,w
  2093  0027  00C7               	movwf	___flmul@sign
  2094  0028                     i1l1789:
  2095  0028  083D               	movf	___flmul@b+3,w
  2096  0029  00C2               	movwf	??___flmul
  2097  002A  0742               	addwf	??___flmul,w
  2098  002B  00C3               	movwf	??___flmul+1
  2099  002C  0843               	movf	??___flmul+1,w
  2100  002D  00CD               	movwf	___flmul@bexp
  2101  002E                     i1l1791:
  2102  002E  1FBC               	btfss	___flmul@b+2,7
  2103  002F  2831               	goto	u240_21
  2104  0030  2832               	goto	u240_20
  2105  0031                     u240_21:
  2106  0031  2833               	goto	i1l1795
  2107  0032                     u240_20:
  2108  0032                     i1l1793:
  2109  0032  144D               	bsf	___flmul@bexp,0
  2110  0033                     i1l1795:
  2111  0033  084D               	movf	___flmul@bexp,w
  2112  0034  1903               	btfsc	3,2
  2113  0035  2837               	goto	u241_21
  2114  0036  2838               	goto	u241_20
  2115  0037                     u241_21:
  2116  0037  2847               	goto	i1l1803
  2117  0038                     u241_20:
  2118  0038                     i1l1797:
  2119  0038  0A4D               	incf	___flmul@bexp,w
  2120  0039  1D03               	btfss	3,2
  2121  003A  283C               	goto	u242_21
  2122  003B  283D               	goto	u242_20
  2123  003C                     u242_21:
  2124  003C  2845               	goto	i1l1801
  2125  003D                     u242_20:
  2126  003D                     i1l1799:
  2127  003D  3000               	movlw	0
  2128  003E  00BD               	movwf	___flmul@b+3
  2129  003F  3000               	movlw	0
  2130  0040  00BC               	movwf	___flmul@b+2
  2131  0041  3000               	movlw	0
  2132  0042  00BB               	movwf	___flmul@b+1
  2133  0043  3000               	movlw	0
  2134  0044  00BA               	movwf	___flmul@b
  2135  0045                     i1l1801:
  2136  0045  17BC               	bsf	___flmul@b+2,7
  2137  0046  284F               	goto	i1l1805
  2138  0047                     i1l1803:
  2139  0047  3000               	movlw	0
  2140  0048  00BD               	movwf	___flmul@b+3
  2141  0049  3000               	movlw	0
  2142  004A  00BC               	movwf	___flmul@b+2
  2143  004B  3000               	movlw	0
  2144  004C  00BB               	movwf	___flmul@b+1
  2145  004D  3000               	movlw	0
  2146  004E  00BA               	movwf	___flmul@b
  2147  004F                     i1l1805:
  2148  004F  0841               	movf	___flmul@a+3,w
  2149  0050  3980               	andlw	128
  2150  0051  00C2               	movwf	??___flmul
  2151  0052  0842               	movf	??___flmul,w
  2152  0053  06C7               	xorwf	___flmul@sign,f
  2153  0054                     i1l1807:
  2154  0054  0841               	movf	___flmul@a+3,w
  2155  0055  00C2               	movwf	??___flmul
  2156  0056  0742               	addwf	??___flmul,w
  2157  0057  00C3               	movwf	??___flmul+1
  2158  0058  0843               	movf	??___flmul+1,w
  2159  0059  00CC               	movwf	___flmul@aexp
  2160  005A                     i1l1809:
  2161  005A  1FC0               	btfss	___flmul@a+2,7
  2162  005B  285D               	goto	u243_21
  2163  005C  285E               	goto	u243_20
  2164  005D                     u243_21:
  2165  005D  285F               	goto	i1l1813
  2166  005E                     u243_20:
  2167  005E                     i1l1811:
  2168  005E  144C               	bsf	___flmul@aexp,0
  2169  005F                     i1l1813:
  2170  005F  084C               	movf	___flmul@aexp,w
  2171  0060  1903               	btfsc	3,2
  2172  0061  2863               	goto	u244_21
  2173  0062  2864               	goto	u244_20
  2174  0063                     u244_21:
  2175  0063  2873               	goto	i1l1821
  2176  0064                     u244_20:
  2177  0064                     i1l1815:
  2178  0064  0A4C               	incf	___flmul@aexp,w
  2179  0065  1D03               	btfss	3,2
  2180  0066  2868               	goto	u245_21
  2181  0067  2869               	goto	u245_20
  2182  0068                     u245_21:
  2183  0068  2871               	goto	i1l1819
  2184  0069                     u245_20:
  2185  0069                     i1l1817:
  2186  0069  3000               	movlw	0
  2187  006A  00C1               	movwf	___flmul@a+3
  2188  006B  3000               	movlw	0
  2189  006C  00C0               	movwf	___flmul@a+2
  2190  006D  3000               	movlw	0
  2191  006E  00BF               	movwf	___flmul@a+1
  2192  006F  3000               	movlw	0
  2193  0070  00BE               	movwf	___flmul@a
  2194  0071                     i1l1819:
  2195  0071  17C0               	bsf	___flmul@a+2,7
  2196  0072  287B               	goto	i1l1823
  2197  0073                     i1l1821:
  2198  0073  3000               	movlw	0
  2199  0074  00C1               	movwf	___flmul@a+3
  2200  0075  3000               	movlw	0
  2201  0076  00C0               	movwf	___flmul@a+2
  2202  0077  3000               	movlw	0
  2203  0078  00BF               	movwf	___flmul@a+1
  2204  0079  3000               	movlw	0
  2205  007A  00BE               	movwf	___flmul@a
  2206  007B                     i1l1823:
  2207  007B  084C               	movf	___flmul@aexp,w
  2208  007C  1903               	btfsc	3,2
  2209  007D  287F               	goto	u246_21
  2210  007E  2880               	goto	u246_20
  2211  007F                     u246_21:
  2212  007F  2885               	goto	i1l1827
  2213  0080                     u246_20:
  2214  0080                     i1l1825:
  2215  0080  084D               	movf	___flmul@bexp,w
  2216  0081  1D03               	btfss	3,2
  2217  0082  2884               	goto	u247_21
  2218  0083  2885               	goto	u247_20
  2219  0084                     u247_21:
  2220  0084  288E               	goto	i1l1831
  2221  0085                     u247_20:
  2222  0085                     i1l1827:
  2223  0085  3000               	movlw	0
  2224  0086  00BD               	movwf	?___flmul+3
  2225  0087  3000               	movlw	0
  2226  0088  00BC               	movwf	?___flmul+2
  2227  0089  3000               	movlw	0
  2228  008A  00BB               	movwf	?___flmul+1
  2229  008B  3000               	movlw	0
  2230  008C  00BA               	movwf	?___flmul
  2231  008D  2B81               	goto	i1l576
  2232  008E                     i1l1831:
  2233  008E  083A               	movf	___flmul@b,w
  2234  008F  00C2               	movwf	??___flmul
  2235  0090  0842               	movf	??___flmul,w
  2236  0091  00F0               	movwf	__Umul8_16@multiplicand
  2237  0092  0840               	movf	___flmul@a+2,w
  2238  0093  120A  158A  240C  120A  118A  	fcall	__Umul8_16
  2239  0098  0871               	movf	?__Umul8_16+1,w
  2240  0099  1283               	bcf	3,5	;RP0=0, select bank0
  2241  009A  1303               	bcf	3,6	;RP1=0, select bank0
  2242  009B  00D3               	movwf	___flmul@temp+1
  2243  009C  0870               	movf	?__Umul8_16,w
  2244  009D  00D2               	movwf	___flmul@temp
  2245  009E                     i1l1833:
  2246  009E  0852               	movf	___flmul@temp,w
  2247  009F  00C2               	movwf	??___flmul
  2248  00A0  01C3               	clrf	??___flmul+1
  2249  00A1  01C4               	clrf	??___flmul+2
  2250  00A2  01C5               	clrf	??___flmul+3
  2251  00A3  0845               	movf	??___flmul+3,w
  2252  00A4  00CB               	movwf	___flmul@grs+3
  2253  00A5  0844               	movf	??___flmul+2,w
  2254  00A6  00CA               	movwf	___flmul@grs+2
  2255  00A7  0843               	movf	??___flmul+1,w
  2256  00A8  00C9               	movwf	___flmul@grs+1
  2257  00A9  0842               	movf	??___flmul,w
  2258  00AA  00C8               	movwf	___flmul@grs
  2259  00AB                     i1l1835:
  2260  00AB  0853               	movf	___flmul@temp+1,w
  2261  00AC  00C2               	movwf	??___flmul
  2262  00AD  01C3               	clrf	??___flmul+1
  2263  00AE  01C4               	clrf	??___flmul+2
  2264  00AF  01C5               	clrf	??___flmul+3
  2265  00B0  0845               	movf	??___flmul+3,w
  2266  00B1  00D1               	movwf	___flmul@prod+3
  2267  00B2  0844               	movf	??___flmul+2,w
  2268  00B3  00D0               	movwf	___flmul@prod+2
  2269  00B4  0843               	movf	??___flmul+1,w
  2270  00B5  00CF               	movwf	___flmul@prod+1
  2271  00B6  0842               	movf	??___flmul,w
  2272  00B7  00CE               	movwf	___flmul@prod
  2273  00B8  083B               	movf	___flmul@b+1,w
  2274  00B9  00C2               	movwf	??___flmul
  2275  00BA  0842               	movf	??___flmul,w
  2276  00BB  00F0               	movwf	__Umul8_16@multiplicand
  2277  00BC  083F               	movf	___flmul@a+1,w
  2278  00BD  120A  158A  240C  120A  118A  	fcall	__Umul8_16
  2279  00C2  0871               	movf	?__Umul8_16+1,w
  2280  00C3  1283               	bcf	3,5	;RP0=0, select bank0
  2281  00C4  1303               	bcf	3,6	;RP1=0, select bank0
  2282  00C5  00D3               	movwf	___flmul@temp+1
  2283  00C6  0870               	movf	?__Umul8_16,w
  2284  00C7  00D2               	movwf	___flmul@temp
  2285  00C8                     i1l1837:
  2286  00C8  0852               	movf	___flmul@temp,w
  2287  00C9  00C2               	movwf	??___flmul
  2288  00CA  01C3               	clrf	??___flmul+1
  2289  00CB  01C4               	clrf	??___flmul+2
  2290  00CC  01C5               	clrf	??___flmul+3
  2291  00CD  0842               	movf	??___flmul,w
  2292  00CE  07C8               	addwf	___flmul@grs,f
  2293  00CF  0843               	movf	??___flmul+1,w
  2294  00D0  1103               	clrz
  2295  00D1  1803               	skipnc
  2296  00D2  3E01               	addlw	1
  2297  00D3  1903               	skipnz
  2298  00D4  28D6               	goto	u248_21
  2299  00D5  07C9               	addwf	___flmul@grs+1,f
  2300  00D6                     u248_21:
  2301  00D6  0844               	movf	??___flmul+2,w
  2302  00D7  1103               	clrz
  2303  00D8  1803               	skipnc
  2304  00D9  3E01               	addlw	1
  2305  00DA  1903               	skipnz
  2306  00DB  28DD               	goto	u248_22
  2307  00DC  07CA               	addwf	___flmul@grs+2,f
  2308  00DD                     u248_22:
  2309  00DD  0845               	movf	??___flmul+3,w
  2310  00DE  1103               	clrz
  2311  00DF  1803               	skipnc
  2312  00E0  3E01               	addlw	1
  2313  00E1  1903               	skipnz
  2314  00E2  28E4               	goto	u248_23
  2315  00E3  07CB               	addwf	___flmul@grs+3,f
  2316  00E4                     u248_23:
  2317  00E4                     i1l1839:
  2318  00E4  0853               	movf	___flmul@temp+1,w
  2319  00E5  00C2               	movwf	??___flmul
  2320  00E6  01C3               	clrf	??___flmul+1
  2321  00E7  01C4               	clrf	??___flmul+2
  2322  00E8  01C5               	clrf	??___flmul+3
  2323  00E9  0842               	movf	??___flmul,w
  2324  00EA  07CE               	addwf	___flmul@prod,f
  2325  00EB  0843               	movf	??___flmul+1,w
  2326  00EC  1103               	clrz
  2327  00ED  1803               	skipnc
  2328  00EE  3E01               	addlw	1
  2329  00EF  1903               	skipnz
  2330  00F0  28F2               	goto	u249_21
  2331  00F1  07CF               	addwf	___flmul@prod+1,f
  2332  00F2                     u249_21:
  2333  00F2  0844               	movf	??___flmul+2,w
  2334  00F3  1103               	clrz
  2335  00F4  1803               	skipnc
  2336  00F5  3E01               	addlw	1
  2337  00F6  1903               	skipnz
  2338  00F7  28F9               	goto	u249_22
  2339  00F8  07D0               	addwf	___flmul@prod+2,f
  2340  00F9                     u249_22:
  2341  00F9  0845               	movf	??___flmul+3,w
  2342  00FA  1103               	clrz
  2343  00FB  1803               	skipnc
  2344  00FC  3E01               	addlw	1
  2345  00FD  1903               	skipnz
  2346  00FE  2900               	goto	u249_23
  2347  00FF  07D1               	addwf	___flmul@prod+3,f
  2348  0100                     u249_23:
  2349  0100  083C               	movf	___flmul@b+2,w
  2350  0101  00C2               	movwf	??___flmul
  2351  0102  0842               	movf	??___flmul,w
  2352  0103  00F0               	movwf	__Umul8_16@multiplicand
  2353  0104  083E               	movf	___flmul@a,w
  2354  0105  120A  158A  240C  120A  118A  	fcall	__Umul8_16
  2355  010A  0871               	movf	?__Umul8_16+1,w
  2356  010B  1283               	bcf	3,5	;RP0=0, select bank0
  2357  010C  1303               	bcf	3,6	;RP1=0, select bank0
  2358  010D  00D3               	movwf	___flmul@temp+1
  2359  010E  0870               	movf	?__Umul8_16,w
  2360  010F  00D2               	movwf	___flmul@temp
  2361  0110                     i1l1841:
  2362  0110  0852               	movf	___flmul@temp,w
  2363  0111  00C2               	movwf	??___flmul
  2364  0112  01C3               	clrf	??___flmul+1
  2365  0113  01C4               	clrf	??___flmul+2
  2366  0114  01C5               	clrf	??___flmul+3
  2367  0115  0842               	movf	??___flmul,w
  2368  0116  07C8               	addwf	___flmul@grs,f
  2369  0117  0843               	movf	??___flmul+1,w
  2370  0118  1103               	clrz
  2371  0119  1803               	skipnc
  2372  011A  3E01               	addlw	1
  2373  011B  1903               	skipnz
  2374  011C  291E               	goto	u250_21
  2375  011D  07C9               	addwf	___flmul@grs+1,f
  2376  011E                     u250_21:
  2377  011E  0844               	movf	??___flmul+2,w
  2378  011F  1103               	clrz
  2379  0120  1803               	skipnc
  2380  0121  3E01               	addlw	1
  2381  0122  1903               	skipnz
  2382  0123  2925               	goto	u250_22
  2383  0124  07CA               	addwf	___flmul@grs+2,f
  2384  0125                     u250_22:
  2385  0125  0845               	movf	??___flmul+3,w
  2386  0126  1103               	clrz
  2387  0127  1803               	skipnc
  2388  0128  3E01               	addlw	1
  2389  0129  1903               	skipnz
  2390  012A  292C               	goto	u250_23
  2391  012B  07CB               	addwf	___flmul@grs+3,f
  2392  012C                     u250_23:
  2393  012C                     i1l1843:
  2394  012C  0853               	movf	___flmul@temp+1,w
  2395  012D  00C2               	movwf	??___flmul
  2396  012E  01C3               	clrf	??___flmul+1
  2397  012F  01C4               	clrf	??___flmul+2
  2398  0130  01C5               	clrf	??___flmul+3
  2399  0131  0842               	movf	??___flmul,w
  2400  0132  07CE               	addwf	___flmul@prod,f
  2401  0133  0843               	movf	??___flmul+1,w
  2402  0134  1103               	clrz
  2403  0135  1803               	skipnc
  2404  0136  3E01               	addlw	1
  2405  0137  1903               	skipnz
  2406  0138  293A               	goto	u251_21
  2407  0139  07CF               	addwf	___flmul@prod+1,f
  2408  013A                     u251_21:
  2409  013A  0844               	movf	??___flmul+2,w
  2410  013B  1103               	clrz
  2411  013C  1803               	skipnc
  2412  013D  3E01               	addlw	1
  2413  013E  1903               	skipnz
  2414  013F  2941               	goto	u251_22
  2415  0140  07D0               	addwf	___flmul@prod+2,f
  2416  0141                     u251_22:
  2417  0141  0845               	movf	??___flmul+3,w
  2418  0142  1103               	clrz
  2419  0143  1803               	skipnc
  2420  0144  3E01               	addlw	1
  2421  0145  1903               	skipnz
  2422  0146  2948               	goto	u251_23
  2423  0147  07D1               	addwf	___flmul@prod+3,f
  2424  0148                     u251_23:
  2425  0148                     i1l1845:
  2426  0148  3008               	movlw	8
  2427  0149  00C2               	movwf	??___flmul
  2428  014A                     u252_25:
  2429  014A  1003               	clrc
  2430  014B  0DC8               	rlf	___flmul@grs,f
  2431  014C  0DC9               	rlf	___flmul@grs+1,f
  2432  014D  0DCA               	rlf	___flmul@grs+2,f
  2433  014E  0DCB               	rlf	___flmul@grs+3,f
  2434  014F  0BC2               	decfsz	??___flmul,f
  2435  0150  294A               	goto	u252_25
  2436  0151                     i1l1847:
  2437  0151  083B               	movf	___flmul@b+1,w
  2438  0152  00C2               	movwf	??___flmul
  2439  0153  0842               	movf	??___flmul,w
  2440  0154  00F0               	movwf	__Umul8_16@multiplicand
  2441  0155  083E               	movf	___flmul@a,w
  2442  0156  120A  158A  240C  120A  118A  	fcall	__Umul8_16
  2443  015B  0871               	movf	?__Umul8_16+1,w
  2444  015C  1283               	bcf	3,5	;RP0=0, select bank0
  2445  015D  1303               	bcf	3,6	;RP1=0, select bank0
  2446  015E  00D3               	movwf	___flmul@temp+1
  2447  015F  0870               	movf	?__Umul8_16,w
  2448  0160  00D2               	movwf	___flmul@temp
  2449  0161                     i1l1849:
  2450  0161  0852               	movf	___flmul@temp,w
  2451  0162  00C2               	movwf	??___flmul
  2452  0163  0853               	movf	___flmul@temp+1,w
  2453  0164  00C3               	movwf	??___flmul+1
  2454  0165  01C4               	clrf	??___flmul+2
  2455  0166  01C5               	clrf	??___flmul+3
  2456  0167  0842               	movf	??___flmul,w
  2457  0168  07C8               	addwf	___flmul@grs,f
  2458  0169  0843               	movf	??___flmul+1,w
  2459  016A  1103               	clrz
  2460  016B  1803               	skipnc
  2461  016C  3E01               	addlw	1
  2462  016D  1903               	skipnz
  2463  016E  2970               	goto	u253_21
  2464  016F  07C9               	addwf	___flmul@grs+1,f
  2465  0170                     u253_21:
  2466  0170  0844               	movf	??___flmul+2,w
  2467  0171  1103               	clrz
  2468  0172  1803               	skipnc
  2469  0173  3E01               	addlw	1
  2470  0174  1903               	skipnz
  2471  0175  2977               	goto	u253_22
  2472  0176  07CA               	addwf	___flmul@grs+2,f
  2473  0177                     u253_22:
  2474  0177  0845               	movf	??___flmul+3,w
  2475  0178  1103               	clrz
  2476  0179  1803               	skipnc
  2477  017A  3E01               	addlw	1
  2478  017B  1903               	skipnz
  2479  017C  297E               	goto	u253_23
  2480  017D  07CB               	addwf	___flmul@grs+3,f
  2481  017E                     u253_23:
  2482  017E                     i1l1851:
  2483  017E  083A               	movf	___flmul@b,w
  2484  017F  00C2               	movwf	??___flmul
  2485  0180  0842               	movf	??___flmul,w
  2486  0181  00F0               	movwf	__Umul8_16@multiplicand
  2487  0182  083F               	movf	___flmul@a+1,w
  2488  0183  120A  158A  240C  120A  118A  	fcall	__Umul8_16
  2489  0188  0871               	movf	?__Umul8_16+1,w
  2490  0189  1283               	bcf	3,5	;RP0=0, select bank0
  2491  018A  1303               	bcf	3,6	;RP1=0, select bank0
  2492  018B  00D3               	movwf	___flmul@temp+1
  2493  018C  0870               	movf	?__Umul8_16,w
  2494  018D  00D2               	movwf	___flmul@temp
  2495  018E                     i1l1853:
  2496  018E  0852               	movf	___flmul@temp,w
  2497  018F  00C2               	movwf	??___flmul
  2498  0190  0853               	movf	___flmul@temp+1,w
  2499  0191  00C3               	movwf	??___flmul+1
  2500  0192  01C4               	clrf	??___flmul+2
  2501  0193  01C5               	clrf	??___flmul+3
  2502  0194  0842               	movf	??___flmul,w
  2503  0195  07C8               	addwf	___flmul@grs,f
  2504  0196  0843               	movf	??___flmul+1,w
  2505  0197  1103               	clrz
  2506  0198  1803               	skipnc
  2507  0199  3E01               	addlw	1
  2508  019A  1903               	skipnz
  2509  019B  299D               	goto	u254_21
  2510  019C  07C9               	addwf	___flmul@grs+1,f
  2511  019D                     u254_21:
  2512  019D  0844               	movf	??___flmul+2,w
  2513  019E  1103               	clrz
  2514  019F  1803               	skipnc
  2515  01A0  3E01               	addlw	1
  2516  01A1  1903               	skipnz
  2517  01A2  29A4               	goto	u254_22
  2518  01A3  07CA               	addwf	___flmul@grs+2,f
  2519  01A4                     u254_22:
  2520  01A4  0845               	movf	??___flmul+3,w
  2521  01A5  1103               	clrz
  2522  01A6  1803               	skipnc
  2523  01A7  3E01               	addlw	1
  2524  01A8  1903               	skipnz
  2525  01A9  29AB               	goto	u254_23
  2526  01AA  07CB               	addwf	___flmul@grs+3,f
  2527  01AB                     u254_23:
  2528  01AB                     i1l1855:
  2529  01AB  3008               	movlw	8
  2530  01AC  00C2               	movwf	??___flmul
  2531  01AD                     u255_25:
  2532  01AD  1003               	clrc
  2533  01AE  0DC8               	rlf	___flmul@grs,f
  2534  01AF  0DC9               	rlf	___flmul@grs+1,f
  2535  01B0  0DCA               	rlf	___flmul@grs+2,f
  2536  01B1  0DCB               	rlf	___flmul@grs+3,f
  2537  01B2  0BC2               	decfsz	??___flmul,f
  2538  01B3  29AD               	goto	u255_25
  2539  01B4  083A               	movf	___flmul@b,w
  2540  01B5  00C2               	movwf	??___flmul
  2541  01B6  0842               	movf	??___flmul,w
  2542  01B7  00F0               	movwf	__Umul8_16@multiplicand
  2543  01B8  083E               	movf	___flmul@a,w
  2544  01B9  120A  158A  240C  120A  118A  	fcall	__Umul8_16
  2545  01BE  0871               	movf	?__Umul8_16+1,w
  2546  01BF  1283               	bcf	3,5	;RP0=0, select bank0
  2547  01C0  1303               	bcf	3,6	;RP1=0, select bank0
  2548  01C1  00D3               	movwf	___flmul@temp+1
  2549  01C2  0870               	movf	?__Umul8_16,w
  2550  01C3  00D2               	movwf	___flmul@temp
  2551  01C4                     i1l1857:
  2552  01C4  0852               	movf	___flmul@temp,w
  2553  01C5  00C2               	movwf	??___flmul
  2554  01C6  0853               	movf	___flmul@temp+1,w
  2555  01C7  00C3               	movwf	??___flmul+1
  2556  01C8  01C4               	clrf	??___flmul+2
  2557  01C9  01C5               	clrf	??___flmul+3
  2558  01CA  0842               	movf	??___flmul,w
  2559  01CB  07C8               	addwf	___flmul@grs,f
  2560  01CC  0843               	movf	??___flmul+1,w
  2561  01CD  1103               	clrz
  2562  01CE  1803               	skipnc
  2563  01CF  3E01               	addlw	1
  2564  01D0  1903               	skipnz
  2565  01D1  29D3               	goto	u256_21
  2566  01D2  07C9               	addwf	___flmul@grs+1,f
  2567  01D3                     u256_21:
  2568  01D3  0844               	movf	??___flmul+2,w
  2569  01D4  1103               	clrz
  2570  01D5  1803               	skipnc
  2571  01D6  3E01               	addlw	1
  2572  01D7  1903               	skipnz
  2573  01D8  29DA               	goto	u256_22
  2574  01D9  07CA               	addwf	___flmul@grs+2,f
  2575  01DA                     u256_22:
  2576  01DA  0845               	movf	??___flmul+3,w
  2577  01DB  1103               	clrz
  2578  01DC  1803               	skipnc
  2579  01DD  3E01               	addlw	1
  2580  01DE  1903               	skipnz
  2581  01DF  29E1               	goto	u256_23
  2582  01E0  07CB               	addwf	___flmul@grs+3,f
  2583  01E1                     u256_23:
  2584  01E1                     i1l1859:
  2585  01E1  083B               	movf	___flmul@b+1,w
  2586  01E2  00C2               	movwf	??___flmul
  2587  01E3  0842               	movf	??___flmul,w
  2588  01E4  00F0               	movwf	__Umul8_16@multiplicand
  2589  01E5  0840               	movf	___flmul@a+2,w
  2590  01E6  120A  158A  240C  120A  118A  	fcall	__Umul8_16
  2591  01EB  0871               	movf	?__Umul8_16+1,w
  2592  01EC  1283               	bcf	3,5	;RP0=0, select bank0
  2593  01ED  1303               	bcf	3,6	;RP1=0, select bank0
  2594  01EE  00D3               	movwf	___flmul@temp+1
  2595  01EF  0870               	movf	?__Umul8_16,w
  2596  01F0  00D2               	movwf	___flmul@temp
  2597  01F1  0852               	movf	___flmul@temp,w
  2598  01F2  00C2               	movwf	??___flmul
  2599  01F3  0853               	movf	___flmul@temp+1,w
  2600  01F4  00C3               	movwf	??___flmul+1
  2601  01F5  01C4               	clrf	??___flmul+2
  2602  01F6  01C5               	clrf	??___flmul+3
  2603  01F7  0842               	movf	??___flmul,w
  2604  01F8  07CE               	addwf	___flmul@prod,f
  2605  01F9  0843               	movf	??___flmul+1,w
  2606  01FA  1103               	clrz
  2607  01FB  1803               	skipnc
  2608  01FC  3E01               	addlw	1
  2609  01FD  1903               	skipnz
  2610  01FE  2A00               	goto	u257_21
  2611  01FF  07CF               	addwf	___flmul@prod+1,f
  2612  0200                     u257_21:
  2613  0200  0844               	movf	??___flmul+2,w
  2614  0201  1103               	clrz
  2615  0202  1803               	skipnc
  2616  0203  3E01               	addlw	1
  2617  0204  1903               	skipnz
  2618  0205  2A07               	goto	u257_22
  2619  0206  07D0               	addwf	___flmul@prod+2,f
  2620  0207                     u257_22:
  2621  0207  0845               	movf	??___flmul+3,w
  2622  0208  1103               	clrz
  2623  0209  1803               	skipnc
  2624  020A  3E01               	addlw	1
  2625  020B  1903               	skipnz
  2626  020C  2A0E               	goto	u257_23
  2627  020D  07D1               	addwf	___flmul@prod+3,f
  2628  020E                     u257_23:
  2629  020E                     i1l1861:
  2630  020E  083C               	movf	___flmul@b+2,w
  2631  020F  00C2               	movwf	??___flmul
  2632  0210  0842               	movf	??___flmul,w
  2633  0211  00F0               	movwf	__Umul8_16@multiplicand
  2634  0212  083F               	movf	___flmul@a+1,w
  2635  0213  120A  158A  240C  120A  118A  	fcall	__Umul8_16
  2636  0218  0871               	movf	?__Umul8_16+1,w
  2637  0219  1283               	bcf	3,5	;RP0=0, select bank0
  2638  021A  1303               	bcf	3,6	;RP1=0, select bank0
  2639  021B  00D3               	movwf	___flmul@temp+1
  2640  021C  0870               	movf	?__Umul8_16,w
  2641  021D  00D2               	movwf	___flmul@temp
  2642  021E                     i1l1863:
  2643  021E  0852               	movf	___flmul@temp,w
  2644  021F  00C2               	movwf	??___flmul
  2645  0220  0853               	movf	___flmul@temp+1,w
  2646  0221  00C3               	movwf	??___flmul+1
  2647  0222  01C4               	clrf	??___flmul+2
  2648  0223  01C5               	clrf	??___flmul+3
  2649  0224  0842               	movf	??___flmul,w
  2650  0225  07CE               	addwf	___flmul@prod,f
  2651  0226  0843               	movf	??___flmul+1,w
  2652  0227  1103               	clrz
  2653  0228  1803               	skipnc
  2654  0229  3E01               	addlw	1
  2655  022A  1903               	skipnz
  2656  022B  2A2D               	goto	u258_21
  2657  022C  07CF               	addwf	___flmul@prod+1,f
  2658  022D                     u258_21:
  2659  022D  0844               	movf	??___flmul+2,w
  2660  022E  1103               	clrz
  2661  022F  1803               	skipnc
  2662  0230  3E01               	addlw	1
  2663  0231  1903               	skipnz
  2664  0232  2A34               	goto	u258_22
  2665  0233  07D0               	addwf	___flmul@prod+2,f
  2666  0234                     u258_22:
  2667  0234  0845               	movf	??___flmul+3,w
  2668  0235  1103               	clrz
  2669  0236  1803               	skipnc
  2670  0237  3E01               	addlw	1
  2671  0238  1903               	skipnz
  2672  0239  2A3B               	goto	u258_23
  2673  023A  07D1               	addwf	___flmul@prod+3,f
  2674  023B                     u258_23:
  2675  023B  083C               	movf	___flmul@b+2,w
  2676  023C  00C2               	movwf	??___flmul
  2677  023D  0842               	movf	??___flmul,w
  2678  023E  00F0               	movwf	__Umul8_16@multiplicand
  2679  023F  0840               	movf	___flmul@a+2,w
  2680  0240  120A  158A  240C  120A  118A  	fcall	__Umul8_16
  2681  0245  0871               	movf	?__Umul8_16+1,w
  2682  0246  1283               	bcf	3,5	;RP0=0, select bank0
  2683  0247  1303               	bcf	3,6	;RP1=0, select bank0
  2684  0248  00D3               	movwf	___flmul@temp+1
  2685  0249  0870               	movf	?__Umul8_16,w
  2686  024A  00D2               	movwf	___flmul@temp
  2687  024B                     i1l1865:
  2688  024B  0852               	movf	___flmul@temp,w
  2689  024C  00C2               	movwf	??___flmul
  2690  024D  0853               	movf	___flmul@temp+1,w
  2691  024E  00C3               	movwf	??___flmul+1
  2692  024F  01C4               	clrf	??___flmul+2
  2693  0250  01C5               	clrf	??___flmul+3
  2694  0251  3008               	movlw	8
  2695  0252                     u259_25:
  2696  0252  1003               	clrc
  2697  0253  0DC2               	rlf	??___flmul,f
  2698  0254  0DC3               	rlf	??___flmul+1,f
  2699  0255  0DC4               	rlf	??___flmul+2,f
  2700  0256  0DC5               	rlf	??___flmul+3,f
  2701  0257                     u259_20:
  2702  0257  3EFF               	addlw	-1
  2703  0258  1D03               	skipz
  2704  0259  2A52               	goto	u259_25
  2705  025A  0842               	movf	??___flmul,w
  2706  025B  07CE               	addwf	___flmul@prod,f
  2707  025C  0843               	movf	??___flmul+1,w
  2708  025D  1103               	clrz
  2709  025E  1803               	skipnc
  2710  025F  3E01               	addlw	1
  2711  0260  1903               	skipnz
  2712  0261  2A63               	goto	u260_21
  2713  0262  07CF               	addwf	___flmul@prod+1,f
  2714  0263                     u260_21:
  2715  0263  0844               	movf	??___flmul+2,w
  2716  0264  1103               	clrz
  2717  0265  1803               	skipnc
  2718  0266  3E01               	addlw	1
  2719  0267  1903               	skipnz
  2720  0268  2A6A               	goto	u260_22
  2721  0269  07D0               	addwf	___flmul@prod+2,f
  2722  026A                     u260_22:
  2723  026A  0845               	movf	??___flmul+3,w
  2724  026B  1103               	clrz
  2725  026C  1803               	skipnc
  2726  026D  3E01               	addlw	1
  2727  026E  1903               	skipnz
  2728  026F  2A71               	goto	u260_23
  2729  0270  07D1               	addwf	___flmul@prod+3,f
  2730  0271                     u260_23:
  2731  0271                     i1l1867:
  2732  0271  0848               	movf	___flmul@grs,w
  2733  0272  00C2               	movwf	??___flmul
  2734  0273  0849               	movf	___flmul@grs+1,w
  2735  0274  00C3               	movwf	??___flmul+1
  2736  0275  084A               	movf	___flmul@grs+2,w
  2737  0276  00C4               	movwf	??___flmul+2
  2738  0277  084B               	movf	___flmul@grs+3,w
  2739  0278  00C5               	movwf	??___flmul+3
  2740  0279  3018               	movlw	24
  2741  027A                     u261_25:
  2742  027A  1003               	clrc
  2743  027B  0CC5               	rrf	??___flmul+3,f
  2744  027C  0CC4               	rrf	??___flmul+2,f
  2745  027D  0CC3               	rrf	??___flmul+1,f
  2746  027E  0CC2               	rrf	??___flmul,f
  2747  027F                     u261_20:
  2748  027F  3EFF               	addlw	-1
  2749  0280  1D03               	skipz
  2750  0281  2A7A               	goto	u261_25
  2751  0282  0842               	movf	??___flmul,w
  2752  0283  07CE               	addwf	___flmul@prod,f
  2753  0284  0843               	movf	??___flmul+1,w
  2754  0285  1103               	clrz
  2755  0286  1803               	skipnc
  2756  0287  3E01               	addlw	1
  2757  0288  1903               	skipnz
  2758  0289  2A8B               	goto	u262_21
  2759  028A  07CF               	addwf	___flmul@prod+1,f
  2760  028B                     u262_21:
  2761  028B  0844               	movf	??___flmul+2,w
  2762  028C  1103               	clrz
  2763  028D  1803               	skipnc
  2764  028E  3E01               	addlw	1
  2765  028F  1903               	skipnz
  2766  0290  2A92               	goto	u262_22
  2767  0291  07D0               	addwf	___flmul@prod+2,f
  2768  0292                     u262_22:
  2769  0292  0845               	movf	??___flmul+3,w
  2770  0293  1103               	clrz
  2771  0294  1803               	skipnc
  2772  0295  3E01               	addlw	1
  2773  0296  1903               	skipnz
  2774  0297  2A99               	goto	u262_23
  2775  0298  07D1               	addwf	___flmul@prod+3,f
  2776  0299                     u262_23:
  2777  0299                     i1l1869:
  2778  0299  3008               	movlw	8
  2779  029A  00C2               	movwf	??___flmul
  2780  029B                     u263_25:
  2781  029B  1003               	clrc
  2782  029C  0DC8               	rlf	___flmul@grs,f
  2783  029D  0DC9               	rlf	___flmul@grs+1,f
  2784  029E  0DCA               	rlf	___flmul@grs+2,f
  2785  029F  0DCB               	rlf	___flmul@grs+3,f
  2786  02A0  0BC2               	decfsz	??___flmul,f
  2787  02A1  2A9B               	goto	u263_25
  2788  02A2                     i1l1871:
  2789  02A2  084D               	movf	___flmul@bexp,w
  2790  02A3  074C               	addwf	___flmul@aexp,w
  2791  02A4  00C2               	movwf	??___flmul
  2792  02A5  01C3               	clrf	??___flmul+1
  2793  02A6  0DC3               	rlf	??___flmul+1,f
  2794  02A7  0842               	movf	??___flmul,w
  2795  02A8  3E82               	addlw	130
  2796  02A9  00D2               	movwf	___flmul@temp
  2797  02AA  0843               	movf	??___flmul+1,w
  2798  02AB  1803               	skipnc
  2799  02AC  3E01               	addlw	1
  2800  02AD  3EFF               	addlw	255
  2801  02AE  00D3               	movwf	___flmul@temp+1
  2802  02AF  2ACD               	goto	i1l1883
  2803  02B0                     i1l1873:
  2804  02B0  3001               	movlw	1
  2805  02B1  00C2               	movwf	??___flmul
  2806  02B2                     u264_25:
  2807  02B2  1003               	clrc
  2808  02B3  0DCE               	rlf	___flmul@prod,f
  2809  02B4  0DCF               	rlf	___flmul@prod+1,f
  2810  02B5  0DD0               	rlf	___flmul@prod+2,f
  2811  02B6  0DD1               	rlf	___flmul@prod+3,f
  2812  02B7  0BC2               	decfsz	??___flmul,f
  2813  02B8  2AB2               	goto	u264_25
  2814  02B9                     i1l1875:
  2815  02B9  1FCB               	btfss	___flmul@grs+3,7
  2816  02BA  2ABC               	goto	u265_21
  2817  02BB  2ABD               	goto	u265_20
  2818  02BC                     u265_21:
  2819  02BC  2ABE               	goto	i1l1879
  2820  02BD                     u265_20:
  2821  02BD                     i1l1877:
  2822  02BD  144E               	bsf	___flmul@prod,0
  2823  02BE                     i1l1879:
  2824  02BE  3001               	movlw	1
  2825  02BF  00C2               	movwf	??___flmul
  2826  02C0                     u266_25:
  2827  02C0  1003               	clrc
  2828  02C1  0DC8               	rlf	___flmul@grs,f
  2829  02C2  0DC9               	rlf	___flmul@grs+1,f
  2830  02C3  0DCA               	rlf	___flmul@grs+2,f
  2831  02C4  0DCB               	rlf	___flmul@grs+3,f
  2832  02C5  0BC2               	decfsz	??___flmul,f
  2833  02C6  2AC0               	goto	u266_25
  2834  02C7                     i1l1881:
  2835  02C7  30FF               	movlw	255
  2836  02C8  07D2               	addwf	___flmul@temp,f
  2837  02C9  1803               	skipnc
  2838  02CA  0AD3               	incf	___flmul@temp+1,f
  2839  02CB  30FF               	movlw	255
  2840  02CC  07D3               	addwf	___flmul@temp+1,f
  2841  02CD                     i1l1883:
  2842  02CD  1FD0               	btfss	___flmul@prod+2,7
  2843  02CE  2AD0               	goto	u267_21
  2844  02CF  2AD1               	goto	u267_20
  2845  02D0                     u267_21:
  2846  02D0  2AB0               	goto	i1l1873
  2847  02D1                     u267_20:
  2848  02D1                     i1l1885:
  2849  02D1  01CC               	clrf	___flmul@aexp
  2850  02D2                     i1l1887:
  2851  02D2  1FCB               	btfss	___flmul@grs+3,7
  2852  02D3  2AD5               	goto	u268_21
  2853  02D4  2AD6               	goto	u268_20
  2854  02D5                     u268_21:
  2855  02D5  2AF2               	goto	i1l1895
  2856  02D6                     u268_20:
  2857  02D6                     i1l1889:
  2858  02D6  30FF               	movlw	255
  2859  02D7  0548               	andwf	___flmul@grs,w
  2860  02D8  00C2               	movwf	??___flmul
  2861  02D9  30FF               	movlw	255
  2862  02DA  0549               	andwf	___flmul@grs+1,w
  2863  02DB  00C3               	movwf	??___flmul+1
  2864  02DC  30FF               	movlw	255
  2865  02DD  054A               	andwf	___flmul@grs+2,w
  2866  02DE  00C4               	movwf	??___flmul+2
  2867  02DF  307F               	movlw	127
  2868  02E0  054B               	andwf	___flmul@grs+3,w
  2869  02E1  00C5               	movwf	??___flmul+3
  2870  02E2  0845               	movf	??___flmul+3,w
  2871  02E3  0444               	iorwf	??___flmul+2,w
  2872  02E4  0443               	iorwf	??___flmul+1,w
  2873  02E5  0442               	iorwf	??___flmul,w
  2874  02E6  1903               	skipnz
  2875  02E7  2AE9               	goto	u269_21
  2876  02E8  2AEA               	goto	u269_20
  2877  02E9                     u269_21:
  2878  02E9  2AED               	goto	i1l582
  2879  02EA                     u269_20:
  2880  02EA                     i1l1891:
  2881  02EA  01CC               	clrf	___flmul@aexp
  2882  02EB  0ACC               	incf	___flmul@aexp,f
  2883  02EC  2AF2               	goto	i1l1895
  2884  02ED                     i1l582:
  2885  02ED  1C4E               	btfss	___flmul@prod,0
  2886  02EE  2AF0               	goto	u270_21
  2887  02EF  2AF1               	goto	u270_20
  2888  02F0                     u270_21:
  2889  02F0  2AF2               	goto	i1l1895
  2890  02F1                     u270_20:
  2891  02F1  2AEA               	goto	i1l1891
  2892  02F2                     i1l1895:
  2893  02F2  084C               	movf	___flmul@aexp,w
  2894  02F3  1903               	btfsc	3,2
  2895  02F4  2AF6               	goto	u271_21
  2896  02F5  2AF7               	goto	u271_20
  2897  02F6                     u271_21:
  2898  02F6  2B28               	goto	i1l1905
  2899  02F7                     u271_20:
  2900  02F7                     i1l1897:
  2901  02F7  3001               	movlw	1
  2902  02F8  07CE               	addwf	___flmul@prod,f
  2903  02F9  3000               	movlw	0
  2904  02FA  1803               	skipnc
  2905  02FB  3001               	movlw	1
  2906  02FC  07CF               	addwf	___flmul@prod+1,f
  2907  02FD  3000               	movlw	0
  2908  02FE  1803               	skipnc
  2909  02FF  3001               	movlw	1
  2910  0300  07D0               	addwf	___flmul@prod+2,f
  2911  0301  3000               	movlw	0
  2912  0302  1803               	skipnc
  2913  0303  3001               	movlw	1
  2914  0304  07D1               	addwf	___flmul@prod+3,f
  2915  0305                     i1l1899:
  2916  0305  1C51               	btfss	___flmul@prod+3,0
  2917  0306  2B08               	goto	u272_21
  2918  0307  2B09               	goto	u272_20
  2919  0308                     u272_21:
  2920  0308  2B28               	goto	i1l1905
  2921  0309                     u272_20:
  2922  0309                     i1l1901:
  2923  0309  084E               	movf	___flmul@prod,w
  2924  030A  00C2               	movwf	??___flmul
  2925  030B  084F               	movf	___flmul@prod+1,w
  2926  030C  00C3               	movwf	??___flmul+1
  2927  030D  0850               	movf	___flmul@prod+2,w
  2928  030E  00C4               	movwf	??___flmul+2
  2929  030F  0851               	movf	___flmul@prod+3,w
  2930  0310  00C5               	movwf	??___flmul+3
  2931  0311  3001               	movlw	1
  2932  0312  00C6               	movwf	??___flmul+4
  2933  0313                     u273_25:
  2934  0313  0D45               	rlf	??___flmul+3,w
  2935  0314  0CC5               	rrf	??___flmul+3,f
  2936  0315  0CC4               	rrf	??___flmul+2,f
  2937  0316  0CC3               	rrf	??___flmul+1,f
  2938  0317  0CC2               	rrf	??___flmul,f
  2939  0318                     u273_20:
  2940  0318  0BC6               	decfsz	??___flmul+4,f
  2941  0319  2B13               	goto	u273_25
  2942  031A  0845               	movf	??___flmul+3,w
  2943  031B  00D1               	movwf	___flmul@prod+3
  2944  031C  0844               	movf	??___flmul+2,w
  2945  031D  00D0               	movwf	___flmul@prod+2
  2946  031E  0843               	movf	??___flmul+1,w
  2947  031F  00CF               	movwf	___flmul@prod+1
  2948  0320  0842               	movf	??___flmul,w
  2949  0321  00CE               	movwf	___flmul@prod
  2950  0322                     i1l1903:
  2951  0322  3001               	movlw	1
  2952  0323  07D2               	addwf	___flmul@temp,f
  2953  0324  1803               	skipnc
  2954  0325  0AD3               	incf	___flmul@temp+1,f
  2955  0326  3000               	movlw	0
  2956  0327  07D3               	addwf	___flmul@temp+1,f
  2957  0328                     i1l1905:
  2958  0328  0853               	movf	___flmul@temp+1,w
  2959  0329  3A80               	xorlw	128
  2960  032A  00FF               	movwf	btemp+1
  2961  032B  3080               	movlw	128
  2962  032C  027F               	subwf	btemp+1,w
  2963  032D  1D03               	skipz
  2964  032E  2B31               	goto	u274_25
  2965  032F  30FF               	movlw	255
  2966  0330  0252               	subwf	___flmul@temp,w
  2967  0331                     u274_25:
  2968  0331  1C03               	skipc
  2969  0332  2B34               	goto	u274_21
  2970  0333  2B35               	goto	u274_20
  2971  0334                     u274_21:
  2972  0334  2B40               	goto	i1l1909
  2973  0335                     u274_20:
  2974  0335                     i1l1907:
  2975  0335  307F               	movlw	127
  2976  0336  1283               	bcf	3,5	;RP0=0, select bank0
  2977  0337  1303               	bcf	3,6	;RP1=0, select bank0
  2978  0338  00D1               	movwf	___flmul@prod+3
  2979  0339  3080               	movlw	128
  2980  033A  00D0               	movwf	___flmul@prod+2
  2981  033B  3000               	movlw	0
  2982  033C  00CF               	movwf	___flmul@prod+1
  2983  033D  3000               	movlw	0
  2984  033E  00CE               	movwf	___flmul@prod
  2985  033F  2B75               	goto	i1l588
  2986  0340                     i1l1909:
  2987  0340  1283               	bcf	3,5	;RP0=0, select bank0
  2988  0341  1303               	bcf	3,6	;RP1=0, select bank0
  2989  0342  0853               	movf	___flmul@temp+1,w
  2990  0343  3A80               	xorlw	128
  2991  0344  00FF               	movwf	btemp+1
  2992  0345  3080               	movlw	128
  2993  0346  027F               	subwf	btemp+1,w
  2994  0347  1D03               	skipz
  2995  0348  2B4B               	goto	u275_25
  2996  0349  3001               	movlw	1
  2997  034A  0252               	subwf	___flmul@temp,w
  2998  034B                     u275_25:
  2999  034B  1803               	skipnc
  3000  034C  2B4E               	goto	u275_21
  3001  034D  2B4F               	goto	u275_20
  3002  034E                     u275_21:
  3003  034E  2B5B               	goto	i1l1915
  3004  034F                     u275_20:
  3005  034F                     i1l1911:
  3006  034F  3000               	movlw	0
  3007  0350  1283               	bcf	3,5	;RP0=0, select bank0
  3008  0351  1303               	bcf	3,6	;RP1=0, select bank0
  3009  0352  00D1               	movwf	___flmul@prod+3
  3010  0353  3000               	movlw	0
  3011  0354  00D0               	movwf	___flmul@prod+2
  3012  0355  3000               	movlw	0
  3013  0356  00CF               	movwf	___flmul@prod+1
  3014  0357  3000               	movlw	0
  3015  0358  00CE               	movwf	___flmul@prod
  3016  0359                     i1l1913:
  3017  0359  01C7               	clrf	___flmul@sign
  3018  035A  2B75               	goto	i1l588
  3019  035B                     i1l1915:
  3020  035B  1283               	bcf	3,5	;RP0=0, select bank0
  3021  035C  1303               	bcf	3,6	;RP1=0, select bank0
  3022  035D  0852               	movf	___flmul@temp,w
  3023  035E  00C2               	movwf	??___flmul
  3024  035F  0842               	movf	??___flmul,w
  3025  0360  00CD               	movwf	___flmul@bexp
  3026  0361  30FF               	movlw	255
  3027  0362  05CE               	andwf	___flmul@prod,f
  3028  0363  30FF               	movlw	255
  3029  0364  05CF               	andwf	___flmul@prod+1,f
  3030  0365  307F               	movlw	127
  3031  0366  05D0               	andwf	___flmul@prod+2,f
  3032  0367  3000               	movlw	0
  3033  0368  05D1               	andwf	___flmul@prod+3,f
  3034  0369                     i1l1917:
  3035  0369  1C4D               	btfss	___flmul@bexp,0
  3036  036A  2B6C               	goto	u276_21
  3037  036B  2B6D               	goto	u276_20
  3038  036C                     u276_21:
  3039  036C  2B6E               	goto	i1l1921
  3040  036D                     u276_20:
  3041  036D                     i1l1919:
  3042  036D  17D0               	bsf	___flmul@prod+2,7
  3043  036E                     i1l1921:
  3044  036E  084D               	movf	___flmul@bexp,w
  3045  036F  00C2               	movwf	??___flmul
  3046  0370  1003               	clrc
  3047  0371  0C42               	rrf	??___flmul,w
  3048  0372  00C3               	movwf	??___flmul+1
  3049  0373  0843               	movf	??___flmul+1,w
  3050  0374  00D1               	movwf	___flmul@prod+3
  3051  0375                     i1l588:
  3052  0375  0847               	movf	___flmul@sign,w
  3053  0376  00C2               	movwf	??___flmul
  3054  0377  0842               	movf	??___flmul,w
  3055  0378  04D1               	iorwf	___flmul@prod+3,f
  3056  0379                     i1l1923:
  3057  0379  0851               	movf	___flmul@prod+3,w
  3058  037A  00BD               	movwf	?___flmul+3
  3059  037B  0850               	movf	___flmul@prod+2,w
  3060  037C  00BC               	movwf	?___flmul+2
  3061  037D  084F               	movf	___flmul@prod+1,w
  3062  037E  00BB               	movwf	?___flmul+1
  3063  037F  084E               	movf	___flmul@prod,w
  3064  0380  00BA               	movwf	?___flmul
  3065  0381                     i1l576:
  3066  0381  0008               	return
  3067  0382                     __end_of___flmul:
  3068                           
  3069                           	psect	text7
  3070  0C0C                     __ptext7:	
  3071 ;; *************** function __Umul8_16 *****************
  3072 ;; Defined at:
  3073 ;;		line 4 in file "C:\Program Files\Microchip\xc8\v2.35\pic\sources\c90\common\Umul8_16.c"
  3074 ;; Parameters:    Size  Location     Type
  3075 ;;  multiplier      1    wreg     unsigned char 
  3076 ;;  multiplicand    1    0[COMMON] unsigned char 
  3077 ;; Auto vars:     Size  Location     Type
  3078 ;;  multiplier      1    8[COMMON] unsigned char 
  3079 ;;  word_mpld       2    6[COMMON] unsigned int 
  3080 ;;  product         2    4[COMMON] unsigned int 
  3081 ;; Return value:  Size  Location     Type
  3082 ;;                  2    0[COMMON] unsigned int 
  3083 ;; Registers used:
  3084 ;;		wreg, status,2, status,0
  3085 ;; Tracked objects:
  3086 ;;		On entry : 0/0
  3087 ;;		On exit  : 0/0
  3088 ;;		Unchanged: 0/0
  3089 ;; Data sizes:     COMMON   BANK0   BANK1   BANK3   BANK2
  3090 ;;      Params:         2       0       0       0       0
  3091 ;;      Locals:         5       0       0       0       0
  3092 ;;      Temps:          2       0       0       0       0
  3093 ;;      Totals:         9       0       0       0       0
  3094 ;;Total ram usage:        9 bytes
  3095 ;; Hardware stack levels used: 1
  3096 ;; This function calls:
  3097 ;;		Nothing
  3098 ;; This function is called by:
  3099 ;;		___flmul
  3100 ;; This function uses a non-reentrant model
  3101 ;;
  3102                           
  3103  0C0C                     __Umul8_16:	
  3104                           ;psect for function __Umul8_16
  3105                           
  3106                           
  3107                           ;incstack = 0
  3108                           ; Regs used in __Umul8_16: [wreg+status,2+status,0]
  3109                           ;__Umul8_16@multiplier stored from wreg
  3110  0C0C  00F8               	movwf	__Umul8_16@multiplier
  3111  0C0D                     i1l1401:
  3112  0C0D  01F4               	clrf	__Umul8_16@product
  3113  0C0E  01F5               	clrf	__Umul8_16@product+1
  3114  0C0F                     i1l1403:
  3115  0C0F  0870               	movf	__Umul8_16@multiplicand,w
  3116  0C10  00F2               	movwf	??__Umul8_16
  3117  0C11  01F3               	clrf	??__Umul8_16+1
  3118  0C12  0872               	movf	??__Umul8_16,w
  3119  0C13  00F6               	movwf	__Umul8_16@word_mpld
  3120  0C14  0873               	movf	??__Umul8_16+1,w
  3121  0C15  00F7               	movwf	__Umul8_16@word_mpld+1
  3122  0C16                     i1l1405:
  3123  0C16  1C78               	btfss	__Umul8_16@multiplier,0
  3124  0C17  2C19               	goto	u152_21
  3125  0C18  2C1A               	goto	u152_20
  3126  0C19                     u152_21:
  3127  0C19  2C20               	goto	i1l595
  3128  0C1A                     u152_20:
  3129  0C1A                     i1l1407:
  3130  0C1A  0876               	movf	__Umul8_16@word_mpld,w
  3131  0C1B  07F4               	addwf	__Umul8_16@product,f
  3132  0C1C  1803               	skipnc
  3133  0C1D  0AF5               	incf	__Umul8_16@product+1,f
  3134  0C1E  0877               	movf	__Umul8_16@word_mpld+1,w
  3135  0C1F  07F5               	addwf	__Umul8_16@product+1,f
  3136  0C20                     i1l595:
  3137  0C20  3001               	movlw	1
  3138  0C21                     u153_25:
  3139  0C21  1003               	clrc
  3140  0C22  0DF6               	rlf	__Umul8_16@word_mpld,f
  3141  0C23  0DF7               	rlf	__Umul8_16@word_mpld+1,f
  3142  0C24  3EFF               	addlw	-1
  3143  0C25  1D03               	skipz
  3144  0C26  2C21               	goto	u153_25
  3145  0C27  1003               	clrc
  3146  0C28  0CF8               	rrf	__Umul8_16@multiplier,f
  3147  0C29                     i1l1409:
  3148  0C29  0878               	movf	__Umul8_16@multiplier,w
  3149  0C2A  1D03               	btfss	3,2
  3150  0C2B  2C2D               	goto	u154_21
  3151  0C2C  2C2E               	goto	u154_20
  3152  0C2D                     u154_21:
  3153  0C2D  2C16               	goto	i1l1405
  3154  0C2E                     u154_20:
  3155  0C2E                     i1l1411:
  3156  0C2E  0875               	movf	__Umul8_16@product+1,w
  3157  0C2F  00F1               	movwf	?__Umul8_16+1
  3158  0C30  0874               	movf	__Umul8_16@product,w
  3159  0C31  00F0               	movwf	?__Umul8_16
  3160  0C32                     i1l597:
  3161  0C32  0008               	return
  3162  0C33                     __end_of__Umul8_16:
  3163                           
  3164                           	psect	text8
  3165  060A                     __ptext8:	
  3166 ;; *************** function ___fldiv *****************
  3167 ;; Defined at:
  3168 ;;		line 8 in file "C:\Program Files\Microchip\xc8\v2.35\pic\sources\c90\common\sprcdiv.c"
  3169 ;; Parameters:    Size  Location     Type
  3170 ;;  a               4    0[BANK0 ] unsigned int 
  3171 ;;  b               4    4[BANK0 ] unsigned int 
  3172 ;; Auto vars:     Size  Location     Type
  3173 ;;  grs             4   20[BANK0 ] unsigned long 
  3174 ;;  rem             4   13[BANK0 ] unsigned long 
  3175 ;;  new_exp         2   18[BANK0 ] int 
  3176 ;;  aexp            1   25[BANK0 ] unsigned char 
  3177 ;;  bexp            1   24[BANK0 ] unsigned char 
  3178 ;;  sign            1   17[BANK0 ] unsigned char 
  3179 ;; Return value:  Size  Location     Type
  3180 ;;                  4    0[BANK0 ] unsigned char 
  3181 ;; Registers used:
  3182 ;;		wreg, status,2, status,0, btemp+1
  3183 ;; Tracked objects:
  3184 ;;		On entry : 0/0
  3185 ;;		On exit  : 0/0
  3186 ;;		Unchanged: 0/0
  3187 ;; Data sizes:     COMMON   BANK0   BANK1   BANK3   BANK2
  3188 ;;      Params:         0       8       0       0       0
  3189 ;;      Locals:         0      13       0       0       0
  3190 ;;      Temps:          0       5       0       0       0
  3191 ;;      Totals:         0      26       0       0       0
  3192 ;;Total ram usage:       26 bytes
  3193 ;; Hardware stack levels used: 1
  3194 ;; This function calls:
  3195 ;;		Nothing
  3196 ;; This function is called by:
  3197 ;;		_map
  3198 ;; This function uses a non-reentrant model
  3199 ;;
  3200                           
  3201  060A                     ___fldiv:	
  3202                           ;psect for function ___fldiv
  3203                           
  3204  060A                     i1l1645:	
  3205                           ;incstack = 0
  3206                           ; Regs used in ___fldiv: [wreg+status,2+status,0+btemp+1]
  3207                           
  3208  060A  1283               	bcf	3,5	;RP0=0, select bank0
  3209  060B  1303               	bcf	3,6	;RP1=0, select bank0
  3210  060C  0827               	movf	___fldiv@b+3,w
  3211  060D  3980               	andlw	128
  3212  060E  00A8               	movwf	??___fldiv
  3213  060F  0828               	movf	??___fldiv,w
  3214  0610  00B1               	movwf	___fldiv@sign
  3215  0611                     i1l1647:
  3216  0611  0827               	movf	___fldiv@b+3,w
  3217  0612  00A8               	movwf	??___fldiv
  3218  0613  0728               	addwf	??___fldiv,w
  3219  0614  00A9               	movwf	??___fldiv+1
  3220  0615  0829               	movf	??___fldiv+1,w
  3221  0616  00B8               	movwf	___fldiv@bexp
  3222  0617                     i1l1649:
  3223  0617  1FA6               	btfss	___fldiv@b+2,7
  3224  0618  2E1A               	goto	u211_21
  3225  0619  2E1B               	goto	u211_20
  3226  061A                     u211_21:
  3227  061A  2E1C               	goto	i1l1653
  3228  061B                     u211_20:
  3229  061B                     i1l1651:
  3230  061B  1438               	bsf	___fldiv@bexp,0
  3231  061C                     i1l1653:
  3232  061C  0838               	movf	___fldiv@bexp,w
  3233  061D  1903               	btfsc	3,2
  3234  061E  2E20               	goto	u212_21
  3235  061F  2E21               	goto	u212_20
  3236  0620                     u212_21:
  3237  0620  2E31               	goto	i1l1663
  3238  0621                     u212_20:
  3239  0621                     i1l1655:
  3240  0621  0A38               	incf	___fldiv@bexp,w
  3241  0622  1D03               	btfss	3,2
  3242  0623  2E25               	goto	u213_21
  3243  0624  2E26               	goto	u213_20
  3244  0625                     u213_21:
  3245  0625  2E2E               	goto	i1l1659
  3246  0626                     u213_20:
  3247  0626                     i1l1657:
  3248  0626  3000               	movlw	0
  3249  0627  00A7               	movwf	___fldiv@b+3
  3250  0628  3000               	movlw	0
  3251  0629  00A6               	movwf	___fldiv@b+2
  3252  062A  3000               	movlw	0
  3253  062B  00A5               	movwf	___fldiv@b+1
  3254  062C  3000               	movlw	0
  3255  062D  00A4               	movwf	___fldiv@b
  3256  062E                     i1l1659:
  3257  062E  17A6               	bsf	___fldiv@b+2,7
  3258  062F                     i1l1661:
  3259  062F  01A7               	clrf	___fldiv@b+3
  3260  0630  2E39               	goto	i1l1665
  3261  0631                     i1l1663:
  3262  0631  3000               	movlw	0
  3263  0632  00A7               	movwf	___fldiv@b+3
  3264  0633  3000               	movlw	0
  3265  0634  00A6               	movwf	___fldiv@b+2
  3266  0635  3000               	movlw	0
  3267  0636  00A5               	movwf	___fldiv@b+1
  3268  0637  3000               	movlw	0
  3269  0638  00A4               	movwf	___fldiv@b
  3270  0639                     i1l1665:
  3271  0639  0823               	movf	___fldiv@a+3,w
  3272  063A  3980               	andlw	128
  3273  063B  00A8               	movwf	??___fldiv
  3274  063C  0828               	movf	??___fldiv,w
  3275  063D  06B1               	xorwf	___fldiv@sign,f
  3276  063E                     i1l1667:
  3277  063E  0823               	movf	___fldiv@a+3,w
  3278  063F  00A8               	movwf	??___fldiv
  3279  0640  0728               	addwf	??___fldiv,w
  3280  0641  00A9               	movwf	??___fldiv+1
  3281  0642  0829               	movf	??___fldiv+1,w
  3282  0643  00B9               	movwf	___fldiv@aexp
  3283  0644                     i1l1669:
  3284  0644  1FA2               	btfss	___fldiv@a+2,7
  3285  0645  2E47               	goto	u214_21
  3286  0646  2E48               	goto	u214_20
  3287  0647                     u214_21:
  3288  0647  2E49               	goto	i1l1673
  3289  0648                     u214_20:
  3290  0648                     i1l1671:
  3291  0648  1439               	bsf	___fldiv@aexp,0
  3292  0649                     i1l1673:
  3293  0649  0839               	movf	___fldiv@aexp,w
  3294  064A  1903               	btfsc	3,2
  3295  064B  2E4D               	goto	u215_21
  3296  064C  2E4E               	goto	u215_20
  3297  064D                     u215_21:
  3298  064D  2E5E               	goto	i1l1683
  3299  064E                     u215_20:
  3300  064E                     i1l1675:
  3301  064E  0A39               	incf	___fldiv@aexp,w
  3302  064F  1D03               	btfss	3,2
  3303  0650  2E52               	goto	u216_21
  3304  0651  2E53               	goto	u216_20
  3305  0652                     u216_21:
  3306  0652  2E5B               	goto	i1l1679
  3307  0653                     u216_20:
  3308  0653                     i1l1677:
  3309  0653  3000               	movlw	0
  3310  0654  00A3               	movwf	___fldiv@a+3
  3311  0655  3000               	movlw	0
  3312  0656  00A2               	movwf	___fldiv@a+2
  3313  0657  3000               	movlw	0
  3314  0658  00A1               	movwf	___fldiv@a+1
  3315  0659  3000               	movlw	0
  3316  065A  00A0               	movwf	___fldiv@a
  3317  065B                     i1l1679:
  3318  065B  17A2               	bsf	___fldiv@a+2,7
  3319  065C                     i1l1681:
  3320  065C  01A3               	clrf	___fldiv@a+3
  3321  065D  2E66               	goto	i1l536
  3322  065E                     i1l1683:
  3323  065E  3000               	movlw	0
  3324  065F  00A3               	movwf	___fldiv@a+3
  3325  0660  3000               	movlw	0
  3326  0661  00A2               	movwf	___fldiv@a+2
  3327  0662  3000               	movlw	0
  3328  0663  00A1               	movwf	___fldiv@a+1
  3329  0664  3000               	movlw	0
  3330  0665  00A0               	movwf	___fldiv@a
  3331  0666                     i1l536:
  3332  0666  0823               	movf	___fldiv@a+3,w
  3333  0667  0422               	iorwf	___fldiv@a+2,w
  3334  0668  0421               	iorwf	___fldiv@a+1,w
  3335  0669  0420               	iorwf	___fldiv@a,w
  3336  066A  1D03               	skipz
  3337  066B  2E6D               	goto	u217_21
  3338  066C  2E6E               	goto	u217_20
  3339  066D                     u217_21:
  3340  066D  2E87               	goto	i1l1693
  3341  066E                     u217_20:
  3342  066E                     i1l1685:
  3343  066E  3000               	movlw	0
  3344  066F  00A7               	movwf	___fldiv@b+3
  3345  0670  3000               	movlw	0
  3346  0671  00A6               	movwf	___fldiv@b+2
  3347  0672  3000               	movlw	0
  3348  0673  00A5               	movwf	___fldiv@b+1
  3349  0674  3000               	movlw	0
  3350  0675  00A4               	movwf	___fldiv@b
  3351  0676  3080               	movlw	128
  3352  0677  04A6               	iorwf	___fldiv@b+2,f
  3353  0678  307F               	movlw	127
  3354  0679  04A7               	iorwf	___fldiv@b+3,f
  3355  067A                     i1l1687:
  3356  067A  0831               	movf	___fldiv@sign,w
  3357  067B  00A8               	movwf	??___fldiv
  3358  067C  0828               	movf	??___fldiv,w
  3359  067D  04A7               	iorwf	___fldiv@b+3,f
  3360  067E                     i1l1689:
  3361  067E  0827               	movf	___fldiv@b+3,w
  3362  067F  00A3               	movwf	?___fldiv+3
  3363  0680  0826               	movf	___fldiv@b+2,w
  3364  0681  00A2               	movwf	?___fldiv+2
  3365  0682  0825               	movf	___fldiv@b+1,w
  3366  0683  00A1               	movwf	?___fldiv+1
  3367  0684  0824               	movf	___fldiv@b,w
  3368  0685  00A0               	movwf	?___fldiv
  3369  0686  2FE6               	goto	i1l538
  3370  0687                     i1l1693:
  3371  0687  0838               	movf	___fldiv@bexp,w
  3372  0688  1D03               	btfss	3,2
  3373  0689  2E8B               	goto	u218_21
  3374  068A  2E8C               	goto	u218_20
  3375  068B                     u218_21:
  3376  068B  2E95               	goto	i1l1699
  3377  068C                     u218_20:
  3378  068C                     i1l1695:
  3379  068C  3000               	movlw	0
  3380  068D  00A3               	movwf	?___fldiv+3
  3381  068E  3000               	movlw	0
  3382  068F  00A2               	movwf	?___fldiv+2
  3383  0690  3000               	movlw	0
  3384  0691  00A1               	movwf	?___fldiv+1
  3385  0692  3000               	movlw	0
  3386  0693  00A0               	movwf	?___fldiv
  3387  0694  2FE6               	goto	i1l538
  3388  0695                     i1l1699:
  3389  0695  0838               	movf	___fldiv@bexp,w
  3390  0696  00A8               	movwf	??___fldiv
  3391  0697  01A9               	clrf	??___fldiv+1
  3392  0698  0829               	movf	??___fldiv+1,w
  3393  0699  00AB               	movwf	??___fldiv+3
  3394  069A  0839               	movf	___fldiv@aexp,w
  3395  069B  0228               	subwf	??___fldiv,w
  3396  069C  00AA               	movwf	??___fldiv+2
  3397  069D  1C03               	skipc
  3398  069E  03AB               	decf	??___fldiv+3,f
  3399  069F  082A               	movf	??___fldiv+2,w
  3400  06A0  3E7F               	addlw	127
  3401  06A1  00B2               	movwf	___fldiv@new_exp
  3402  06A2  082B               	movf	??___fldiv+3,w
  3403  06A3  1803               	skipnc
  3404  06A4  3E01               	addlw	1
  3405  06A5  3E00               	addlw	0
  3406  06A6  00B3               	movwf	___fldiv@new_exp+1
  3407  06A7                     i1l1701:
  3408  06A7  0827               	movf	___fldiv@b+3,w
  3409  06A8  00B0               	movwf	___fldiv@rem+3
  3410  06A9  0826               	movf	___fldiv@b+2,w
  3411  06AA  00AF               	movwf	___fldiv@rem+2
  3412  06AB  0825               	movf	___fldiv@b+1,w
  3413  06AC  00AE               	movwf	___fldiv@rem+1
  3414  06AD  0824               	movf	___fldiv@b,w
  3415  06AE  00AD               	movwf	___fldiv@rem
  3416  06AF                     i1l1703:
  3417  06AF  3000               	movlw	0
  3418  06B0  00A7               	movwf	___fldiv@b+3
  3419  06B1  3000               	movlw	0
  3420  06B2  00A6               	movwf	___fldiv@b+2
  3421  06B3  3000               	movlw	0
  3422  06B4  00A5               	movwf	___fldiv@b+1
  3423  06B5  3000               	movlw	0
  3424  06B6  00A4               	movwf	___fldiv@b
  3425  06B7                     i1l1705:
  3426  06B7  3000               	movlw	0
  3427  06B8  00B7               	movwf	___fldiv@grs+3
  3428  06B9  3000               	movlw	0
  3429  06BA  00B6               	movwf	___fldiv@grs+2
  3430  06BB  3000               	movlw	0
  3431  06BC  00B5               	movwf	___fldiv@grs+1
  3432  06BD  3000               	movlw	0
  3433  06BE  00B4               	movwf	___fldiv@grs
  3434  06BF                     i1l1707:
  3435  06BF  01B9               	clrf	___fldiv@aexp
  3436  06C0  2F0B               	goto	i1l1727
  3437  06C1                     i1l1709:
  3438  06C1  0839               	movf	___fldiv@aexp,w
  3439  06C2  1903               	btfsc	3,2
  3440  06C3  2EC5               	goto	u219_21
  3441  06C4  2EC6               	goto	u219_20
  3442  06C5                     u219_21:
  3443  06C5  2EE6               	goto	i1l1719
  3444  06C6                     u219_20:
  3445  06C6                     i1l1711:
  3446  06C6  3001               	movlw	1
  3447  06C7  00A8               	movwf	??___fldiv
  3448  06C8                     u220_25:
  3449  06C8  1003               	clrc
  3450  06C9  0DAD               	rlf	___fldiv@rem,f
  3451  06CA  0DAE               	rlf	___fldiv@rem+1,f
  3452  06CB  0DAF               	rlf	___fldiv@rem+2,f
  3453  06CC  0DB0               	rlf	___fldiv@rem+3,f
  3454  06CD  0BA8               	decfsz	??___fldiv,f
  3455  06CE  2EC8               	goto	u220_25
  3456  06CF  3001               	movlw	1
  3457  06D0  00A8               	movwf	??___fldiv
  3458  06D1                     u221_25:
  3459  06D1  1003               	clrc
  3460  06D2  0DA4               	rlf	___fldiv@b,f
  3461  06D3  0DA5               	rlf	___fldiv@b+1,f
  3462  06D4  0DA6               	rlf	___fldiv@b+2,f
  3463  06D5  0DA7               	rlf	___fldiv@b+3,f
  3464  06D6  0BA8               	decfsz	??___fldiv,f
  3465  06D7  2ED1               	goto	u221_25
  3466  06D8                     i1l1713:
  3467  06D8  1FB7               	btfss	___fldiv@grs+3,7
  3468  06D9  2EDB               	goto	u222_21
  3469  06DA  2EDC               	goto	u222_20
  3470  06DB                     u222_21:
  3471  06DB  2EDD               	goto	i1l1717
  3472  06DC                     u222_20:
  3473  06DC                     i1l1715:
  3474  06DC  1424               	bsf	___fldiv@b,0
  3475  06DD                     i1l1717:
  3476  06DD  3001               	movlw	1
  3477  06DE  00A8               	movwf	??___fldiv
  3478  06DF                     u223_25:
  3479  06DF  1003               	clrc
  3480  06E0  0DB4               	rlf	___fldiv@grs,f
  3481  06E1  0DB5               	rlf	___fldiv@grs+1,f
  3482  06E2  0DB6               	rlf	___fldiv@grs+2,f
  3483  06E3  0DB7               	rlf	___fldiv@grs+3,f
  3484  06E4  0BA8               	decfsz	??___fldiv,f
  3485  06E5  2EDF               	goto	u223_25
  3486  06E6                     i1l1719:
  3487  06E6  0823               	movf	___fldiv@a+3,w
  3488  06E7  0230               	subwf	___fldiv@rem+3,w
  3489  06E8  1D03               	skipz
  3490  06E9  2EF4               	goto	u224_25
  3491  06EA  0822               	movf	___fldiv@a+2,w
  3492  06EB  022F               	subwf	___fldiv@rem+2,w
  3493  06EC  1D03               	skipz
  3494  06ED  2EF4               	goto	u224_25
  3495  06EE  0821               	movf	___fldiv@a+1,w
  3496  06EF  022E               	subwf	___fldiv@rem+1,w
  3497  06F0  1D03               	skipz
  3498  06F1  2EF4               	goto	u224_25
  3499  06F2  0820               	movf	___fldiv@a,w
  3500  06F3  022D               	subwf	___fldiv@rem,w
  3501  06F4                     u224_25:
  3502  06F4  1C03               	skipc
  3503  06F5  2EF7               	goto	u224_21
  3504  06F6  2EF8               	goto	u224_20
  3505  06F7                     u224_21:
  3506  06F7  2F07               	goto	i1l1725
  3507  06F8                     u224_20:
  3508  06F8                     i1l1721:
  3509  06F8  1737               	bsf	___fldiv@grs+3,6
  3510  06F9                     i1l1723:
  3511  06F9  0820               	movf	___fldiv@a,w
  3512  06FA  02AD               	subwf	___fldiv@rem,f
  3513  06FB  0821               	movf	___fldiv@a+1,w
  3514  06FC  1C03               	skipc
  3515  06FD  0F21               	incfsz	___fldiv@a+1,w
  3516  06FE  02AE               	subwf	___fldiv@rem+1,f
  3517  06FF  0822               	movf	___fldiv@a+2,w
  3518  0700  1C03               	skipc
  3519  0701  0F22               	incfsz	___fldiv@a+2,w
  3520  0702  02AF               	subwf	___fldiv@rem+2,f
  3521  0703  0823               	movf	___fldiv@a+3,w
  3522  0704  1C03               	skipc
  3523  0705  0F23               	incfsz	___fldiv@a+3,w
  3524  0706  02B0               	subwf	___fldiv@rem+3,f
  3525  0707                     i1l1725:
  3526  0707  3001               	movlw	1
  3527  0708  00A8               	movwf	??___fldiv
  3528  0709  0828               	movf	??___fldiv,w
  3529  070A  07B9               	addwf	___fldiv@aexp,f
  3530  070B                     i1l1727:
  3531  070B  301A               	movlw	26
  3532  070C  0239               	subwf	___fldiv@aexp,w
  3533  070D  1C03               	skipc
  3534  070E  2F10               	goto	u225_21
  3535  070F  2F11               	goto	u225_20
  3536  0710                     u225_21:
  3537  0710  2EC1               	goto	i1l1709
  3538  0711                     u225_20:
  3539  0711                     i1l1729:
  3540  0711  0830               	movf	___fldiv@rem+3,w
  3541  0712  042F               	iorwf	___fldiv@rem+2,w
  3542  0713  042E               	iorwf	___fldiv@rem+1,w
  3543  0714  042D               	iorwf	___fldiv@rem,w
  3544  0715  1903               	skipnz
  3545  0716  2F18               	goto	u226_21
  3546  0717  2F19               	goto	u226_20
  3547  0718                     u226_21:
  3548  0718  2F38               	goto	i1l1743
  3549  0719                     u226_20:
  3550  0719                     i1l1731:
  3551  0719  1434               	bsf	___fldiv@grs,0
  3552  071A  2F38               	goto	i1l1743
  3553  071B                     i1l1733:
  3554  071B  3001               	movlw	1
  3555  071C  00A8               	movwf	??___fldiv
  3556  071D                     u227_25:
  3557  071D  1003               	clrc
  3558  071E  0DA4               	rlf	___fldiv@b,f
  3559  071F  0DA5               	rlf	___fldiv@b+1,f
  3560  0720  0DA6               	rlf	___fldiv@b+2,f
  3561  0721  0DA7               	rlf	___fldiv@b+3,f
  3562  0722  0BA8               	decfsz	??___fldiv,f
  3563  0723  2F1D               	goto	u227_25
  3564  0724                     i1l1735:
  3565  0724  1FB7               	btfss	___fldiv@grs+3,7
  3566  0725  2F27               	goto	u228_21
  3567  0726  2F28               	goto	u228_20
  3568  0727                     u228_21:
  3569  0727  2F29               	goto	i1l1739
  3570  0728                     u228_20:
  3571  0728                     i1l1737:
  3572  0728  1424               	bsf	___fldiv@b,0
  3573  0729                     i1l1739:
  3574  0729  3001               	movlw	1
  3575  072A  00A8               	movwf	??___fldiv
  3576  072B                     u229_25:
  3577  072B  1003               	clrc
  3578  072C  0DB4               	rlf	___fldiv@grs,f
  3579  072D  0DB5               	rlf	___fldiv@grs+1,f
  3580  072E  0DB6               	rlf	___fldiv@grs+2,f
  3581  072F  0DB7               	rlf	___fldiv@grs+3,f
  3582  0730  0BA8               	decfsz	??___fldiv,f
  3583  0731  2F2B               	goto	u229_25
  3584  0732                     i1l1741:
  3585  0732  30FF               	movlw	255
  3586  0733  07B2               	addwf	___fldiv@new_exp,f
  3587  0734  1803               	skipnc
  3588  0735  0AB3               	incf	___fldiv@new_exp+1,f
  3589  0736  30FF               	movlw	255
  3590  0737  07B3               	addwf	___fldiv@new_exp+1,f
  3591  0738                     i1l1743:
  3592  0738  1FA6               	btfss	___fldiv@b+2,7
  3593  0739  2F3B               	goto	u230_21
  3594  073A  2F3C               	goto	u230_20
  3595  073B                     u230_21:
  3596  073B  2F1B               	goto	i1l1733
  3597  073C                     u230_20:
  3598  073C                     i1l1745:
  3599  073C  01B9               	clrf	___fldiv@aexp
  3600  073D                     i1l1747:
  3601  073D  1FB7               	btfss	___fldiv@grs+3,7
  3602  073E  2F40               	goto	u231_21
  3603  073F  2F41               	goto	u231_20
  3604  0740                     u231_21:
  3605  0740  2F5D               	goto	i1l1755
  3606  0741                     u231_20:
  3607  0741                     i1l1749:
  3608  0741  30FF               	movlw	255
  3609  0742  0534               	andwf	___fldiv@grs,w
  3610  0743  00A8               	movwf	??___fldiv
  3611  0744  30FF               	movlw	255
  3612  0745  0535               	andwf	___fldiv@grs+1,w
  3613  0746  00A9               	movwf	??___fldiv+1
  3614  0747  30FF               	movlw	255
  3615  0748  0536               	andwf	___fldiv@grs+2,w
  3616  0749  00AA               	movwf	??___fldiv+2
  3617  074A  307F               	movlw	127
  3618  074B  0537               	andwf	___fldiv@grs+3,w
  3619  074C  00AB               	movwf	??___fldiv+3
  3620  074D  082B               	movf	??___fldiv+3,w
  3621  074E  042A               	iorwf	??___fldiv+2,w
  3622  074F  0429               	iorwf	??___fldiv+1,w
  3623  0750  0428               	iorwf	??___fldiv,w
  3624  0751  1903               	skipnz
  3625  0752  2F54               	goto	u232_21
  3626  0753  2F55               	goto	u232_20
  3627  0754                     u232_21:
  3628  0754  2F58               	goto	i1l552
  3629  0755                     u232_20:
  3630  0755                     i1l1751:
  3631  0755  01B9               	clrf	___fldiv@aexp
  3632  0756  0AB9               	incf	___fldiv@aexp,f
  3633  0757  2F5D               	goto	i1l1755
  3634  0758                     i1l552:
  3635  0758  1C24               	btfss	___fldiv@b,0
  3636  0759  2F5B               	goto	u233_21
  3637  075A  2F5C               	goto	u233_20
  3638  075B                     u233_21:
  3639  075B  2F5D               	goto	i1l1755
  3640  075C                     u233_20:
  3641  075C  2F55               	goto	i1l1751
  3642  075D                     i1l1755:
  3643  075D  0839               	movf	___fldiv@aexp,w
  3644  075E  1903               	btfsc	3,2
  3645  075F  2F61               	goto	u234_21
  3646  0760  2F62               	goto	u234_20
  3647  0761                     u234_21:
  3648  0761  2F93               	goto	i1l1765
  3649  0762                     u234_20:
  3650  0762                     i1l1757:
  3651  0762  3001               	movlw	1
  3652  0763  07A4               	addwf	___fldiv@b,f
  3653  0764  3000               	movlw	0
  3654  0765  1803               	skipnc
  3655  0766  3001               	movlw	1
  3656  0767  07A5               	addwf	___fldiv@b+1,f
  3657  0768  3000               	movlw	0
  3658  0769  1803               	skipnc
  3659  076A  3001               	movlw	1
  3660  076B  07A6               	addwf	___fldiv@b+2,f
  3661  076C  3000               	movlw	0
  3662  076D  1803               	skipnc
  3663  076E  3001               	movlw	1
  3664  076F  07A7               	addwf	___fldiv@b+3,f
  3665  0770                     i1l1759:
  3666  0770  1C27               	btfss	___fldiv@b+3,0
  3667  0771  2F73               	goto	u235_21
  3668  0772  2F74               	goto	u235_20
  3669  0773                     u235_21:
  3670  0773  2F93               	goto	i1l1765
  3671  0774                     u235_20:
  3672  0774                     i1l1761:
  3673  0774  0824               	movf	___fldiv@b,w
  3674  0775  00A8               	movwf	??___fldiv
  3675  0776  0825               	movf	___fldiv@b+1,w
  3676  0777  00A9               	movwf	??___fldiv+1
  3677  0778  0826               	movf	___fldiv@b+2,w
  3678  0779  00AA               	movwf	??___fldiv+2
  3679  077A  0827               	movf	___fldiv@b+3,w
  3680  077B  00AB               	movwf	??___fldiv+3
  3681  077C  3001               	movlw	1
  3682  077D  00AC               	movwf	??___fldiv+4
  3683  077E                     u236_25:
  3684  077E  0D2B               	rlf	??___fldiv+3,w
  3685  077F  0CAB               	rrf	??___fldiv+3,f
  3686  0780  0CAA               	rrf	??___fldiv+2,f
  3687  0781  0CA9               	rrf	??___fldiv+1,f
  3688  0782  0CA8               	rrf	??___fldiv,f
  3689  0783                     u236_20:
  3690  0783  0BAC               	decfsz	??___fldiv+4,f
  3691  0784  2F7E               	goto	u236_25
  3692  0785  082B               	movf	??___fldiv+3,w
  3693  0786  00A7               	movwf	___fldiv@b+3
  3694  0787  082A               	movf	??___fldiv+2,w
  3695  0788  00A6               	movwf	___fldiv@b+2
  3696  0789  0829               	movf	??___fldiv+1,w
  3697  078A  00A5               	movwf	___fldiv@b+1
  3698  078B  0828               	movf	??___fldiv,w
  3699  078C  00A4               	movwf	___fldiv@b
  3700  078D                     i1l1763:
  3701  078D  3001               	movlw	1
  3702  078E  07B2               	addwf	___fldiv@new_exp,f
  3703  078F  1803               	skipnc
  3704  0790  0AB3               	incf	___fldiv@new_exp+1,f
  3705  0791  3000               	movlw	0
  3706  0792  07B3               	addwf	___fldiv@new_exp+1,f
  3707  0793                     i1l1765:
  3708  0793  0833               	movf	___fldiv@new_exp+1,w
  3709  0794  3A80               	xorlw	128
  3710  0795  00FF               	movwf	btemp+1
  3711  0796  3080               	movlw	128
  3712  0797  027F               	subwf	btemp+1,w
  3713  0798  1D03               	skipz
  3714  0799  2F9C               	goto	u237_25
  3715  079A  30FF               	movlw	255
  3716  079B  0232               	subwf	___fldiv@new_exp,w
  3717  079C                     u237_25:
  3718  079C  1C03               	skipc
  3719  079D  2F9F               	goto	u237_21
  3720  079E  2FA0               	goto	u237_20
  3721  079F                     u237_21:
  3722  079F  2FAE               	goto	i1l1769
  3723  07A0                     u237_20:
  3724  07A0                     i1l1767:
  3725  07A0  30FF               	movlw	255
  3726  07A1  1283               	bcf	3,5	;RP0=0, select bank0
  3727  07A2  1303               	bcf	3,6	;RP1=0, select bank0
  3728  07A3  00B2               	movwf	___fldiv@new_exp
  3729  07A4  3000               	movlw	0
  3730  07A5  00B3               	movwf	___fldiv@new_exp+1
  3731  07A6  3000               	movlw	0
  3732  07A7  00A7               	movwf	___fldiv@b+3
  3733  07A8  3000               	movlw	0
  3734  07A9  00A6               	movwf	___fldiv@b+2
  3735  07AA  3000               	movlw	0
  3736  07AB  00A5               	movwf	___fldiv@b+1
  3737  07AC  3000               	movlw	0
  3738  07AD  00A4               	movwf	___fldiv@b
  3739  07AE                     i1l1769:
  3740  07AE  1283               	bcf	3,5	;RP0=0, select bank0
  3741  07AF  1303               	bcf	3,6	;RP1=0, select bank0
  3742  07B0  0833               	movf	___fldiv@new_exp+1,w
  3743  07B1  3A80               	xorlw	128
  3744  07B2  00FF               	movwf	btemp+1
  3745  07B3  3080               	movlw	128
  3746  07B4  027F               	subwf	btemp+1,w
  3747  07B5  1D03               	skipz
  3748  07B6  2FB9               	goto	u238_25
  3749  07B7  3001               	movlw	1
  3750  07B8  0232               	subwf	___fldiv@new_exp,w
  3751  07B9                     u238_25:
  3752  07B9  1803               	skipnc
  3753  07BA  2FBC               	goto	u238_21
  3754  07BB  2FBD               	goto	u238_20
  3755  07BC                     u238_21:
  3756  07BC  2FCA               	goto	i1l558
  3757  07BD                     u238_20:
  3758  07BD                     i1l1771:
  3759  07BD  1283               	bcf	3,5	;RP0=0, select bank0
  3760  07BE  1303               	bcf	3,6	;RP1=0, select bank0
  3761  07BF  01B2               	clrf	___fldiv@new_exp
  3762  07C0  01B3               	clrf	___fldiv@new_exp+1
  3763  07C1                     i1l1773:
  3764  07C1  3000               	movlw	0
  3765  07C2  00A7               	movwf	___fldiv@b+3
  3766  07C3  3000               	movlw	0
  3767  07C4  00A6               	movwf	___fldiv@b+2
  3768  07C5  3000               	movlw	0
  3769  07C6  00A5               	movwf	___fldiv@b+1
  3770  07C7  3000               	movlw	0
  3771  07C8  00A4               	movwf	___fldiv@b
  3772  07C9                     i1l1775:
  3773  07C9  01B1               	clrf	___fldiv@sign
  3774  07CA                     i1l558:
  3775  07CA  1283               	bcf	3,5	;RP0=0, select bank0
  3776  07CB  1303               	bcf	3,6	;RP1=0, select bank0
  3777  07CC  0832               	movf	___fldiv@new_exp,w
  3778  07CD  00A8               	movwf	??___fldiv
  3779  07CE  0828               	movf	??___fldiv,w
  3780  07CF  00B8               	movwf	___fldiv@bexp
  3781  07D0                     i1l1777:
  3782  07D0  1C38               	btfss	___fldiv@bexp,0
  3783  07D1  2FD3               	goto	u239_21
  3784  07D2  2FD4               	goto	u239_20
  3785  07D3                     u239_21:
  3786  07D3  2FD6               	goto	i1l1781
  3787  07D4                     u239_20:
  3788  07D4                     i1l1779:
  3789  07D4  17A6               	bsf	___fldiv@b+2,7
  3790  07D5  2FDA               	goto	i1l560
  3791  07D6                     i1l1781:
  3792  07D6  307F               	movlw	127
  3793  07D7  00A8               	movwf	??___fldiv
  3794  07D8  0828               	movf	??___fldiv,w
  3795  07D9  05A6               	andwf	___fldiv@b+2,f
  3796  07DA                     i1l560:
  3797  07DA  0838               	movf	___fldiv@bexp,w
  3798  07DB  00A8               	movwf	??___fldiv
  3799  07DC  1003               	clrc
  3800  07DD  0C28               	rrf	??___fldiv,w
  3801  07DE  00A9               	movwf	??___fldiv+1
  3802  07DF  0829               	movf	??___fldiv+1,w
  3803  07E0  00A7               	movwf	___fldiv@b+3
  3804  07E1  0831               	movf	___fldiv@sign,w
  3805  07E2  00A8               	movwf	??___fldiv
  3806  07E3  0828               	movf	??___fldiv,w
  3807  07E4  04A7               	iorwf	___fldiv@b+3,f
  3808  07E5  2E7E               	goto	i1l1689
  3809  07E6                     i1l538:
  3810  07E6  0008               	return
  3811  07E7                     __end_of___fldiv:
  3812                           
  3813                           	psect	text9
  3814  0382                     __ptext9:	
  3815 ;; *************** function ___fladd *****************
  3816 ;; Defined at:
  3817 ;;		line 10 in file "C:\Program Files\Microchip\xc8\v2.35\pic\sources\c90\common\sprcadd.c"
  3818 ;; Parameters:    Size  Location     Type
  3819 ;;  b               4   52[BANK0 ] unsigned char 
  3820 ;;  a               4   56[BANK0 ] unsigned char 
  3821 ;; Auto vars:     Size  Location     Type
  3822 ;;  grs             1   71[BANK0 ] unsigned char 
  3823 ;;  bexp            1   70[BANK0 ] unsigned char 
  3824 ;;  aexp            1   69[BANK0 ] unsigned char 
  3825 ;;  signs           1   68[BANK0 ] unsigned char 
  3826 ;; Return value:  Size  Location     Type
  3827 ;;                  4   52[BANK0 ] unsigned char 
  3828 ;; Registers used:
  3829 ;;		wreg, status,2, status,0, btemp+1
  3830 ;; Tracked objects:
  3831 ;;		On entry : 0/0
  3832 ;;		On exit  : 0/0
  3833 ;;		Unchanged: 0/0
  3834 ;; Data sizes:     COMMON   BANK0   BANK1   BANK3   BANK2
  3835 ;;      Params:         0       8       0       0       0
  3836 ;;      Locals:         0       4       0       0       0
  3837 ;;      Temps:          0       8       0       0       0
  3838 ;;      Totals:         0      20       0       0       0
  3839 ;;Total ram usage:       20 bytes
  3840 ;; Hardware stack levels used: 1
  3841 ;; This function calls:
  3842 ;;		Nothing
  3843 ;; This function is called by:
  3844 ;;		_map
  3845 ;; This function uses a non-reentrant model
  3846 ;;
  3847                           
  3848  0382                     ___fladd:	
  3849                           ;psect for function ___fladd
  3850                           
  3851  0382                     i1l1451:	
  3852                           ;incstack = 0
  3853                           ; Regs used in ___fladd: [wreg+status,2+status,0+btemp+1]
  3854                           
  3855  0382  1283               	bcf	3,5	;RP0=0, select bank0
  3856  0383  1303               	bcf	3,6	;RP1=0, select bank0
  3857  0384  0857               	movf	___fladd@b+3,w
  3858  0385  3980               	andlw	128
  3859  0386  00DC               	movwf	??___fladd
  3860  0387  085C               	movf	??___fladd,w
  3861  0388  00E4               	movwf	___fladd@signs
  3862  0389                     i1l1453:
  3863  0389  0857               	movf	___fladd@b+3,w
  3864  038A  00DC               	movwf	??___fladd
  3865  038B  075C               	addwf	??___fladd,w
  3866  038C  00DD               	movwf	??___fladd+1
  3867  038D  085D               	movf	??___fladd+1,w
  3868  038E  00E6               	movwf	___fladd@bexp
  3869  038F                     i1l1455:
  3870  038F  1FD6               	btfss	___fladd@b+2,7
  3871  0390  2B92               	goto	u165_21
  3872  0391  2B93               	goto	u165_20
  3873  0392                     u165_21:
  3874  0392  2B94               	goto	i1l1459
  3875  0393                     u165_20:
  3876  0393                     i1l1457:
  3877  0393  1466               	bsf	___fladd@bexp,0
  3878  0394                     i1l1459:
  3879  0394  0866               	movf	___fladd@bexp,w
  3880  0395  1903               	btfsc	3,2
  3881  0396  2B98               	goto	u166_21
  3882  0397  2B99               	goto	u166_20
  3883  0398                     u166_21:
  3884  0398  2BA9               	goto	i1l1469
  3885  0399                     u166_20:
  3886  0399                     i1l1461:
  3887  0399  0A66               	incf	___fladd@bexp,w
  3888  039A  1D03               	btfss	3,2
  3889  039B  2B9D               	goto	u167_21
  3890  039C  2B9E               	goto	u167_20
  3891  039D                     u167_21:
  3892  039D  2BA6               	goto	i1l1465
  3893  039E                     u167_20:
  3894  039E                     i1l1463:
  3895  039E  3000               	movlw	0
  3896  039F  00D7               	movwf	___fladd@b+3
  3897  03A0  3000               	movlw	0
  3898  03A1  00D6               	movwf	___fladd@b+2
  3899  03A2  3000               	movlw	0
  3900  03A3  00D5               	movwf	___fladd@b+1
  3901  03A4  3000               	movlw	0
  3902  03A5  00D4               	movwf	___fladd@b
  3903  03A6                     i1l1465:
  3904  03A6  17D6               	bsf	___fladd@b+2,7
  3905  03A7                     i1l1467:
  3906  03A7  01D7               	clrf	___fladd@b+3
  3907  03A8  2BB1               	goto	i1l1471
  3908  03A9                     i1l1469:
  3909  03A9  3000               	movlw	0
  3910  03AA  00D7               	movwf	___fladd@b+3
  3911  03AB  3000               	movlw	0
  3912  03AC  00D6               	movwf	___fladd@b+2
  3913  03AD  3000               	movlw	0
  3914  03AE  00D5               	movwf	___fladd@b+1
  3915  03AF  3000               	movlw	0
  3916  03B0  00D4               	movwf	___fladd@b
  3917  03B1                     i1l1471:
  3918  03B1  085B               	movf	___fladd@a+3,w
  3919  03B2  3980               	andlw	128
  3920  03B3  00DC               	movwf	??___fladd
  3921  03B4  085C               	movf	??___fladd,w
  3922  03B5  00E5               	movwf	___fladd@aexp
  3923  03B6                     i1l1473:
  3924  03B6  0865               	movf	___fladd@aexp,w
  3925  03B7  0664               	xorwf	___fladd@signs,w
  3926  03B8  1903               	skipnz
  3927  03B9  2BBB               	goto	u168_21
  3928  03BA  2BBC               	goto	u168_20
  3929  03BB                     u168_21:
  3930  03BB  2BBD               	goto	i1l1477
  3931  03BC                     u168_20:
  3932  03BC                     i1l1475:
  3933  03BC  1764               	bsf	___fladd@signs,6
  3934  03BD                     i1l1477:
  3935  03BD  085B               	movf	___fladd@a+3,w
  3936  03BE  00DC               	movwf	??___fladd
  3937  03BF  075C               	addwf	??___fladd,w
  3938  03C0  00DD               	movwf	??___fladd+1
  3939  03C1  085D               	movf	??___fladd+1,w
  3940  03C2  00E5               	movwf	___fladd@aexp
  3941  03C3                     i1l1479:
  3942  03C3  1FDA               	btfss	___fladd@a+2,7
  3943  03C4  2BC6               	goto	u169_21
  3944  03C5  2BC7               	goto	u169_20
  3945  03C6                     u169_21:
  3946  03C6  2BC8               	goto	i1l1483
  3947  03C7                     u169_20:
  3948  03C7                     i1l1481:
  3949  03C7  1465               	bsf	___fladd@aexp,0
  3950  03C8                     i1l1483:
  3951  03C8  0865               	movf	___fladd@aexp,w
  3952  03C9  1903               	btfsc	3,2
  3953  03CA  2BCC               	goto	u170_21
  3954  03CB  2BCD               	goto	u170_20
  3955  03CC                     u170_21:
  3956  03CC  2BDD               	goto	i1l1493
  3957  03CD                     u170_20:
  3958  03CD                     i1l1485:
  3959  03CD  0A65               	incf	___fladd@aexp,w
  3960  03CE  1D03               	btfss	3,2
  3961  03CF  2BD1               	goto	u171_21
  3962  03D0  2BD2               	goto	u171_20
  3963  03D1                     u171_21:
  3964  03D1  2BDA               	goto	i1l1489
  3965  03D2                     u171_20:
  3966  03D2                     i1l1487:
  3967  03D2  3000               	movlw	0
  3968  03D3  00DB               	movwf	___fladd@a+3
  3969  03D4  3000               	movlw	0
  3970  03D5  00DA               	movwf	___fladd@a+2
  3971  03D6  3000               	movlw	0
  3972  03D7  00D9               	movwf	___fladd@a+1
  3973  03D8  3000               	movlw	0
  3974  03D9  00D8               	movwf	___fladd@a
  3975  03DA                     i1l1489:
  3976  03DA  17DA               	bsf	___fladd@a+2,7
  3977  03DB                     i1l1491:
  3978  03DB  01DB               	clrf	___fladd@a+3
  3979  03DC  2BE5               	goto	i1l480
  3980  03DD                     i1l1493:
  3981  03DD  3000               	movlw	0
  3982  03DE  00DB               	movwf	___fladd@a+3
  3983  03DF  3000               	movlw	0
  3984  03E0  00DA               	movwf	___fladd@a+2
  3985  03E1  3000               	movlw	0
  3986  03E2  00D9               	movwf	___fladd@a+1
  3987  03E3  3000               	movlw	0
  3988  03E4  00D8               	movwf	___fladd@a
  3989  03E5                     i1l480:
  3990  03E5  0866               	movf	___fladd@bexp,w
  3991  03E6  0265               	subwf	___fladd@aexp,w
  3992  03E7  1803               	skipnc
  3993  03E8  2BEA               	goto	u172_21
  3994  03E9  2BEB               	goto	u172_20
  3995  03EA                     u172_21:
  3996  03EA  2C2F               	goto	i1l1529
  3997  03EB                     u172_20:
  3998  03EB                     i1l1495:
  3999  03EB  1F64               	btfss	___fladd@signs,6
  4000  03EC  2BEE               	goto	u173_21
  4001  03ED  2BEF               	goto	u173_20
  4002  03EE                     u173_21:
  4003  03EE  2BF3               	goto	i1l1499
  4004  03EF                     u173_20:
  4005  03EF                     i1l1497:
  4006  03EF  3080               	movlw	128
  4007  03F0  00DC               	movwf	??___fladd
  4008  03F1  085C               	movf	??___fladd,w
  4009  03F2  06E4               	xorwf	___fladd@signs,f
  4010  03F3                     i1l1499:
  4011  03F3  0866               	movf	___fladd@bexp,w
  4012  03F4  00DC               	movwf	??___fladd
  4013  03F5  085C               	movf	??___fladd,w
  4014  03F6  00E7               	movwf	___fladd@grs
  4015  03F7                     i1l1501:
  4016  03F7  0865               	movf	___fladd@aexp,w
  4017  03F8  00DC               	movwf	??___fladd
  4018  03F9  085C               	movf	??___fladd,w
  4019  03FA  00E6               	movwf	___fladd@bexp
  4020  03FB                     i1l1503:
  4021  03FB  0867               	movf	___fladd@grs,w
  4022  03FC  00DC               	movwf	??___fladd
  4023  03FD  085C               	movf	??___fladd,w
  4024  03FE  00E5               	movwf	___fladd@aexp
  4025  03FF                     i1l1505:
  4026  03FF  0854               	movf	___fladd@b,w
  4027  0400  00DC               	movwf	??___fladd
  4028  0401  085C               	movf	??___fladd,w
  4029  0402  00E7               	movwf	___fladd@grs
  4030  0403                     i1l1507:
  4031  0403  0858               	movf	___fladd@a,w
  4032  0404  00DC               	movwf	??___fladd
  4033  0405  085C               	movf	??___fladd,w
  4034  0406  00D4               	movwf	___fladd@b
  4035  0407                     i1l1509:
  4036  0407  0867               	movf	___fladd@grs,w
  4037  0408  00DC               	movwf	??___fladd
  4038  0409  085C               	movf	??___fladd,w
  4039  040A  00D8               	movwf	___fladd@a
  4040  040B                     i1l1511:
  4041  040B  0855               	movf	___fladd@b+1,w
  4042  040C  00DC               	movwf	??___fladd
  4043  040D  085C               	movf	??___fladd,w
  4044  040E  00E7               	movwf	___fladd@grs
  4045  040F                     i1l1513:
  4046  040F  0859               	movf	___fladd@a+1,w
  4047  0410  00DC               	movwf	??___fladd
  4048  0411  085C               	movf	??___fladd,w
  4049  0412  00D5               	movwf	___fladd@b+1
  4050  0413                     i1l1515:
  4051  0413  0867               	movf	___fladd@grs,w
  4052  0414  00DC               	movwf	??___fladd
  4053  0415  085C               	movf	??___fladd,w
  4054  0416  00D9               	movwf	___fladd@a+1
  4055  0417                     i1l1517:
  4056  0417  0856               	movf	___fladd@b+2,w
  4057  0418  00DC               	movwf	??___fladd
  4058  0419  085C               	movf	??___fladd,w
  4059  041A  00E7               	movwf	___fladd@grs
  4060  041B                     i1l1519:
  4061  041B  085A               	movf	___fladd@a+2,w
  4062  041C  00DC               	movwf	??___fladd
  4063  041D  085C               	movf	??___fladd,w
  4064  041E  00D6               	movwf	___fladd@b+2
  4065  041F                     i1l1521:
  4066  041F  0867               	movf	___fladd@grs,w
  4067  0420  00DC               	movwf	??___fladd
  4068  0421  085C               	movf	??___fladd,w
  4069  0422  00DA               	movwf	___fladd@a+2
  4070  0423                     i1l1523:
  4071  0423  0857               	movf	___fladd@b+3,w
  4072  0424  00DC               	movwf	??___fladd
  4073  0425  085C               	movf	??___fladd,w
  4074  0426  00E7               	movwf	___fladd@grs
  4075  0427                     i1l1525:
  4076  0427  085B               	movf	___fladd@a+3,w
  4077  0428  00DC               	movwf	??___fladd
  4078  0429  085C               	movf	??___fladd,w
  4079  042A  00D7               	movwf	___fladd@b+3
  4080  042B                     i1l1527:
  4081  042B  0867               	movf	___fladd@grs,w
  4082  042C  00DC               	movwf	??___fladd
  4083  042D  085C               	movf	??___fladd,w
  4084  042E  00DB               	movwf	___fladd@a+3
  4085  042F                     i1l1529:
  4086  042F  01E7               	clrf	___fladd@grs
  4087  0430                     i1l1531:
  4088  0430  0865               	movf	___fladd@aexp,w
  4089  0431  00DC               	movwf	??___fladd
  4090  0432  01DD               	clrf	??___fladd+1
  4091  0433  085D               	movf	??___fladd+1,w
  4092  0434  00DF               	movwf	??___fladd+3
  4093  0435  0866               	movf	___fladd@bexp,w
  4094  0436  025C               	subwf	??___fladd,w
  4095  0437  00DE               	movwf	??___fladd+2
  4096  0438  1C03               	skipc
  4097  0439  03DF               	decf	??___fladd+3,f
  4098  043A  085F               	movf	??___fladd+3,w
  4099  043B  3A80               	xorlw	128
  4100  043C  00FF               	movwf	btemp+1
  4101  043D  3080               	movlw	128
  4102  043E  027F               	subwf	btemp+1,w
  4103  043F  1D03               	skipz
  4104  0440  2C43               	goto	u174_25
  4105  0441  301A               	movlw	26
  4106  0442  025E               	subwf	??___fladd+2,w
  4107  0443                     u174_25:
  4108  0443  1C03               	skipc
  4109  0444  2C46               	goto	u174_21
  4110  0445  2C47               	goto	u174_20
  4111  0446                     u174_21:
  4112  0446  2C84               	goto	i1l1547
  4113  0447                     u174_20:
  4114  0447                     i1l1533:
  4115  0447  1283               	bcf	3,5	;RP0=0, select bank0
  4116  0448  1303               	bcf	3,6	;RP1=0, select bank0
  4117  0449  0857               	movf	___fladd@b+3,w
  4118  044A  0456               	iorwf	___fladd@b+2,w
  4119  044B  0455               	iorwf	___fladd@b+1,w
  4120  044C  0454               	iorwf	___fladd@b,w
  4121  044D  1D03               	skipz
  4122  044E  2C50               	goto	u175_21
  4123  044F  2C52               	goto	u175_20
  4124  0450                     u175_21:
  4125  0450  3001               	movlw	1
  4126  0451  2C53               	goto	u176_20
  4127  0452                     u175_20:
  4128  0452  3000               	movlw	0
  4129  0453                     u176_20:
  4130  0453  00DC               	movwf	??___fladd
  4131  0454  085C               	movf	??___fladd,w
  4132  0455  00E7               	movwf	___fladd@grs
  4133  0456  3000               	movlw	0
  4134  0457  00D7               	movwf	___fladd@b+3
  4135  0458  3000               	movlw	0
  4136  0459  00D6               	movwf	___fladd@b+2
  4137  045A  3000               	movlw	0
  4138  045B  00D5               	movwf	___fladd@b+1
  4139  045C  3000               	movlw	0
  4140  045D  00D4               	movwf	___fladd@b
  4141  045E  0865               	movf	___fladd@aexp,w
  4142  045F  00DC               	movwf	??___fladd
  4143  0460  085C               	movf	??___fladd,w
  4144  0461  00E6               	movwf	___fladd@bexp
  4145  0462  2C8C               	goto	i1l484
  4146  0463                     i1l486:
  4147  0463  1C67               	btfss	___fladd@grs,0
  4148  0464  2C66               	goto	u177_21
  4149  0465  2C67               	goto	u177_20
  4150  0466                     u177_21:
  4151  0466  2C70               	goto	i1l1537
  4152  0467                     u177_20:
  4153  0467                     i1l1535:
  4154  0467  0867               	movf	___fladd@grs,w
  4155  0468  00DC               	movwf	??___fladd
  4156  0469  1003               	clrc
  4157  046A  0C5C               	rrf	??___fladd,w
  4158  046B  3801               	iorlw	1
  4159  046C  00DD               	movwf	??___fladd+1
  4160  046D  085D               	movf	??___fladd+1,w
  4161  046E  00E7               	movwf	___fladd@grs
  4162  046F  2C72               	goto	i1l1539
  4163  0470                     i1l1537:
  4164  0470  1003               	clrc
  4165  0471  0CE7               	rrf	___fladd@grs,f
  4166  0472                     i1l1539:
  4167  0472  1C54               	btfss	___fladd@b,0
  4168  0473  2C75               	goto	u178_21
  4169  0474  2C76               	goto	u178_20
  4170  0475                     u178_21:
  4171  0475  2C77               	goto	i1l1543
  4172  0476                     u178_20:
  4173  0476                     i1l1541:
  4174  0476  17E7               	bsf	___fladd@grs,7
  4175  0477                     i1l1543:
  4176  0477  3001               	movlw	1
  4177  0478  00DC               	movwf	??___fladd
  4178  0479                     u179_25:
  4179  0479  0D57               	rlf	___fladd@b+3,w
  4180  047A  0CD7               	rrf	___fladd@b+3,f
  4181  047B  0CD6               	rrf	___fladd@b+2,f
  4182  047C  0CD5               	rrf	___fladd@b+1,f
  4183  047D  0CD4               	rrf	___fladd@b,f
  4184  047E  0BDC               	decfsz	??___fladd& (0+127),f
  4185  047F  2C79               	goto	u179_25
  4186  0480                     i1l1545:
  4187  0480  3001               	movlw	1
  4188  0481  00DC               	movwf	??___fladd
  4189  0482  085C               	movf	??___fladd,w
  4190  0483  07E6               	addwf	___fladd@bexp,f
  4191  0484                     i1l1547:
  4192  0484  1283               	bcf	3,5	;RP0=0, select bank0
  4193  0485  1303               	bcf	3,6	;RP1=0, select bank0
  4194  0486  0865               	movf	___fladd@aexp,w
  4195  0487  0266               	subwf	___fladd@bexp,w
  4196  0488  1C03               	skipc
  4197  0489  2C8B               	goto	u180_21
  4198  048A  2C8C               	goto	u180_20
  4199  048B                     u180_21:
  4200  048B  2C63               	goto	i1l486
  4201  048C                     u180_20:
  4202  048C                     i1l484:
  4203  048C  1B64               	btfsc	___fladd@signs,6
  4204  048D  2C8F               	goto	u181_21
  4205  048E  2C90               	goto	u181_20
  4206  048F                     u181_21:
  4207  048F  2CDB               	goto	i1l1573
  4208  0490                     u181_20:
  4209  0490                     i1l1549:
  4210  0490  0866               	movf	___fladd@bexp,w
  4211  0491  1D03               	btfss	3,2
  4212  0492  2C94               	goto	u182_21
  4213  0493  2C95               	goto	u182_20
  4214  0494                     u182_21:
  4215  0494  2C9E               	goto	i1l1555
  4216  0495                     u182_20:
  4217  0495                     i1l1551:
  4218  0495  3000               	movlw	0
  4219  0496  00D7               	movwf	?___fladd+3
  4220  0497  3000               	movlw	0
  4221  0498  00D6               	movwf	?___fladd+2
  4222  0499  3000               	movlw	0
  4223  049A  00D5               	movwf	?___fladd+1
  4224  049B  3000               	movlw	0
  4225  049C  00D4               	movwf	?___fladd
  4226  049D  2E09               	goto	i1l493
  4227  049E                     i1l1555:
  4228  049E  0858               	movf	___fladd@a,w
  4229  049F  07D4               	addwf	___fladd@b,f
  4230  04A0  0859               	movf	___fladd@a+1,w
  4231  04A1  1103               	clrz
  4232  04A2  1803               	skipnc
  4233  04A3  3E01               	addlw	1
  4234  04A4  1903               	skipnz
  4235  04A5  2CA7               	goto	u183_21
  4236  04A6  07D5               	addwf	___fladd@b+1,f
  4237  04A7                     u183_21:
  4238  04A7  085A               	movf	___fladd@a+2,w
  4239  04A8  1103               	clrz
  4240  04A9  1803               	skipnc
  4241  04AA  3E01               	addlw	1
  4242  04AB  1903               	skipnz
  4243  04AC  2CAE               	goto	u183_22
  4244  04AD  07D6               	addwf	___fladd@b+2,f
  4245  04AE                     u183_22:
  4246  04AE  085B               	movf	___fladd@a+3,w
  4247  04AF  1103               	clrz
  4248  04B0  1803               	skipnc
  4249  04B1  3E01               	addlw	1
  4250  04B2  1903               	skipnz
  4251  04B3  2CB5               	goto	u183_23
  4252  04B4  07D7               	addwf	___fladd@b+3,f
  4253  04B5                     u183_23:
  4254  04B5                     i1l1557:
  4255  04B5  1C57               	btfss	___fladd@b+3,0
  4256  04B6  2CB8               	goto	u184_21
  4257  04B7  2CB9               	goto	u184_20
  4258  04B8                     u184_21:
  4259  04B8  2D8F               	goto	i1l1607
  4260  04B9                     u184_20:
  4261  04B9                     i1l1559:
  4262  04B9  1C67               	btfss	___fladd@grs,0
  4263  04BA  2CBC               	goto	u185_21
  4264  04BB  2CBD               	goto	u185_20
  4265  04BC                     u185_21:
  4266  04BC  2CC6               	goto	i1l1563
  4267  04BD                     u185_20:
  4268  04BD                     i1l1561:
  4269  04BD  0867               	movf	___fladd@grs,w
  4270  04BE  00DC               	movwf	??___fladd
  4271  04BF  1003               	clrc
  4272  04C0  0C5C               	rrf	??___fladd,w
  4273  04C1  3801               	iorlw	1
  4274  04C2  00DD               	movwf	??___fladd+1
  4275  04C3  085D               	movf	??___fladd+1,w
  4276  04C4  00E7               	movwf	___fladd@grs
  4277  04C5  2CC8               	goto	i1l1565
  4278  04C6                     i1l1563:
  4279  04C6  1003               	clrc
  4280  04C7  0CE7               	rrf	___fladd@grs,f
  4281  04C8                     i1l1565:
  4282  04C8  1C54               	btfss	___fladd@b,0
  4283  04C9  2CCB               	goto	u186_21
  4284  04CA  2CCC               	goto	u186_20
  4285  04CB                     u186_21:
  4286  04CB  2CCD               	goto	i1l1569
  4287  04CC                     u186_20:
  4288  04CC                     i1l1567:
  4289  04CC  17E7               	bsf	___fladd@grs,7
  4290  04CD                     i1l1569:
  4291  04CD  3001               	movlw	1
  4292  04CE  00DC               	movwf	??___fladd
  4293  04CF                     u187_25:
  4294  04CF  0D57               	rlf	___fladd@b+3,w
  4295  04D0  0CD7               	rrf	___fladd@b+3,f
  4296  04D1  0CD6               	rrf	___fladd@b+2,f
  4297  04D2  0CD5               	rrf	___fladd@b+1,f
  4298  04D3  0CD4               	rrf	___fladd@b,f
  4299  04D4  0BDC               	decfsz	??___fladd& (0+127),f
  4300  04D5  2CCF               	goto	u187_25
  4301  04D6                     i1l1571:
  4302  04D6  3001               	movlw	1
  4303  04D7  00DC               	movwf	??___fladd
  4304  04D8  085C               	movf	??___fladd,w
  4305  04D9  07E6               	addwf	___fladd@bexp,f
  4306  04DA  2D8F               	goto	i1l1607
  4307  04DB                     i1l1573:
  4308  04DB  0857               	movf	___fladd@b+3,w
  4309  04DC  3A80               	xorlw	128
  4310  04DD  00FF               	movwf	btemp+1
  4311  04DE  085B               	movf	___fladd@a+3,w
  4312  04DF  3A80               	xorlw	128
  4313  04E0  027F               	subwf	btemp+1,w
  4314  04E1  1D03               	skipz
  4315  04E2  2CED               	goto	u188_23
  4316  04E3  085A               	movf	___fladd@a+2,w
  4317  04E4  0256               	subwf	___fladd@b+2,w
  4318  04E5  1D03               	skipz
  4319  04E6  2CED               	goto	u188_23
  4320  04E7  0859               	movf	___fladd@a+1,w
  4321  04E8  0255               	subwf	___fladd@b+1,w
  4322  04E9  1D03               	skipz
  4323  04EA  2CED               	goto	u188_23
  4324  04EB  0858               	movf	___fladd@a,w
  4325  04EC  0254               	subwf	___fladd@b,w
  4326  04ED                     u188_23:
  4327  04ED  1803               	skipnc
  4328  04EE  2CF0               	goto	u188_21
  4329  04EF  2CF1               	goto	u188_20
  4330  04F0                     u188_21:
  4331  04F0  2D49               	goto	i1l1583
  4332  04F1                     u188_20:
  4333  04F1                     i1l1575:
  4334  04F1  30FF               	movlw	255
  4335  04F2  00DC               	movwf	??___fladd
  4336  04F3  30FF               	movlw	255
  4337  04F4  00DD               	movwf	??___fladd+1
  4338  04F5  30FF               	movlw	255
  4339  04F6  00DE               	movwf	??___fladd+2
  4340  04F7  30FF               	movlw	255
  4341  04F8  00DF               	movwf	??___fladd+3
  4342  04F9  0858               	movf	___fladd@a,w
  4343  04FA  00E0               	movwf	??___fladd+4
  4344  04FB  0859               	movf	___fladd@a+1,w
  4345  04FC  00E1               	movwf	??___fladd+5
  4346  04FD  085A               	movf	___fladd@a+2,w
  4347  04FE  00E2               	movwf	??___fladd+6
  4348  04FF  085B               	movf	___fladd@a+3,w
  4349  0500  00E3               	movwf	??___fladd+7
  4350  0501  0854               	movf	___fladd@b,w
  4351  0502  02E0               	subwf	??___fladd+4,f
  4352  0503  0855               	movf	___fladd@b+1,w
  4353  0504  1C03               	skipc
  4354  0505  0F55               	incfsz	___fladd@b+1,w
  4355  0506  2D08               	goto	u189_21
  4356  0507  2D09               	goto	u189_22
  4357  0508                     u189_21:
  4358  0508  02E1               	subwf	??___fladd+5,f
  4359  0509                     u189_22:
  4360  0509  0856               	movf	___fladd@b+2,w
  4361  050A  1C03               	skipc
  4362  050B  0F56               	incfsz	___fladd@b+2,w
  4363  050C  2D0E               	goto	u189_23
  4364  050D  2D0F               	goto	u189_24
  4365  050E                     u189_23:
  4366  050E  02E2               	subwf	??___fladd+6,f
  4367  050F                     u189_24:
  4368  050F  0857               	movf	___fladd@b+3,w
  4369  0510  1C03               	skipc
  4370  0511  0F57               	incfsz	___fladd@b+3,w
  4371  0512  2D14               	goto	u189_25
  4372  0513  2D15               	goto	u189_26
  4373  0514                     u189_25:
  4374  0514  02E3               	subwf	??___fladd+7,f
  4375  0515                     u189_26:
  4376  0515  0860               	movf	??___fladd+4,w
  4377  0516  07DC               	addwf	??___fladd,f
  4378  0517  0861               	movf	??___fladd+5,w
  4379  0518  1803               	skipnc
  4380  0519  0F61               	incfsz	??___fladd+5,w
  4381  051A  2D1C               	goto	u190_20
  4382  051B  2D1D               	goto	u190_21
  4383  051C                     u190_20:
  4384  051C  07DD               	addwf	??___fladd+1,f
  4385  051D                     u190_21:
  4386  051D  0862               	movf	??___fladd+6,w
  4387  051E  1803               	skipnc
  4388  051F  0F62               	incfsz	??___fladd+6,w
  4389  0520  2D22               	goto	u190_22
  4390  0521  2D23               	goto	u190_23
  4391  0522                     u190_22:
  4392  0522  07DE               	addwf	??___fladd+2,f
  4393  0523                     u190_23:
  4394  0523  0863               	movf	??___fladd+7,w
  4395  0524  1803               	skipnc
  4396  0525  0A63               	incf	??___fladd+7,w
  4397  0526  07DF               	addwf	??___fladd+3,f
  4398  0527  085F               	movf	??___fladd+3,w
  4399  0528  00D7               	movwf	___fladd@b+3
  4400  0529  085E               	movf	??___fladd+2,w
  4401  052A  00D6               	movwf	___fladd@b+2
  4402  052B  085D               	movf	??___fladd+1,w
  4403  052C  00D5               	movwf	___fladd@b+1
  4404  052D  085C               	movf	??___fladd,w
  4405  052E  00D4               	movwf	___fladd@b
  4406  052F                     i1l1577:
  4407  052F  3080               	movlw	128
  4408  0530  00DC               	movwf	??___fladd
  4409  0531  085C               	movf	??___fladd,w
  4410  0532  06E4               	xorwf	___fladd@signs,f
  4411  0533  09E7               	comf	___fladd@grs,f
  4412  0534  0AE7               	incf	___fladd@grs,f
  4413  0535                     i1l1579:
  4414  0535  0867               	movf	___fladd@grs,w
  4415  0536  1D03               	btfss	3,2
  4416  0537  2D39               	goto	u191_21
  4417  0538  2D3A               	goto	u191_20
  4418  0539                     u191_21:
  4419  0539  2D57               	goto	i1l501
  4420  053A                     u191_20:
  4421  053A                     i1l1581:
  4422  053A  3001               	movlw	1
  4423  053B  07D4               	addwf	___fladd@b,f
  4424  053C  3000               	movlw	0
  4425  053D  1803               	skipnc
  4426  053E  3001               	movlw	1
  4427  053F  07D5               	addwf	___fladd@b+1,f
  4428  0540  3000               	movlw	0
  4429  0541  1803               	skipnc
  4430  0542  3001               	movlw	1
  4431  0543  07D6               	addwf	___fladd@b+2,f
  4432  0544  3000               	movlw	0
  4433  0545  1803               	skipnc
  4434  0546  3001               	movlw	1
  4435  0547  07D7               	addwf	___fladd@b+3,f
  4436  0548  2D57               	goto	i1l501
  4437  0549                     i1l1583:
  4438  0549  0858               	movf	___fladd@a,w
  4439  054A  02D4               	subwf	___fladd@b,f
  4440  054B  0859               	movf	___fladd@a+1,w
  4441  054C  1C03               	skipc
  4442  054D  0F59               	incfsz	___fladd@a+1,w
  4443  054E  02D5               	subwf	___fladd@b+1,f
  4444  054F  085A               	movf	___fladd@a+2,w
  4445  0550  1C03               	skipc
  4446  0551  0F5A               	incfsz	___fladd@a+2,w
  4447  0552  02D6               	subwf	___fladd@b+2,f
  4448  0553  085B               	movf	___fladd@a+3,w
  4449  0554  1C03               	skipc
  4450  0555  0F5B               	incfsz	___fladd@a+3,w
  4451  0556  02D7               	subwf	___fladd@b+3,f
  4452  0557                     i1l501:
  4453  0557  0857               	movf	___fladd@b+3,w
  4454  0558  0456               	iorwf	___fladd@b+2,w
  4455  0559  0455               	iorwf	___fladd@b+1,w
  4456  055A  0454               	iorwf	___fladd@b,w
  4457  055B  1D03               	skipz
  4458  055C  2D5E               	goto	u192_21
  4459  055D  2D5F               	goto	u192_20
  4460  055E                     u192_21:
  4461  055E  2D8B               	goto	i1l1605
  4462  055F                     u192_20:
  4463  055F                     i1l1585:
  4464  055F  0867               	movf	___fladd@grs,w
  4465  0560  1D03               	btfss	3,2
  4466  0561  2D63               	goto	u193_21
  4467  0562  2D64               	goto	u193_20
  4468  0563                     u193_21:
  4469  0563  2D8B               	goto	i1l1605
  4470  0564                     u193_20:
  4471  0564                     i1l1587:
  4472  0564  3000               	movlw	0
  4473  0565  00D7               	movwf	?___fladd+3
  4474  0566  3000               	movlw	0
  4475  0567  00D6               	movwf	?___fladd+2
  4476  0568  3000               	movlw	0
  4477  0569  00D5               	movwf	?___fladd+1
  4478  056A  3000               	movlw	0
  4479  056B  00D4               	movwf	?___fladd
  4480  056C  2E09               	goto	i1l493
  4481  056D                     i1l1591:
  4482  056D  3001               	movlw	1
  4483  056E  00DC               	movwf	??___fladd
  4484  056F                     u194_25:
  4485  056F  1003               	clrc
  4486  0570  0DD4               	rlf	___fladd@b,f
  4487  0571  0DD5               	rlf	___fladd@b+1,f
  4488  0572  0DD6               	rlf	___fladd@b+2,f
  4489  0573  0DD7               	rlf	___fladd@b+3,f
  4490  0574  0BDC               	decfsz	??___fladd,f
  4491  0575  2D6F               	goto	u194_25
  4492  0576                     i1l1593:
  4493  0576  1FE7               	btfss	___fladd@grs,7
  4494  0577  2D79               	goto	u195_21
  4495  0578  2D7A               	goto	u195_20
  4496  0579                     u195_21:
  4497  0579  2D7B               	goto	i1l505
  4498  057A                     u195_20:
  4499  057A                     i1l1595:
  4500  057A  1454               	bsf	___fladd@b,0
  4501  057B                     i1l505:
  4502  057B  1C67               	btfss	___fladd@grs,0
  4503  057C  2D7E               	goto	u196_21
  4504  057D  2D7F               	goto	u196_20
  4505  057E                     u196_21:
  4506  057E  2D82               	goto	i1l1599
  4507  057F                     u196_20:
  4508  057F                     i1l1597:
  4509  057F  1403               	setc
  4510  0580  0DE7               	rlf	___fladd@grs,f
  4511  0581  2D84               	goto	i1l1601
  4512  0582                     i1l1599:
  4513  0582  1003               	clrc
  4514  0583  0DE7               	rlf	___fladd@grs,f
  4515  0584                     i1l1601:
  4516  0584  0866               	movf	___fladd@bexp,w
  4517  0585  1903               	btfsc	3,2
  4518  0586  2D88               	goto	u197_21
  4519  0587  2D89               	goto	u197_20
  4520  0588                     u197_21:
  4521  0588  2D8B               	goto	i1l1605
  4522  0589                     u197_20:
  4523  0589                     i1l1603:
  4524  0589  3001               	movlw	1
  4525  058A  02E6               	subwf	___fladd@bexp,f
  4526  058B                     i1l1605:
  4527  058B  1FD6               	btfss	___fladd@b+2,7
  4528  058C  2D8E               	goto	u198_21
  4529  058D  2D8F               	goto	u198_20
  4530  058E                     u198_21:
  4531  058E  2D6D               	goto	i1l1591
  4532  058F                     u198_20:
  4533  058F                     i1l1607:
  4534  058F  01E5               	clrf	___fladd@aexp
  4535  0590                     i1l1609:
  4536  0590  1FE7               	btfss	___fladd@grs,7
  4537  0591  2D93               	goto	u199_21
  4538  0592  2D94               	goto	u199_20
  4539  0593                     u199_21:
  4540  0593  2DA2               	goto	i1l1617
  4541  0594                     u199_20:
  4542  0594                     i1l1611:
  4543  0594  0867               	movf	___fladd@grs,w
  4544  0595  397F               	andlw	127
  4545  0596  1903               	btfsc	3,2
  4546  0597  2D99               	goto	u200_21
  4547  0598  2D9A               	goto	u200_20
  4548  0599                     u200_21:
  4549  0599  2D9D               	goto	i1l511
  4550  059A                     u200_20:
  4551  059A                     i1l1613:
  4552  059A  01E5               	clrf	___fladd@aexp
  4553  059B  0AE5               	incf	___fladd@aexp,f
  4554  059C  2DA2               	goto	i1l1617
  4555  059D                     i1l511:
  4556  059D  1C54               	btfss	___fladd@b,0
  4557  059E  2DA0               	goto	u201_21
  4558  059F  2DA1               	goto	u201_20
  4559  05A0                     u201_21:
  4560  05A0  2DA2               	goto	i1l1617
  4561  05A1                     u201_20:
  4562  05A1  2D9A               	goto	i1l1613
  4563  05A2                     i1l1617:
  4564  05A2  0865               	movf	___fladd@aexp,w
  4565  05A3  1903               	btfsc	3,2
  4566  05A4  2DA6               	goto	u202_21
  4567  05A5  2DA7               	goto	u202_20
  4568  05A6                     u202_21:
  4569  05A6  2DDB               	goto	i1l514
  4570  05A7                     u202_20:
  4571  05A7                     i1l1619:
  4572  05A7  3001               	movlw	1
  4573  05A8  07D4               	addwf	___fladd@b,f
  4574  05A9  3000               	movlw	0
  4575  05AA  1803               	skipnc
  4576  05AB  3001               	movlw	1
  4577  05AC  07D5               	addwf	___fladd@b+1,f
  4578  05AD  3000               	movlw	0
  4579  05AE  1803               	skipnc
  4580  05AF  3001               	movlw	1
  4581  05B0  07D6               	addwf	___fladd@b+2,f
  4582  05B1  3000               	movlw	0
  4583  05B2  1803               	skipnc
  4584  05B3  3001               	movlw	1
  4585  05B4  07D7               	addwf	___fladd@b+3,f
  4586  05B5                     i1l1621:
  4587  05B5  1C57               	btfss	___fladd@b+3,0
  4588  05B6  2DB8               	goto	u203_21
  4589  05B7  2DB9               	goto	u203_20
  4590  05B8                     u203_21:
  4591  05B8  2DDB               	goto	i1l514
  4592  05B9                     u203_20:
  4593  05B9                     i1l1623:
  4594  05B9  0854               	movf	___fladd@b,w
  4595  05BA  00DC               	movwf	??___fladd
  4596  05BB  0855               	movf	___fladd@b+1,w
  4597  05BC  00DD               	movwf	??___fladd+1
  4598  05BD  0856               	movf	___fladd@b+2,w
  4599  05BE  00DE               	movwf	??___fladd+2
  4600  05BF  0857               	movf	___fladd@b+3,w
  4601  05C0  00DF               	movwf	??___fladd+3
  4602  05C1  3001               	movlw	1
  4603  05C2  00E0               	movwf	??___fladd+4
  4604  05C3                     u204_25:
  4605  05C3  0D5F               	rlf	??___fladd+3,w
  4606  05C4  0CDF               	rrf	??___fladd+3,f
  4607  05C5  0CDE               	rrf	??___fladd+2,f
  4608  05C6  0CDD               	rrf	??___fladd+1,f
  4609  05C7  0CDC               	rrf	??___fladd,f
  4610  05C8                     u204_20:
  4611  05C8  0BE0               	decfsz	??___fladd+4,f
  4612  05C9  2DC3               	goto	u204_25
  4613  05CA  085F               	movf	??___fladd+3,w
  4614  05CB  00D7               	movwf	___fladd@b+3
  4615  05CC  085E               	movf	??___fladd+2,w
  4616  05CD  00D6               	movwf	___fladd@b+2
  4617  05CE  085D               	movf	??___fladd+1,w
  4618  05CF  00D5               	movwf	___fladd@b+1
  4619  05D0  085C               	movf	??___fladd,w
  4620  05D1  00D4               	movwf	___fladd@b
  4621  05D2  0A66               	incf	___fladd@bexp,w
  4622  05D3  1903               	btfsc	3,2
  4623  05D4  2DD6               	goto	u205_21
  4624  05D5  2DD7               	goto	u205_20
  4625  05D6                     u205_21:
  4626  05D6  2DDB               	goto	i1l514
  4627  05D7                     u205_20:
  4628  05D7                     i1l1625:
  4629  05D7  3001               	movlw	1
  4630  05D8  00DC               	movwf	??___fladd
  4631  05D9  085C               	movf	??___fladd,w
  4632  05DA  07E6               	addwf	___fladd@bexp,f
  4633  05DB                     i1l514:
  4634  05DB  0A66               	incf	___fladd@bexp,w
  4635  05DC  1903               	btfsc	3,2
  4636  05DD  2DDF               	goto	u206_21
  4637  05DE  2DE0               	goto	u206_20
  4638  05DF                     u206_21:
  4639  05DF  2DE5               	goto	i1l1629
  4640  05E0                     u206_20:
  4641  05E0                     i1l1627:
  4642  05E0  0866               	movf	___fladd@bexp,w
  4643  05E1  1D03               	btfss	3,2
  4644  05E2  2DE4               	goto	u207_21
  4645  05E3  2DE5               	goto	u207_20
  4646  05E4                     u207_21:
  4647  05E4  2DF3               	goto	i1l1635
  4648  05E5                     u207_20:
  4649  05E5                     i1l1629:
  4650  05E5  3000               	movlw	0
  4651  05E6  00D7               	movwf	___fladd@b+3
  4652  05E7  3000               	movlw	0
  4653  05E8  00D6               	movwf	___fladd@b+2
  4654  05E9  3000               	movlw	0
  4655  05EA  00D5               	movwf	___fladd@b+1
  4656  05EB  3000               	movlw	0
  4657  05EC  00D4               	movwf	___fladd@b
  4658  05ED                     i1l1631:
  4659  05ED  0866               	movf	___fladd@bexp,w
  4660  05EE  1D03               	btfss	3,2
  4661  05EF  2DF1               	goto	u208_21
  4662  05F0  2DF2               	goto	u208_20
  4663  05F1                     u208_21:
  4664  05F1  2DF3               	goto	i1l1635
  4665  05F2                     u208_20:
  4666  05F2                     i1l1633:
  4667  05F2  01E4               	clrf	___fladd@signs
  4668  05F3                     i1l1635:
  4669  05F3  1C66               	btfss	___fladd@bexp,0
  4670  05F4  2DF6               	goto	u209_21
  4671  05F5  2DF7               	goto	u209_20
  4672  05F6                     u209_21:
  4673  05F6  2DF9               	goto	i1l1639
  4674  05F7                     u209_20:
  4675  05F7                     i1l1637:
  4676  05F7  17D6               	bsf	___fladd@b+2,7
  4677  05F8  2DFD               	goto	i1l522
  4678  05F9                     i1l1639:
  4679  05F9  307F               	movlw	127
  4680  05FA  00DC               	movwf	??___fladd
  4681  05FB  085C               	movf	??___fladd,w
  4682  05FC  05D6               	andwf	___fladd@b+2,f
  4683  05FD                     i1l522:
  4684  05FD  0866               	movf	___fladd@bexp,w
  4685  05FE  00DC               	movwf	??___fladd
  4686  05FF  1003               	clrc
  4687  0600  0C5C               	rrf	??___fladd,w
  4688  0601  00DD               	movwf	??___fladd+1
  4689  0602  085D               	movf	??___fladd+1,w
  4690  0603  00D7               	movwf	___fladd@b+3
  4691  0604                     i1l1641:
  4692  0604  1FE4               	btfss	___fladd@signs,7
  4693  0605  2E07               	goto	u210_21
  4694  0606  2E08               	goto	u210_20
  4695  0607                     u210_21:
  4696  0607  2E09               	goto	i1l523
  4697  0608                     u210_20:
  4698  0608                     i1l1643:
  4699  0608  17D7               	bsf	___fladd@b+3,7
  4700  0609                     i1l523:
  4701  0609                     i1l493:
  4702  0609  0008               	return
  4703  060A                     __end_of___fladd:
  4704  007E                     btemp	set	126	;btemp
  4705  007E                     wtemp0	set	126
  4706                           
  4707                           	psect	idloc
  4708                           
  4709                           ;Config register IDLOC0 @ 0x2000
  4710                           ;	unspecified, using default values
  4711  2000                     	org	8192
  4712  2000  3FFF               	dw	16383
  4713                           
  4714                           ;Config register IDLOC1 @ 0x2001
  4715                           ;	unspecified, using default values
  4716  2001                     	org	8193
  4717  2001  3FFF               	dw	16383
  4718                           
  4719                           ;Config register IDLOC2 @ 0x2002
  4720                           ;	unspecified, using default values
  4721  2002                     	org	8194
  4722  2002  3FFF               	dw	16383
  4723                           
  4724                           ;Config register IDLOC3 @ 0x2003
  4725                           ;	unspecified, using default values
  4726  2003                     	org	8195
  4727  2003  3FFF               	dw	16383
  4728                           
  4729                           	psect	config
  4730                           
  4731                           ;Config register CONFIG1 @ 0x2007
  4732                           ;	Oscillator Selection bits
  4733                           ;	FOSC = INTRC_NOCLKOUT, INTOSCIO oscillator: I/O function on RA6/OSC2/CLKOUT pin, I/O f
      +                          unction on RA7/OSC1/CLKIN
  4734                           ;	Watchdog Timer Enable bit
  4735                           ;	WDTE = OFF, WDT disabled and can be enabled by SWDTEN bit of the WDTCON register
  4736                           ;	Power-up Timer Enable bit
  4737                           ;	PWRTE = OFF, PWRT disabled
  4738                           ;	RE3/MCLR pin function select bit
  4739                           ;	MCLRE = OFF, RE3/MCLR pin function is digital input, MCLR internally tied to VDD
  4740                           ;	Code Protection bit
  4741                           ;	CP = OFF, Program memory code protection is disabled
  4742                           ;	Data Code Protection bit
  4743                           ;	CPD = OFF, Data memory code protection is disabled
  4744                           ;	Brown Out Reset Selection bits
  4745                           ;	BOREN = OFF, BOR disabled
  4746                           ;	Internal External Switchover bit
  4747                           ;	IESO = OFF, Internal/External Switchover mode is disabled
  4748                           ;	Fail-Safe Clock Monitor Enabled bit
  4749                           ;	FCMEN = OFF, Fail-Safe Clock Monitor is disabled
  4750                           ;	Low Voltage Programming Enable bit
  4751                           ;	LVP = OFF, RB3 pin has digital I/O, HV on MCLR must be used for programming
  4752                           ;	In-Circuit Debugger Mode bit
  4753                           ;	DEBUG = 0x1, unprogrammed default
  4754  2007                     	org	8199
  4755  2007  20D4               	dw	8404
  4756                           
  4757                           ;Config register CONFIG2 @ 0x2008
  4758                           ;	Brown-out Reset Selection bit
  4759                           ;	BOR4V = BOR40V, Brown-out Reset set to 4.0V
  4760                           ;	Flash Program Memory Self Write Enable bits
  4761                           ;	WRT = OFF, Write protection off
  4762  2008                     	org	8200
  4763  2008  3FFF               	dw	16383

Data Sizes:
    Strings     0
    Constant    0
    Data        0
    BSS         8
    Persistent  0
    Stack       0

Auto Spaces:
    Space          Size  Autos    Used
    COMMON           14     14      14
    BANK0            80     79      79
    BANK1            80     18      26
    BANK3            96      0       0
    BANK2            96      0       0

Pointer List with Targets:

    None.

Critical Paths under _main in COMMON

    None.

Critical Paths under _isr in COMMON

    _map->___xxtofl
    ___fltol->___xxtofl
    ___flmul->___xxtofl
    ___fldiv->___xxtofl
    ___fladd->___xxtofl

Critical Paths under _main in BANK0

    None.

Critical Paths under _isr in BANK0

    _isr->_map
    _map->___fltol
    ___fltol->___fladd
    ___flmul->___fldiv
    ___fladd->___flmul

Critical Paths under _main in BANK1

    _main->_setup

Critical Paths under _isr in BANK1

    _isr->_map
    _map->___fltol

Critical Paths under _main in BANK3

    None.

Critical Paths under _isr in BANK3

    None.

Critical Paths under _main in BANK2

    None.

Critical Paths under _isr in BANK2

    None.

Call Graph Tables:

 ---------------------------------------------------------------------------------
 (Depth) Function   	        Calls       Base Space   Used Autos Params    Refs
 ---------------------------------------------------------------------------------
 (0) _main                                                 1     1      0       0
                                             17 BANK1      1     1      0
                              _setup
 ---------------------------------------------------------------------------------
 (1) _setup                                                1     1      0       0
                                             16 BANK1      1     1      0
 ---------------------------------------------------------------------------------
 Estimated maximum stack depth 1
 ---------------------------------------------------------------------------------
 (Depth) Function   	        Calls       Base Space   Used Autos Params    Refs
 ---------------------------------------------------------------------------------
 (2) _isr                                                  5     5      0    7949
                                             11 BANK1      5     5      0
                                _map
 ---------------------------------------------------------------------------------
 (3) _map                                                  7     1      6    7949
                                             78 BANK0      1     1      0
                                              5 BANK1      6     0      6
                            ___fladd
                            ___fldiv
                            ___flmul
                            ___fltol
                           ___xxtofl
 ---------------------------------------------------------------------------------
 (4) ___xxtofl                                            14    10      4     626
                                              0 COMMON    14    10      4
 ---------------------------------------------------------------------------------
 (4) ___fltol                                             11     7      4     305
                                             72 BANK0      6     2      4
                                              0 BANK1      5     5      0
                            ___fladd (ARG)
                            ___fldiv (ARG)
                            ___flmul (ARG)
                           ___xxtofl (ARG)
 ---------------------------------------------------------------------------------
 (4) ___flmul                                             26    18      8    2417
                                             26 BANK0     26    18      8
                          __Umul8_16
                            ___fldiv (ARG)
                           ___xxtofl (ARG)
 ---------------------------------------------------------------------------------
 (5) __Umul8_16                                            9     7      2     799
                                              0 COMMON     9     7      2
 ---------------------------------------------------------------------------------
 (4) ___fldiv                                             26    18      8    1273
                                              0 BANK0     26    18      8
                           ___xxtofl (ARG)
 ---------------------------------------------------------------------------------
 (4) ___fladd                                             20    12      8    2262
                                             52 BANK0     20    12      8
                            ___fldiv (ARG)
                            ___flmul (ARG)
                           ___xxtofl (ARG)
 ---------------------------------------------------------------------------------
 Estimated maximum stack depth 5
 ---------------------------------------------------------------------------------

 Call Graph Graphs:

 _main (ROOT)
   _setup

 _isr (ROOT)
   _map
     ___fladd
       ___fldiv (ARG)
         ___xxtofl (ARG)
       ___flmul (ARG)
         __Umul8_16
         ___fldiv (ARG)
         ___xxtofl (ARG)
       ___xxtofl (ARG)
     ___fldiv
     ___flmul
     ___fltol
       ___fladd (ARG)
       ___fldiv (ARG)
       ___flmul (ARG)
       ___xxtofl (ARG)
     ___xxtofl

 Address spaces:
Name               Size   Autos  Total    Cost      Usage
BITCOMMON            E      0       0       0        0.0%
EEDATA             100      0       0       0        0.0%
NULL                 0      0       0       0        0.0%
CODE                 0      0       0       0        0.0%
COMMON               E      E       E       1      100.0%
BITSFR0              0      0       0       1        0.0%
SFR0                 0      0       0       1        0.0%
BITSFR1              0      0       0       2        0.0%
SFR1                 0      0       0       2        0.0%
STACK                0      0       0       2        0.0%
ABS                  0      0      77       3        0.0%
BITBANK0            50      0       0       4        0.0%
BITSFR3              0      0       0       4        0.0%
SFR3                 0      0       0       4        0.0%
BANK0               50     4F      4F       5       98.8%
BITSFR2              0      0       0       5        0.0%
SFR2                 0      0       0       5        0.0%
BITBANK1            50      0       0       6        0.0%
BANK1               50     12      1A       7       32.5%
BITBANK3            60      0       0       8        0.0%
BANK3               60      0       0       9        0.0%
BITBANK2            60      0       0      10        0.0%
BANK2               60      0       0      11        0.0%
DATA                 0      0      77      12        0.0%


Microchip Technology PIC Macro Assembler V2.35 build 20211206165544 
Symbol Table                                                                                   Fri Apr 29 23:45:51 2022

           ___fldiv@aexp 0039             ___fldiv@bexp 0038             ___fldiv@sign 0031  
                     l95 0CDE                       l97 0CE2                       l98 0CF1  
    __Umul8_16@word_mpld 0076                      _PR2 0092                      _map 0D8E  
                    _isr 0EFA                      _pot 00B2             ___flmul@aexp 004C  
           ___flmul@bexp 004D             ___flmul@sign 0047             ___flmul@temp 0052  
           ___flmul@prod 004E             ___fltol@exp1 006D                     l2001 0CA1  
                   l2011 0CAF                     l2003 0CA5                     l2021 0CC0  
                   l2013 0CB2                     l2005 0CA7                     l2101 0C64  
                   l2031 0CCC                     l2023 0CC2                     l2015 0CB5  
                   l2007 0CAA                     l2103 0C71                     l2041 0CD9  
                   l2033 0CD0                     l2025 0CC5                     l2017 0CBC  
                   l2009 0CAB                     l2105 0C75                     l2043 0CDA  
                   l2035 0CD2                     l2027 0CC6                     l2019 0CBF  
                   l2107 0C7C                     l2045 0CDB                     l2037 0CD6  
                   l2029 0CC8                     l2047 0CDD                     l2039 0CD8  
                   l2091 0C38                     l2093 0C3E                     l2095 0C49  
                   l2097 0C50                     l2089 0C33                     l2099 0C5D  
                   l1981 0C8E                     ?_map 00A5                     l1991 0C9A  
                   l1983 0C8F                     l1975 0C83                     l1993 0C9D  
                   l1985 0C91                     l1977 0C87                     l1995 0C9E  
                   l1987 0C94                     l1979 0C88                     l1997 0C9F  
                   l1989 0C97                     l1999 0CA0                     ?_isr 0070  
                   _CCP1 00B8                     _CCP2 00B6                     u3000 0C49  
                   u3001 0C48                     u3010 0C5D                     u3011 0C5C  
                   u3020 0C71                     u3021 0C70                     u3037 0C79  
                   u3047 0CB9                     u2910 0CE2                     u2911 0CE1  
                   u2990 0C3E                     u2991 0C3D                     i1l73 0FD5  
                   i1l67 0FDB                     i1l69 0FD8                     i1l78 0FF5  
                   _TMR0 0001                     _main 0C33                     _pot3 00B4  
                   map@x 006E                     btemp 007E                     start 0010  
        ___fldiv@new_exp 0032                    ??_map 007E                    ??_isr 00AB  
          ___fltol@sign1 006C          __end_of___fladd 060A                    ?_main 0070  
        __end_of___fldiv 07E7          __end_of___flmul 0382          __end_of___fltol 0D8E  
                  _ANSEL 0188                    i1l101 0E3F                    i1l501 0557  
                  i1l511 059D                    i1l505 057B                    i1l522 05FD  
                  i1l514 05DB                    i1l523 0609                    i1l380 0D78  
                  i1l620 0E62                    i1l373 0D8D                    i1l622 0EF9  
                  i1l383 0D8D                    i1l480 03E5                    i1l560 07DA  
                  i1l552 0758                    i1l536 0666                    i1l633 0EC3  
                  i1l538 07E6                    i1l634 0ECF                    i1l626 0EA7  
                  i1l484 048C                    i1l493 0609                    i1l486 0463  
                  i1l558 07CA                    i1l582 02ED                    i1l576 0381  
                  i1l595 0C20                    i1l588 0375                    i1l597 0C32  
                  _PORTA 0005                    _PORTC 0007                    _TRISA 0085  
                  map@x0 00A5                    map@x1 00A6                    map@y0 00A7  
                  map@y1 00A9                    _setup 0C83                    pclath 000A  
                  status 0003                    wtemp0 007E          __initialization 0013  
           __end_of_main 0C83                   ??_main 00B1                   _ADRESH 001E  
                 _CCPR1L 0015                   _CCPR2L 001B                   ?_setup 0070  
                 _ANSELH 0189                   i1l1401 0C0D                   i1l1411 0C2E  
                 i1l1403 0C0F                   i1l2051 0F00                   i1l1501 03F7  
                 i1l1405 0C16                   i1l1421 0D0C                   i1l2061 0F53  
                 i1l2053 0F0B                   i1l1511 040B                   i1l1503 03FB  
                 i1l1407 0C1A                   i1l1431 0D40                   i1l1423 0D31  
                 i1l1415 0CF2                   i1l2071 0FAD                   i1l2063 0F6E  
                 i1l2055 0F26                   u200_20 059A                   u200_21 0599  
                 i1l1601 0584                   i1l1521 041F                   i1l1513 040F  
                 i1l1505 03FF                   i1l1409 0C29                   i1l1425 0D32  
                 i1l1417 0D03                   i1l2081 0FEE                   i1l2073 0FC7  
                 i1l2065 0F7C                   i1l2057 0F34                   i1l2049 0EFA  
                 i1l1611 0594                   i1l1603 0589                   i1l1531 0430  
                 i1l1523 0423                   i1l1515 0413                   i1l1507 0403  
                 i1l1451 0382                   i1l1427 0D3A                   i1l2083 0FF0  
                 i1l2075 0FD1                   i1l2067 0F8D                   i1l2059 0F46  
                 i1l1621 05B5                   i1l1613 059A                   i1l1605 058B  
                 i1l1541 0476                   i1l1533 0447                   i1l1525 0427  
                 i1l1517 0417                   i1l1509 0407                   i1l1461 0399  
                 i1l1453 0389                   i1l1701 06A7                   i1l1445 0D65  
                 i1l1437 0D48                   i1l1429 0D3C                   i1l2085 0FF1  
                 i1l2077 0FDF                   i1l2069 0FA0                   i1l1631 05ED  
                 i1l1623 05B9                   i1l1607 058F                   i1l1551 0495  
                 i1l1543 0477                   i1l1535 0467                   i1l1527 042B  
                 i1l1519 041B                   i1l1471 03B1                   i1l1463 039E  
                 i1l1455 038F                   i1l1711 06C6                   i1l1703 06AF  
                 i1l1447 0D7D                   i1l1439 0D5E                   i1l2079 0FE7  
                 u201_20 05A1                   i1l1641 0604                   i1l1633 05F2  
                 i1l1625 05D7                   u201_21 05A0                   i1l1617 05A2  
                 i1l1609 0590                   i1l1561 04BD                   i1l1545 0480  
                 i1l1537 0470                   i1l1529 042F                   i1l1481 03C7  
                 i1l1473 03B6                   i1l1465 03A6                   i1l1457 0393  
                 i1l1721 06F8                   i1l1713 06D8                   i1l1705 06B7  
                 i1l1801 0045                   i1l1449 0D82                   i1l1643 0608  
                 i1l1635 05F3                   i1l1627 05E0                   i1l1619 05A7  
                 i1l1571 04D6                   i1l1563 04C6                   i1l1555 049E  
                 i1l1539 0472                   i1l1547 0484                   i1l1491 03DB  
                 i1l1483 03C8                   i1l1475 03BC                   i1l1467 03A7  
                 i1l1459 0394                   i1l1731 0719                   i1l1723 06F9  
                 i1l1715 06DC                   i1l1707 06BF                   i1l1651 061B  
                 i1l1811 005E                   i1l1803 0047                   i1l1637 05F7  
                 i1l1629 05E5                   i1l1581 053A                   i1l1565 04C8  
                 i1l1557 04B5                   i1l1549 0490                   i1l1573 04DB  
                 i1l1485 03CD                   i1l1493 03DD                   i1l1477 03BD  
                 i1l1469 03A9                   i1l1741 0732                   i1l1733 071B  
                 i1l1725 0707                   i1l1717 06DD                   i1l1709 06C1  
                 i1l1661 062F                   i1l1653 061C                   i1l1645 060A  
                 i1l1901 0309                   i1l1821 0073                   i1l1813 005F  
                 i1l1805 004F                   i1l1639 05F9                   i1l1591 056D  
                 i1l1575 04F1                   i1l1583 0549                   i1l1567 04CC  
                 i1l1559 04B9                   i1l1495 03EB                   i1l1487 03D2  
                 i1l1479 03C3                   i1l1751 0755                   i1l1735 0724  
                 i1l1743 0738                   i1l1719 06E6                   i1l1727 070B  
                 i1l1671 0648                   i1l1655 0621                   i1l1663 0631  
                 i1l1647 0611                   i1l1911 034F                   i1l1903 0322  
                 i1l1831 008E                   i1l1823 007B                   i1l1815 0064  
                 i1l1807 0054                   u210_20 0608                   u202_20 05A7  
                 u210_21 0607                   u202_21 05A6                   i1l1593 0576  
                 i1l1585 055F                   i1l1577 052F                   i1l1569 04CD  
                 i1l1497 03EF                   i1l1489 03DA                   i1l1761 0774  
                 i1l1745 073C                   i1l1737 0728                   i1l1729 0711  
                 i1l1681 065C                   i1l1673 0649                   i1l1665 0639  
                 i1l1657 0626                   i1l1649 0617                   i1l1921 036E  
                 i1l1913 0359                   i1l1905 0328                   i1l1841 0110  
                 i1l1833 009E                   i1l1825 0080                   i1l1817 0069  
                 i1l1809 005A                   i1l1595 057A                   i1l1587 0564  
                 i1l1579 0535                   i1l1499 03F3                   i1l1771 07BD  
                 i1l1763 078D                   i1l1755 075D                   i1l1747 073D  
                 i1l1739 0729                   i1l1675 064E                   i1l1683 065E  
                 i1l1667 063E                   i1l1659 062E                   i1l1923 0379  
                 i1l1915 035B                   i1l1907 0335                   i1l1851 017E  
                 i1l1843 012C                   i1l1835 00AB                   i1l1827 0085  
                 i1l1819 0071                   i1l1931 0E4A                   i1l1597 057F  
                 i1l1781 07D6                   i1l1773 07C1                   i1l1757 0762  
                 i1l1765 0793                   i1l1749 0741                   i1l1685 066E  
                 i1l1693 0687                   i1l1677 0653                   i1l1669 0644  
                 i1l1917 0369                   i1l1909 0340                   i1l1861 020E  
                 i1l1853 018E                   i1l1845 0148                   i1l1837 00C8  
                 i1l1941 0E78                   i1l1933 0E5A                   i1l1599 0582  
                 i1l1775 07C9                   i1l1767 07A0                   i1l1759 0770  
                 i1l1695 068C                   i1l1687 067A                   i1l1679 065B  
                 i1l1919 036D                   i1l1871 02A2                   i1l1863 021E  
                 i1l1855 01AB                   i1l1847 0151                   i1l1839 00E4  
                 i1l1791 002E                   i1l1951 0EAE                   i1l1943 0E85  
                 i1l1935 0E6A                   i1l1927 0E41                   u203_20 05B9  
                 u211_20 061B                   u203_21 05B8                   i1l1777 07D0  
                 i1l1769 07AE                   i1l1689 067E                   u211_21 061A  
                 i1l1881 02C7                   i1l1873 02B0                   i1l1865 024B  
                 i1l1857 01C4                   i1l1849 0161                   i1l1793 0032  
                 i1l1961 0EE7                   i1l1953 0EB9                   i1l1945 0E8C  
                 i1l1929 0E46                   i1l1779 07D4                   i1l1699 0695  
                 i1l1891 02EA                   i1l1875 02B9                   i1l1883 02CD  
                 i1l1867 0271                   i1l1859 01E1                   i1l1795 0033  
                 i1l1787 0021                   i1l1963 0EEC                   i1l1955 0EBD  
                 i1l1947 0E90                   i1l1939 0E73                   i1l1971 0D91  
                 i1l1885 02D1                   i1l1877 02BD                   i1l1869 0299  
                 i1l1797 0038                   i1l1789 0028                   i1l1965 0EF0  
                 i1l1957 0EC7                   i1l1949 0E9E                   i1l1895 02F2  
                 i1l1887 02D2                   i1l1879 02BE                   i1l1799 003D  
                 i1l1967 0EF1                   i1l1959 0ED1                   u204_20 05C8  
                 u212_20 0621                   u212_21 0620                   i1l1897 02F7  
                 i1l1889 02D6                   i1l1899 0305                   u204_25 05C3  
                 u220_25 06C8                   u205_20 05D7                   u213_20 0626  
                 u205_21 05D6                   u213_21 0625                   u221_25 06D1  
                 u206_20 05E0                   u230_20 073C                   u222_20 06DC  
                 u214_20 0648                   u206_21 05DF                   u230_21 073B  
                 u222_21 06DB                   u214_21 0647                   u207_20 05E5  
                 u231_20 0741                   u215_20 064E                   u207_21 05E4  
                 u231_21 0740                   u215_21 064D                   u223_25 06DF  
                 u208_20 05F2                   u232_20 0755                   u224_20 06F8  
                 u216_20 0653                   u152_20 0C1A                   u240_20 0032  
                 u160_20 0D5D                   u208_21 05F1                   u232_21 0754  
                 u224_21 06F7                   u216_21 0652                   u152_21 0C19  
                 u240_21 0031                   u160_21 0D5C                   u224_25 06F4  
                 u209_20 05F7                   u233_20 075C                   u225_20 0711  
                 u217_20 066E                   u241_20 0038                   u161_20 0D64  
                 u209_21 05F6                   u233_21 075B                   u225_21 0710  
                 u217_21 066D                   u241_21 0037                   u161_21 0D63  
                 u153_25 0C21                   u170_20 03CD                   u234_20 0762  
                 u226_20 0719                   u218_20 068C                   u154_20 0C2E  
                 u242_20 003D                   u170_21 03CC                   u234_21 0761  
                 u226_21 0718                   u218_21 068B                   u154_21 0C2D  
                 u250_21 011E                   u242_21 003C                   u250_22 0125  
                 u250_23 012C                   u162_25 0D69                   u171_20 03D2  
                 u235_20 0774                   u219_20 06C6                   u243_20 005E  
                 u163_20 0D7D                   u155_20 0D03                   u171_21 03D1  
                 u235_21 0773                   u219_21 06C5                   u251_21 013A  
                 u243_21 005D                   u163_21 0D7C                   u155_21 0D02  
                 u251_22 0141                   u251_23 0148                   u227_25 071D  
                 u180_20 048C                   u172_20 03EB                   u236_20 0783  
                 u228_20 0728                   u244_20 0064                   u164_20 0D82  
                 u156_20 0D28                   u180_21 048B                   u172_21 03EA  
                 u228_21 0727                   u260_21 0263                   u244_21 0063  
                 u164_21 0D81                   u260_22 026A                   u260_23 0271  
                 u236_25 077E                   u252_25 014A                   u156_25 0D23  
                 u181_20 0490                   u173_20 03EF                   u165_20 0393  
                 u237_20 07A0                   u261_20 027F                   u245_20 0069  
                 u157_20 0D40                   u181_21 048F                   u173_21 03EE  
                 u165_21 0392                   u237_21 079F                   u253_21 0170  
                 u245_21 0068                   u157_21 0D3F                   u253_22 0177  
                 u253_23 017E                   u237_25 079C                   u229_25 072B  
                 u261_25 027A                   u190_20 051C                   u182_20 0495  
                 u174_20 0447                   u166_20 0399                   u238_20 07BD  
                 u270_20 02F1                   u246_20 0080                   u158_20 0D47  
                 u190_21 051D                   u182_21 0494                   u174_21 0446  
                 u166_21 0398                   u238_21 07BC                   u270_21 02F0  
                 u262_21 028B                   u254_21 019D                   u246_21 007F  
                 u158_21 0D46                   u190_22 0522                   u262_22 0292  
                 u254_22 01A4                   u190_23 0523                   u262_23 0299  
                 u254_23 01AB                   u174_25 0443                   u238_25 07B9  
                 u191_20 053A                   u175_20 0452                   u167_20 039E  
                 u239_20 07D4                   u271_20 02F7                   u247_20 0085  
                 u191_21 0539                   u183_21 04A7                   u175_21 0450  
                 u167_21 039D                   u239_21 07D3                   u271_21 02F6  
                 u247_21 0084                   u183_22 04AE                   u183_23 04B5  
                 u263_25 029B                   u255_25 01AD                   u159_25 0D49  
                 u192_20 055F                   u184_20 04B9                   u176_20 0453  
                 u168_20 03BC                   u272_20 0309                   u192_21 055E  
                 u184_21 04B8                   u168_21 03BB                   u272_21 0308  
                 u256_21 01D3                   u248_21 00D6                   u256_22 01DA  
                 u248_22 00DD                   u256_23 01E1                   u248_23 00E4  
                 u264_25 02B2                   u280_25 0E7D                   u193_20 0564  
                 u185_20 04BD                   u177_20 0467                   u169_20 03C7  
                 u273_20 0318                   u265_20 02BD                   u281_20 0E8B  
                 u193_21 0563                   u185_21 04BC                   u177_21 0466  
                 u169_21 03C6                   u265_21 02BC                   u257_21 0200  
                 u249_21 00F2                   u281_21 0E8A                   u257_22 0207  
                 u249_22 00F9                   u257_23 020E                   u249_23 0100  
                 u273_25 0313                   u186_20 04CC                   u178_20 0476  
                 u274_20 0335                   u290_20 0EF0                   u186_21 04CB  
                 u178_21 0475                   u274_21 0334                   u258_21 022D  
                 u290_21 0EEF                   u258_22 0234                   u258_23 023B  
                 u194_25 056F                   u274_25 0331                   u266_25 02C0  
                 u282_25 0E9F                   u195_20 057A                   u275_20 034F  
                 u267_20 02D1                   u259_20 0257                   u283_20 0EAD  
                 u195_21 0579                   u275_21 034E                   u267_21 02D0  
                 u283_21 0EAC                   u187_25 04CF                   u179_25 0479  
                 u275_25 034B                   u259_25 0252                   u196_20 057F  
                 u188_20 04F1                   u276_20 036D                   u268_20 02D6  
                 u292_20 0F00                   u196_21 057E                   u188_21 04F0  
                 u276_21 036C                   u268_21 02D5                   u292_21 0EFF  
                 u188_23 04ED                   u284_25 0EB2                   u197_20 0589  
                 u269_20 02EA                   u285_20 0EBD                   u277_20 0E46  
                 u293_20 0F0B                   u197_21 0588                   u189_21 0508  
                 u269_21 02E9                   u285_21 0EBC                   u277_21 0E45  
                 u293_21 0F0A                   u189_22 0509                   u189_23 050E  
                 u189_24 050F                   u189_25 0514                   u189_26 0515  
                 u198_20 058F                   u286_20 0EC3                   u278_20 0E4A  
                 u294_20 0F53                   u198_21 058E                   u286_21 0EC2  
                 u278_21 0E49                   u294_21 0F52                   u199_20 0594  
                 u287_20 0EC7                   u279_20 0E6A                   u295_20 0FAD  
                 u199_21 0593                   u287_21 0EC6                   u279_21 0E69  
                 u295_21 0FAC                   u288_20 0EDC                   u296_20 0FD1  
                 u296_21 0FD0                   u288_25 0ED7                   u296_25 0FCD  
                 u289_20 0EEC                   u297_20 0FDF                   u289_21 0EEB  
                 u297_21 0FDE                   u298_20 0FEE                   u298_21 0FED  
       __end_of___xxtofl 0EFA                ??___fladd 005C                ??___fldiv 0028  
              ??___flmul 0042                ??___fltol 00A0                   saved_w 007E  
           ___xxtofl@arg 007A             ___xxtofl@exp 0079             ___xxtofl@val 0070  
__end_of__initialization 001D               ___fltol@f1 0068           __pcstackCOMMON 0070  
          __end_of_setup 0CF2           _OPTION_REGbits 0081                  ??_setup 00B0  
             __pbssBANK1 00B2        __end_of__Umul8_16 0C33               __pmaintext 0C33  
             __pintentry 0004                  _CCP1CON 0017                  _CCP2CON 001D  
              ?___xxtofl 0070                  ___fladd 0382                  ___fldiv 060A  
                ___flmul 0021                  ___fltol 0CF2                  __ptext1 0C83  
                __ptext2 0EFA                  __ptext3 0D8E                  __ptext4 0E40  
                __ptext5 0CF2                  __ptext6 0021                  __ptext7 0C0C  
                __ptext8 060A                  __ptext9 0382                _T2CONbits 0012  
             ??___xxtofl 0074     end_of_initialization 001D                _PORTCbits 0007  
            ___fladd@grs 0067            ___xxtofl@sign 0078                _TRISCbits 0087  
            ___fldiv@grs 0034              ___fldiv@rem 002D              ___flmul@grs 0048  
            _CCP1CONbits 0017              _CCP2CONbits 001D      start_initialization 0013  
            __end_of_map 0E40              __end_of_isr 1000                __Umul8_16 0C0C  
              ___fladd@a 0058                ___fladd@b 0054                ___fldiv@a 0020  
              ___fldiv@b 0024                ___flmul@a 003E                ___flmul@b 003A  
              ___latbits 0002            __pcstackBANK0 0020            __pcstackBANK1 00A0  
               ?___fladd 0054                 ?___fldiv 0020                 ?___flmul 003A  
               ?___fltol 0068               ?__Umul8_16 0070        interrupt_function 0004  
               _PIE1bits 008C                 _PIR1bits 000C               _ADCON0bits 001F  
             _ADCON1bits 009F              ??__Umul8_16 0072                 ___xxtofl 0E40  
             _INTCONbits 000B                 intlevel1 0000               _OSCCONbits 008F  
 __Umul8_16@multiplicand 0070            ___fladd@signs 0064             ___fladd@aexp 0065  
           ___fladd@bexp 0066     __Umul8_16@multiplier 0078        __Umul8_16@product 0074  
