

Microchip MPLAB XC8 Assembler V2.35 build 20211206165544 
                                                                                               Thu Apr 28 23:08:03 2022

Microchip MPLAB XC8 C Compiler v2.35 (Free license) build 20211206165544 Og1 
     1                           	processor	16F887
     2                           	pagewidth 120
     3                           	opt	flic
     4                           	psect	cinit,global,class=CODE,merge=1,delta=2
     5                           	psect	bssBANK1,global,class=BANK1,space=1,delta=1,noexec
     6                           	psect	cstackBANK1,global,class=BANK1,space=1,delta=1,noexec
     7                           	psect	cstackCOMMON,global,class=COMMON,space=1,delta=1,noexec
     8                           	psect	cstackBANK0,global,class=BANK0,space=1,delta=1,noexec
     9                           	psect	maintext,global,class=CODE,split=1,delta=2
    10                           	psect	text1,local,class=CODE,merge=1,delta=2
    11                           	psect	text2,local,class=CODE,merge=1,delta=2
    12                           	psect	intentry,global,class=CODE,delta=2
    13                           	psect	text3,local,class=CODE,merge=1,delta=2
    14                           	psect	text4,local,class=CODE,merge=1,delta=2,group=1
    15                           	psect	text5,local,class=CODE,merge=1,delta=2,group=1
    16                           	psect	text6,local,class=CODE,merge=1,delta=2,group=1
    17                           	psect	text7,local,class=CODE,merge=1,delta=2,group=1
    18                           	psect	text8,local,class=CODE,merge=1,delta=2,group=1
    19                           	psect	text9,local,class=CODE,merge=1,delta=2,group=1
    20                           	psect	idloc,global,abs,ovrld,class=IDLOC,space=5,delta=2,noexec
    21                           	psect	config,global,abs,ovrld,class=CONFIG,space=4,delta=2,noexec
    22                           	dabs	1,0x7E,2
    23  0000                     
    24                           ; Version 2.40
    25                           ; Generated 17/11/2021 GMT
    26                           ; 
    27                           ; Copyright © 2021, Microchip Technology Inc. and its subsidiaries ("Microchip")
    28                           ; All rights reserved.
    29                           ; 
    30                           ; This software is developed by Microchip Technology Inc. and its subsidiaries ("Microch
      +                          ip").
    31                           ; 
    32                           ; Redistribution and use in source and binary forms, with or without modification, are
    33                           ; permitted provided that the following conditions are met:
    34                           ; 
    35                           ;     1. Redistributions of source code must retain the above copyright notice, this lis
      +                          t of
    36                           ;        conditions and the following disclaimer.
    37                           ; 
    38                           ;     2. Redistributions in binary form must reproduce the above copyright notice, this 
      +                          list
    39                           ;        of conditions and the following disclaimer in the documentation and/or other
    40                           ;        materials provided with the distribution. Publication is not required when
    41                           ;        this file is used in an embedded application.
    42                           ; 
    43                           ;     3. Microchip's name may not be used to endorse or promote products derived from th
      +                          is
    44                           ;        software without specific prior written permission.
    45                           ; 
    46                           ; THIS SOFTWARE IS PROVIDED BY MICROCHIP "AS IS" AND ANY EXPRESS OR IMPLIED WARRANTIES,
    47                           ; INCLUDING, BUT NOT LIMITED TO, THE IMPLIED WARRANTIES OF MERCHANTABILITY AND FITNESS F
      +                          OR
    48                           ; PURPOSE ARE DISCLAIMED.  IN NO EVENT SHALL MICROCHIP BE LIABLE FOR ANY DIRECT, INDIREC
      +                          T,
    49                           ; INCIDENTAL, SPECIAL, EXEMPLARY, OR CONSEQUENTIAL DAMAGES (INCLUDING BUT NOT LIMITED TO
    50                           ; PROCUREMENT OF SUBSTITUTE GOODS OR SERVICES; LOSS OF USE, DATA OR PROFITS; OR BUSINESS
    51                           ; INTERRUPTION) HOWSOEVER CAUSED AND ON ANY THEORY OF LIABILITY, WHETHER IN CONTRACT, ST
      +                          RICT
    52                           ; LIABILITY, OR TORT (INCLUDING NEGLIGENCE OR OTHERWISE) ARISING IN ANY WAY OUT OF THE U
      +                          SE OF
    53                           ; THIS SOFTWARE, EVEN IF ADVISED OF THE POSSIBILITY OF SUCH DAMAGE.
    54                           ; 
    55                           ; 
    56                           ; Code-generator required, PIC16F887 Definitions
    57                           ; 
    58                           ; SFR Addresses
    59  0000                     	;# 
    60  0001                     	;# 
    61  0002                     	;# 
    62  0003                     	;# 
    63  0004                     	;# 
    64  0005                     	;# 
    65  0006                     	;# 
    66  0007                     	;# 
    67  0008                     	;# 
    68  0009                     	;# 
    69  000A                     	;# 
    70  000B                     	;# 
    71  000C                     	;# 
    72  000D                     	;# 
    73  000E                     	;# 
    74  000E                     	;# 
    75  000F                     	;# 
    76  0010                     	;# 
    77  0011                     	;# 
    78  0012                     	;# 
    79  0013                     	;# 
    80  0014                     	;# 
    81  0015                     	;# 
    82  0015                     	;# 
    83  0016                     	;# 
    84  0017                     	;# 
    85  0018                     	;# 
    86  0019                     	;# 
    87  001A                     	;# 
    88  001B                     	;# 
    89  001B                     	;# 
    90  001C                     	;# 
    91  001D                     	;# 
    92  001E                     	;# 
    93  001F                     	;# 
    94  0081                     	;# 
    95  0085                     	;# 
    96  0086                     	;# 
    97  0087                     	;# 
    98  0088                     	;# 
    99  0089                     	;# 
   100  008C                     	;# 
   101  008D                     	;# 
   102  008E                     	;# 
   103  008F                     	;# 
   104  0090                     	;# 
   105  0091                     	;# 
   106  0092                     	;# 
   107  0093                     	;# 
   108  0093                     	;# 
   109  0093                     	;# 
   110  0094                     	;# 
   111  0095                     	;# 
   112  0096                     	;# 
   113  0097                     	;# 
   114  0098                     	;# 
   115  0099                     	;# 
   116  009A                     	;# 
   117  009B                     	;# 
   118  009C                     	;# 
   119  009D                     	;# 
   120  009E                     	;# 
   121  009F                     	;# 
   122  0105                     	;# 
   123  0107                     	;# 
   124  0108                     	;# 
   125  0109                     	;# 
   126  010C                     	;# 
   127  010C                     	;# 
   128  010D                     	;# 
   129  010E                     	;# 
   130  010F                     	;# 
   131  0185                     	;# 
   132  0187                     	;# 
   133  0188                     	;# 
   134  0189                     	;# 
   135  018C                     	;# 
   136  018D                     	;# 
   137  0000                     	;# 
   138  0001                     	;# 
   139  0002                     	;# 
   140  0003                     	;# 
   141  0004                     	;# 
   142  0005                     	;# 
   143  0006                     	;# 
   144  0007                     	;# 
   145  0008                     	;# 
   146  0009                     	;# 
   147  000A                     	;# 
   148  000B                     	;# 
   149  000C                     	;# 
   150  000D                     	;# 
   151  000E                     	;# 
   152  000E                     	;# 
   153  000F                     	;# 
   154  0010                     	;# 
   155  0011                     	;# 
   156  0012                     	;# 
   157  0013                     	;# 
   158  0014                     	;# 
   159  0015                     	;# 
   160  0015                     	;# 
   161  0016                     	;# 
   162  0017                     	;# 
   163  0018                     	;# 
   164  0019                     	;# 
   165  001A                     	;# 
   166  001B                     	;# 
   167  001B                     	;# 
   168  001C                     	;# 
   169  001D                     	;# 
   170  001E                     	;# 
   171  001F                     	;# 
   172  0081                     	;# 
   173  0085                     	;# 
   174  0086                     	;# 
   175  0087                     	;# 
   176  0088                     	;# 
   177  0089                     	;# 
   178  008C                     	;# 
   179  008D                     	;# 
   180  008E                     	;# 
   181  008F                     	;# 
   182  0090                     	;# 
   183  0091                     	;# 
   184  0092                     	;# 
   185  0093                     	;# 
   186  0093                     	;# 
   187  0093                     	;# 
   188  0094                     	;# 
   189  0095                     	;# 
   190  0096                     	;# 
   191  0097                     	;# 
   192  0098                     	;# 
   193  0099                     	;# 
   194  009A                     	;# 
   195  009B                     	;# 
   196  009C                     	;# 
   197  009D                     	;# 
   198  009E                     	;# 
   199  009F                     	;# 
   200  0105                     	;# 
   201  0107                     	;# 
   202  0108                     	;# 
   203  0109                     	;# 
   204  010C                     	;# 
   205  010C                     	;# 
   206  010D                     	;# 
   207  010E                     	;# 
   208  010F                     	;# 
   209  0185                     	;# 
   210  0187                     	;# 
   211  0188                     	;# 
   212  0189                     	;# 
   213  018C                     	;# 
   214  018D                     	;# 
   215  000B                     _INTCONbits	set	11
   216  0012                     _T2CONbits	set	18
   217  001D                     _CCP2CON	set	29
   218  0017                     _CCP1CON	set	23
   219  0005                     _PORTA	set	5
   220  0008                     _PORTD	set	8
   221  001D                     _CCP2CONbits	set	29
   222  001B                     _CCPR2L	set	27
   223  0017                     _CCP1CONbits	set	23
   224  0015                     _CCPR1L	set	21
   225  001E                     _ADRESH	set	30
   226  001F                     _ADCON0bits	set	31
   227  000C                     _PIR1bits	set	12
   228  008C                     _PIE1bits	set	140
   229  0092                     _PR2	set	146
   230  0087                     _TRISCbits	set	135
   231  009F                     _ADCON1bits	set	159
   232  0088                     _TRISD	set	136
   233  0085                     _TRISA	set	133
   234  008F                     _OSCCONbits	set	143
   235  0189                     _ANSELH	set	393
   236  0188                     _ANSEL	set	392
   237                           
   238                           	psect	cinit
   239  0013                     start_initialization:	
   240                           ; #config settings
   241                           
   242  0013                     __initialization:
   243                           
   244                           ; Clear objects allocated to BANK1
   245  0013  1683               	bsf	3,5	;RP0=1, select bank1
   246  0014  1303               	bcf	3,6	;RP1=0, select bank1
   247  0015  01B2               	clrf	__pbssBANK1& (0+127)
   248  0016  01B3               	clrf	(__pbssBANK1+1)& (0+127)
   249  0017  01B4               	clrf	(__pbssBANK1+2)& (0+127)
   250  0018  01B5               	clrf	(__pbssBANK1+3)& (0+127)
   251  0019                     end_of_initialization:	
   252                           ;End of C runtime variable initialization code
   253                           
   254  0019                     __end_of__initialization:
   255  0019  0183               	clrf	3
   256  001A  120A  158A  2C86   	ljmp	_main	;jump to C main() function
   257                           
   258                           	psect	bssBANK1
   259  00B2                     __pbssBANK1:
   260  00B2                     _CCP2:
   261  00B2                     	ds	2
   262  00B4                     _CCP1:
   263  00B4                     	ds	2
   264                           
   265                           	psect	cstackBANK1
   266  00A0                     __pcstackBANK1:
   267  00A0                     ??___fltol:
   268                           
   269                           ; 1 bytes @ 0x0
   270  00A0                     	ds	5
   271  00A5                     ?_map:
   272  00A5                     map@x0:	
   273                           ; 2 bytes @ 0x5
   274                           
   275                           
   276                           ; 1 bytes @ 0x5
   277  00A5                     	ds	1
   278  00A6                     map@x1:
   279                           
   280                           ; 1 bytes @ 0x6
   281  00A6                     	ds	1
   282  00A7                     map@y0:
   283                           
   284                           ; 2 bytes @ 0x7
   285  00A7                     	ds	2
   286  00A9                     map@y1:
   287                           
   288                           ; 2 bytes @ 0x9
   289  00A9                     	ds	2
   290  00AB                     ??_isr:
   291                           
   292                           ; 1 bytes @ 0xB
   293  00AB                     	ds	5
   294  00B0                     ??_setup:
   295                           
   296                           ; 1 bytes @ 0x10
   297  00B0                     	ds	1
   298  00B1                     ??_main:
   299                           
   300                           ; 1 bytes @ 0x11
   301  00B1                     	ds	1
   302                           
   303                           	psect	cstackCOMMON
   304  0070                     __pcstackCOMMON:
   305  0070                     ?_setup:
   306  0070                     ?_isr:	
   307                           ; 1 bytes @ 0x0
   308                           
   309  0070                     ?_main:	
   310                           ; 1 bytes @ 0x0
   311                           
   312  0070                     ?__Umul8_16:	
   313                           ; 1 bytes @ 0x0
   314                           
   315  0070                     ?___xxtofl:	
   316                           ; 2 bytes @ 0x0
   317                           
   318  0070                     __Umul8_16@multiplicand:	
   319                           ; 4 bytes @ 0x0
   320                           
   321  0070                     ___xxtofl@val:	
   322                           ; 1 bytes @ 0x0
   323                           
   324                           
   325                           ; 4 bytes @ 0x0
   326  0070                     	ds	2
   327  0072                     ??__Umul8_16:
   328                           
   329                           ; 1 bytes @ 0x2
   330  0072                     	ds	2
   331  0074                     ??___xxtofl:
   332  0074                     __Umul8_16@product:	
   333                           ; 1 bytes @ 0x4
   334                           
   335                           
   336                           ; 2 bytes @ 0x4
   337  0074                     	ds	2
   338  0076                     __Umul8_16@word_mpld:
   339                           
   340                           ; 2 bytes @ 0x6
   341  0076                     	ds	2
   342  0078                     __Umul8_16@multiplier:
   343  0078                     ___xxtofl@sign:	
   344                           ; 1 bytes @ 0x8
   345                           
   346                           
   347                           ; 1 bytes @ 0x8
   348  0078                     	ds	1
   349  0079                     ___xxtofl@exp:
   350                           
   351                           ; 1 bytes @ 0x9
   352  0079                     	ds	1
   353  007A                     ___xxtofl@arg:
   354                           
   355                           ; 4 bytes @ 0xA
   356  007A                     	ds	4
   357  007E                     ??_map:
   358                           
   359                           	psect	cstackBANK0
   360  0020                     __pcstackBANK0:	
   361                           ; 1 bytes @ 0xE
   362                           
   363  0020                     ?___fldiv:
   364  0020                     ___fldiv@a:	
   365                           ; 4 bytes @ 0x0
   366                           
   367                           
   368                           ; 4 bytes @ 0x0
   369  0020                     	ds	4
   370  0024                     ___fldiv@b:
   371                           
   372                           ; 4 bytes @ 0x4
   373  0024                     	ds	4
   374  0028                     ??___fldiv:
   375                           
   376                           ; 1 bytes @ 0x8
   377  0028                     	ds	5
   378  002D                     ___fldiv@rem:
   379                           
   380                           ; 4 bytes @ 0xD
   381  002D                     	ds	4
   382  0031                     ___fldiv@sign:
   383                           
   384                           ; 1 bytes @ 0x11
   385  0031                     	ds	1
   386  0032                     ___fldiv@new_exp:
   387                           
   388                           ; 2 bytes @ 0x12
   389  0032                     	ds	2
   390  0034                     ___fldiv@grs:
   391                           
   392                           ; 4 bytes @ 0x14
   393  0034                     	ds	4
   394  0038                     ___fldiv@bexp:
   395                           
   396                           ; 1 bytes @ 0x18
   397  0038                     	ds	1
   398  0039                     ___fldiv@aexp:
   399                           
   400                           ; 1 bytes @ 0x19
   401  0039                     	ds	1
   402  003A                     ?___flmul:
   403  003A                     ___flmul@b:	
   404                           ; 4 bytes @ 0x1A
   405                           
   406                           
   407                           ; 4 bytes @ 0x1A
   408  003A                     	ds	4
   409  003E                     ___flmul@a:
   410                           
   411                           ; 4 bytes @ 0x1E
   412  003E                     	ds	4
   413  0042                     ??___flmul:
   414                           
   415                           ; 1 bytes @ 0x22
   416  0042                     	ds	5
   417  0047                     ___flmul@sign:
   418                           
   419                           ; 1 bytes @ 0x27
   420  0047                     	ds	1
   421  0048                     ___flmul@grs:
   422                           
   423                           ; 4 bytes @ 0x28
   424  0048                     	ds	4
   425  004C                     ___flmul@aexp:
   426                           
   427                           ; 1 bytes @ 0x2C
   428  004C                     	ds	1
   429  004D                     ___flmul@bexp:
   430                           
   431                           ; 1 bytes @ 0x2D
   432  004D                     	ds	1
   433  004E                     ___flmul@prod:
   434                           
   435                           ; 4 bytes @ 0x2E
   436  004E                     	ds	4
   437  0052                     ___flmul@temp:
   438                           
   439                           ; 2 bytes @ 0x32
   440  0052                     	ds	2
   441  0054                     ?___fladd:
   442  0054                     ___fladd@b:	
   443                           ; 4 bytes @ 0x34
   444                           
   445                           
   446                           ; 4 bytes @ 0x34
   447  0054                     	ds	4
   448  0058                     ___fladd@a:
   449                           
   450                           ; 4 bytes @ 0x38
   451  0058                     	ds	4
   452  005C                     ??___fladd:
   453                           
   454                           ; 1 bytes @ 0x3C
   455  005C                     	ds	8
   456  0064                     ___fladd@signs:
   457                           
   458                           ; 1 bytes @ 0x44
   459  0064                     	ds	1
   460  0065                     ___fladd@aexp:
   461                           
   462                           ; 1 bytes @ 0x45
   463  0065                     	ds	1
   464  0066                     ___fladd@bexp:
   465                           
   466                           ; 1 bytes @ 0x46
   467  0066                     	ds	1
   468  0067                     ___fladd@grs:
   469                           
   470                           ; 1 bytes @ 0x47
   471  0067                     	ds	1
   472  0068                     ?___fltol:
   473  0068                     ___fltol@f1:	
   474                           ; 4 bytes @ 0x48
   475                           
   476                           
   477                           ; 4 bytes @ 0x48
   478  0068                     	ds	4
   479  006C                     ___fltol@sign1:
   480                           
   481                           ; 1 bytes @ 0x4C
   482  006C                     	ds	1
   483  006D                     ___fltol@exp1:
   484                           
   485                           ; 1 bytes @ 0x4D
   486  006D                     	ds	1
   487  006E                     map@x:
   488                           
   489                           ; 1 bytes @ 0x4E
   490  006E                     	ds	1
   491                           
   492                           	psect	maintext
   493  0C86                     __pmaintext:	
   494 ;;
   495 ;;Main: autosize = 0, tempsize = 1, incstack = 0, save=0
   496 ;;
   497 ;; *************** function _main *****************
   498 ;; Defined at:
   499 ;;		line 58 in file "PWM.c"
   500 ;; Parameters:    Size  Location     Type
   501 ;;		None
   502 ;; Auto vars:     Size  Location     Type
   503 ;;		None
   504 ;; Return value:  Size  Location     Type
   505 ;;                  1    wreg      void 
   506 ;; Registers used:
   507 ;;		wreg, status,2, status,0, pclath, cstack
   508 ;; Tracked objects:
   509 ;;		On entry : B00/0
   510 ;;		On exit  : 0/0
   511 ;;		Unchanged: 0/0
   512 ;; Data sizes:     COMMON   BANK0   BANK1   BANK3   BANK2
   513 ;;      Params:         0       0       0       0       0
   514 ;;      Locals:         0       0       0       0       0
   515 ;;      Temps:          0       0       1       0       0
   516 ;;      Totals:         0       0       1       0       0
   517 ;;Total ram usage:        1 bytes
   518 ;; Hardware stack levels required when called: 5
   519 ;; This function calls:
   520 ;;		_setup
   521 ;; This function is called by:
   522 ;;		Startup code after reset
   523 ;; This function uses a non-reentrant model
   524 ;;
   525                           
   526  0C86                     _main:	
   527                           ;psect for function _main
   528                           
   529  0C86                     l2004:	
   530                           ;incstack = 0
   531                           ; Regs used in _main: [wreg+status,2+status,0+pclath+cstack]
   532                           
   533                           
   534                           ;PWM.c: 59:     setup();
   535  0C86  120A  158A  24D6  120A  158A  	fcall	_setup
   536  0C8B                     l2006:
   537                           
   538                           ;PWM.c: 61:         if(ADCON0bits.GO == 0){
   539  0C8B  1283               	bcf	3,5	;RP0=0, select bank0
   540  0C8C  1303               	bcf	3,6	;RP1=0, select bank0
   541  0C8D  189F               	btfsc	31,1	;volatile
   542  0C8E  2C90               	goto	u2931
   543  0C8F  2C91               	goto	u2930
   544  0C90                     u2931:
   545  0C90  2C8B               	goto	l2006
   546  0C91                     u2930:
   547  0C91                     l2008:
   548                           
   549                           ;PWM.c: 62:             if(ADCON0bits.CHS == 0b0000)
   550  0C91  0C1F               	rrf	31,w	;volatile
   551  0C92  1683               	bsf	3,5	;RP0=1, select bank1
   552  0C93  1303               	bcf	3,6	;RP1=0, select bank1
   553  0C94  00B1               	movwf	??_main^(0+128)
   554  0C95  0C31               	rrf	??_main^(0+128),w
   555  0C96  390F               	andlw	15
   556  0C97  3A00               	xorlw	0
   557  0C98  1D03               	skipz
   558  0C99  2C9B               	goto	u2941
   559  0C9A  2C9C               	goto	u2940
   560  0C9B                     u2941:
   561  0C9B  2CA3               	goto	l2012
   562  0C9C                     u2940:
   563  0C9C                     l2010:
   564                           
   565                           ;PWM.c: 63:                 ADCON0bits.CHS = 0b0001;
   566  0C9C  1283               	bcf	3,5	;RP0=0, select bank0
   567  0C9D  1303               	bcf	3,6	;RP1=0, select bank0
   568  0C9E  081F               	movf	31,w	;volatile
   569  0C9F  39C3               	andlw	-61
   570  0CA0  3804               	iorlw	4
   571  0CA1  009F               	movwf	31	;volatile
   572  0CA2  2CC8               	goto	l2020
   573  0CA3                     l2012:
   574  0CA3  1283               	bcf	3,5	;RP0=0, select bank0
   575  0CA4  1303               	bcf	3,6	;RP1=0, select bank0
   576  0CA5  0C1F               	rrf	31,w	;volatile
   577  0CA6  1683               	bsf	3,5	;RP0=1, select bank1
   578  0CA7  1303               	bcf	3,6	;RP1=0, select bank1
   579  0CA8  00B1               	movwf	??_main^(0+128)
   580  0CA9  0C31               	rrf	??_main^(0+128),w
   581  0CAA  390F               	andlw	15
   582  0CAB  3A01               	xorlw	1
   583  0CAC  1D03               	skipz
   584  0CAD  2CAF               	goto	u2951
   585  0CAE  2CB0               	goto	u2950
   586  0CAF                     u2951:
   587  0CAF  2CB7               	goto	l2016
   588  0CB0                     u2950:
   589  0CB0                     l2014:
   590                           
   591                           ;PWM.c: 65:                 ADCON0bits.CHS = 0b0010;
   592  0CB0  1283               	bcf	3,5	;RP0=0, select bank0
   593  0CB1  1303               	bcf	3,6	;RP1=0, select bank0
   594  0CB2  081F               	movf	31,w	;volatile
   595  0CB3  39C3               	andlw	-61
   596  0CB4  3808               	iorlw	8
   597  0CB5  009F               	movwf	31	;volatile
   598  0CB6  2CC8               	goto	l2020
   599  0CB7                     l2016:
   600  0CB7  1283               	bcf	3,5	;RP0=0, select bank0
   601  0CB8  1303               	bcf	3,6	;RP1=0, select bank0
   602  0CB9  0C1F               	rrf	31,w	;volatile
   603  0CBA  1683               	bsf	3,5	;RP0=1, select bank1
   604  0CBB  1303               	bcf	3,6	;RP1=0, select bank1
   605  0CBC  00B1               	movwf	??_main^(0+128)
   606  0CBD  0C31               	rrf	??_main^(0+128),w
   607  0CBE  390F               	andlw	15
   608  0CBF  3A02               	xorlw	2
   609  0CC0  1D03               	skipz
   610  0CC1  2CC3               	goto	u2961
   611  0CC2  2CC4               	goto	u2960
   612  0CC3                     u2961:
   613  0CC3  2CC8               	goto	l2020
   614  0CC4                     u2960:
   615  0CC4                     l2018:
   616                           
   617                           ;PWM.c: 67:                 ADCON0bits.CHS = 0b0000;
   618  0CC4  30C3               	movlw	-61
   619  0CC5  1283               	bcf	3,5	;RP0=0, select bank0
   620  0CC6  1303               	bcf	3,6	;RP1=0, select bank0
   621  0CC7  059F               	andwf	31,f	;volatile
   622  0CC8                     l2020:
   623                           
   624                           ;PWM.c: 69:             _delay((unsigned long)((40)*(1000000/4000000.0)));
   625  0CC8  3002               	movlw	2
   626  0CC9  1683               	bsf	3,5	;RP0=1, select bank1
   627  0CCA  1303               	bcf	3,6	;RP1=0, select bank1
   628  0CCB  00B1               	movwf	??_main^(0+128)
   629  0CCC                     u2977:
   630  0CCC  0BB1               	decfsz	??_main^(0+128),f
   631  0CCD  2CCC               	goto	u2977
   632  0CCE  0000               	nop
   633  0CCF                     l2022:
   634                           
   635                           ;PWM.c: 70:             ADCON0bits.GO = 1;
   636  0CCF  1283               	bcf	3,5	;RP0=0, select bank0
   637  0CD0  1303               	bcf	3,6	;RP1=0, select bank0
   638  0CD1  149F               	bsf	31,1	;volatile
   639  0CD2  2C8B               	goto	l2006
   640  0CD3  120A  118A  2810   	ljmp	start
   641  0CD6                     __end_of_main:
   642                           
   643                           	psect	text1
   644  0CD6                     __ptext1:	
   645 ;; *************** function _setup *****************
   646 ;; Defined at:
   647 ;;		line 76 in file "PWM.c"
   648 ;; Parameters:    Size  Location     Type
   649 ;;		None
   650 ;; Auto vars:     Size  Location     Type
   651 ;;		None
   652 ;; Return value:  Size  Location     Type
   653 ;;                  1    wreg      void 
   654 ;; Registers used:
   655 ;;		wreg, status,2, status,0
   656 ;; Tracked objects:
   657 ;;		On entry : 0/0
   658 ;;		On exit  : 0/0
   659 ;;		Unchanged: 0/0
   660 ;; Data sizes:     COMMON   BANK0   BANK1   BANK3   BANK2
   661 ;;      Params:         0       0       0       0       0
   662 ;;      Locals:         0       0       0       0       0
   663 ;;      Temps:          0       0       1       0       0
   664 ;;      Totals:         0       0       1       0       0
   665 ;;Total ram usage:        1 bytes
   666 ;; Hardware stack levels used: 1
   667 ;; Hardware stack levels required when called: 4
   668 ;; This function calls:
   669 ;;		Nothing
   670 ;; This function is called by:
   671 ;;		_main
   672 ;; This function uses a non-reentrant model
   673 ;;
   674                           
   675  0CD6                     _setup:	
   676                           ;psect for function _setup
   677                           
   678  0CD6                     l1926:	
   679                           ;incstack = 0
   680                           ; Regs used in _setup: [wreg+status,2+status,0]
   681                           
   682                           
   683                           ;PWM.c: 77:     ANSEL =0b00000111;
   684  0CD6  3007               	movlw	7
   685  0CD7  1683               	bsf	3,5	;RP0=1, select bank3
   686  0CD8  1703               	bsf	3,6	;RP1=1, select bank3
   687  0CD9  0088               	movwf	8	;volatile
   688  0CDA                     l1928:
   689                           
   690                           ;PWM.c: 78:     ANSELH = 0x00;
   691  0CDA  0189               	clrf	9	;volatile
   692  0CDB                     l1930:
   693                           
   694                           ;PWM.c: 80:     OSCCONbits.IRCF = 0b0100;
   695  0CDB  1683               	bsf	3,5	;RP0=1, select bank1
   696  0CDC  1303               	bcf	3,6	;RP1=0, select bank1
   697  0CDD  080F               	movf	15,w	;volatile
   698  0CDE  398F               	andlw	-113
   699  0CDF  3840               	iorlw	64
   700  0CE0  008F               	movwf	15	;volatile
   701  0CE1                     l1932:
   702                           
   703                           ;PWM.c: 81:     OSCCONbits.SCS = 1;
   704  0CE1  140F               	bsf	15,0	;volatile
   705  0CE2                     l1934:
   706                           
   707                           ;PWM.c: 83:     TRISA = 0b00000111;
   708  0CE2  3007               	movlw	7
   709  0CE3  0085               	movwf	5	;volatile
   710  0CE4                     l1936:
   711                           
   712                           ;PWM.c: 84:     TRISD = 0x00;
   713  0CE4  0188               	clrf	8	;volatile
   714  0CE5                     l1938:
   715                           
   716                           ;PWM.c: 85:     PORTA = 0x00;
   717  0CE5  1283               	bcf	3,5	;RP0=0, select bank0
   718  0CE6  1303               	bcf	3,6	;RP1=0, select bank0
   719  0CE7  0185               	clrf	5	;volatile
   720  0CE8                     l1940:
   721                           
   722                           ;PWM.c: 86:     PORTD = 0x00;
   723  0CE8  0188               	clrf	8	;volatile
   724                           
   725                           ;PWM.c: 89:     ADCON0bits.ADCS = 0b00;
   726  0CE9  303F               	movlw	-193
   727  0CEA  059F               	andwf	31,f	;volatile
   728  0CEB                     l1942:
   729                           
   730                           ;PWM.c: 91:     ADCON1bits.VCFG0 = 0;
   731  0CEB  1683               	bsf	3,5	;RP0=1, select bank1
   732  0CEC  1303               	bcf	3,6	;RP1=0, select bank1
   733  0CED  121F               	bcf	31,4	;volatile
   734  0CEE                     l1944:
   735                           
   736                           ;PWM.c: 92:     ADCON1bits.VCFG1 = 1;
   737  0CEE  169F               	bsf	31,5	;volatile
   738                           
   739                           ;PWM.c: 94:     ADCON0bits.CHS = 0b0000;
   740  0CEF  30C3               	movlw	-61
   741  0CF0  1283               	bcf	3,5	;RP0=0, select bank0
   742  0CF1  1303               	bcf	3,6	;RP1=0, select bank0
   743  0CF2  059F               	andwf	31,f	;volatile
   744  0CF3                     l1946:
   745                           
   746                           ;PWM.c: 95:     ADCON1bits.ADFM = 0;
   747  0CF3  1683               	bsf	3,5	;RP0=1, select bank1
   748  0CF4  1303               	bcf	3,6	;RP1=0, select bank1
   749  0CF5  139F               	bcf	31,7	;volatile
   750  0CF6                     l1948:
   751                           
   752                           ;PWM.c: 96:     ADCON0bits.ADON = 1;
   753  0CF6  1283               	bcf	3,5	;RP0=0, select bank0
   754  0CF7  1303               	bcf	3,6	;RP1=0, select bank0
   755  0CF8  141F               	bsf	31,0	;volatile
   756  0CF9                     l1950:
   757                           
   758                           ;PWM.c: 97:     _delay((unsigned long)((40)*(1000000/4000000.0)));
   759  0CF9  3002               	movlw	2
   760  0CFA  1683               	bsf	3,5	;RP0=1, select bank1
   761  0CFB  1303               	bcf	3,6	;RP1=0, select bank1
   762  0CFC  00B0               	movwf	??_setup^(0+128)
   763  0CFD                     u2987:
   764  0CFD  0BB0               	decfsz	??_setup^(0+128),f
   765  0CFE  2CFD               	goto	u2987
   766  0CFF  0000               	nop
   767  0D00                     l1952:
   768                           
   769                           ;PWM.c: 100:     TRISCbits.TRISC2 = 1;
   770  0D00  1683               	bsf	3,5	;RP0=1, select bank1
   771  0D01  1303               	bcf	3,6	;RP1=0, select bank1
   772  0D02  1507               	bsf	7,2	;volatile
   773  0D03                     l1954:
   774                           
   775                           ;PWM.c: 101:     TRISCbits.TRISC1 = 1;
   776  0D03  1487               	bsf	7,1	;volatile
   777  0D04                     l1956:
   778                           
   779                           ;PWM.c: 102:     PR2 = 155;
   780  0D04  309B               	movlw	155
   781  0D05  0092               	movwf	18	;volatile
   782  0D06                     l1958:
   783                           
   784                           ;PWM.c: 105:     CCP1CON = 0;
   785  0D06  1283               	bcf	3,5	;RP0=0, select bank0
   786  0D07  1303               	bcf	3,6	;RP1=0, select bank0
   787  0D08  0197               	clrf	23	;volatile
   788  0D09                     l1960:
   789                           
   790                           ;PWM.c: 106:     CCP2CON = 0;
   791  0D09  019D               	clrf	29	;volatile
   792                           
   793                           ;PWM.c: 107:     CCP1CONbits.P1M = 0;
   794  0D0A  303F               	movlw	-193
   795  0D0B  0597               	andwf	23,f	;volatile
   796                           
   797                           ;PWM.c: 108:     CCP1CONbits.CCP1M = 0b1100;
   798  0D0C  0817               	movf	23,w	;volatile
   799  0D0D  39F0               	andlw	-16
   800  0D0E  380C               	iorlw	12
   801  0D0F  0097               	movwf	23	;volatile
   802                           
   803                           ;PWM.c: 109:     CCP2CONbits.CCP2M = 0b1100;
   804  0D10  081D               	movf	29,w	;volatile
   805  0D11  39F0               	andlw	-16
   806  0D12  380C               	iorlw	12
   807  0D13  009D               	movwf	29	;volatile
   808  0D14                     l1962:
   809                           
   810                           ;PWM.c: 111:     CCPR1L = 125>>2;
   811  0D14  301F               	movlw	31
   812  0D15  0095               	movwf	21	;volatile
   813  0D16                     l1964:
   814                           
   815                           ;PWM.c: 112:     CCP1CONbits.DC1B = 125 & 0b11;
   816  0D16  0817               	movf	23,w	;volatile
   817  0D17  39CF               	andlw	-49
   818  0D18  3810               	iorlw	16
   819  0D19  0097               	movwf	23	;volatile
   820                           
   821                           ;PWM.c: 114:     CCPR2L = 125>>2;
   822  0D1A  301F               	movlw	31
   823  0D1B  009B               	movwf	27	;volatile
   824  0D1C                     l1966:
   825                           
   826                           ;PWM.c: 115:     CCP2CONbits.DC2B0 = 125 & 0b1;
   827  0D1C  161D               	bsf	29,4	;volatile
   828  0D1D                     l1968:
   829                           
   830                           ;PWM.c: 116:     CCP2CONbits.DC2B1 = 125 & 0b1;
   831  0D1D  169D               	bsf	29,5	;volatile
   832  0D1E                     l1970:
   833                           
   834                           ;PWM.c: 118:     PIR1bits.TMR2IF = 0;
   835  0D1E  108C               	bcf	12,1	;volatile
   836  0D1F                     l1972:
   837                           
   838                           ;PWM.c: 119:     T2CONbits.T2CKPS = 0b11;
   839  0D1F  3003               	movlw	3
   840  0D20  0492               	iorwf	18,f	;volatile
   841  0D21                     l1974:
   842                           
   843                           ;PWM.c: 120:     T2CONbits.TMR2ON = 1;
   844  0D21  1512               	bsf	18,2	;volatile
   845  0D22                     l82:	
   846                           ;PWM.c: 121:     while(!PIR1bits.TMR2IF);
   847                           
   848  0D22  1C8C               	btfss	12,1	;volatile
   849  0D23  2D25               	goto	u2881
   850  0D24  2D26               	goto	u2880
   851  0D25                     u2881:
   852  0D25  2D22               	goto	l82
   853  0D26                     u2880:
   854  0D26                     l84:
   855                           
   856                           ;PWM.c: 122:     PIR1bits.TMR2IF = 0;
   857  0D26  108C               	bcf	12,1	;volatile
   858                           
   859                           ;PWM.c: 124:     TRISCbits.TRISC2 = 0;
   860  0D27  1683               	bsf	3,5	;RP0=1, select bank1
   861  0D28  1303               	bcf	3,6	;RP1=0, select bank1
   862  0D29  1107               	bcf	7,2	;volatile
   863                           
   864                           ;PWM.c: 125:     TRISCbits.TRISC1 = 0;
   865  0D2A  1087               	bcf	7,1	;volatile
   866                           
   867                           ;PWM.c: 128:     PIR1bits.ADIF = 0;
   868  0D2B  1283               	bcf	3,5	;RP0=0, select bank0
   869  0D2C  1303               	bcf	3,6	;RP1=0, select bank0
   870  0D2D  130C               	bcf	12,6	;volatile
   871                           
   872                           ;PWM.c: 129:     PIE1bits.ADIE = 1;
   873  0D2E  1683               	bsf	3,5	;RP0=1, select bank1
   874  0D2F  1303               	bcf	3,6	;RP1=0, select bank1
   875  0D30  170C               	bsf	12,6	;volatile
   876                           
   877                           ;PWM.c: 130:     INTCONbits.PEIE = 1;
   878  0D31  170B               	bsf	11,6	;volatile
   879                           
   880                           ;PWM.c: 131:     INTCONbits.GIE = 1;
   881  0D32  178B               	bsf	11,7	;volatile
   882  0D33                     l85:	
   883                           ;PWM.c: 133:     return;
   884                           
   885  0D33  0008               	return
   886  0D34                     __end_of_setup:
   887                           
   888                           	psect	text2
   889  0F3C                     __ptext2:	
   890 ;; *************** function _isr *****************
   891 ;; Defined at:
   892 ;;		line 39 in file "PWM.c"
   893 ;; Parameters:    Size  Location     Type
   894 ;;		None
   895 ;; Auto vars:     Size  Location     Type
   896 ;;		None
   897 ;; Return value:  Size  Location     Type
   898 ;;                  1    wreg      void 
   899 ;; Registers used:
   900 ;;		wreg, status,2, status,0, btemp+1, pclath, cstack
   901 ;; Tracked objects:
   902 ;;		On entry : 0/0
   903 ;;		On exit  : 0/0
   904 ;;		Unchanged: 0/0
   905 ;; Data sizes:     COMMON   BANK0   BANK1   BANK3   BANK2
   906 ;;      Params:         0       0       0       0       0
   907 ;;      Locals:         0       0       0       0       0
   908 ;;      Temps:          0       0       5       0       0
   909 ;;      Totals:         0       0       5       0       0
   910 ;;Total ram usage:        5 bytes
   911 ;; Hardware stack levels used: 1
   912 ;; Hardware stack levels required when called: 3
   913 ;; This function calls:
   914 ;;		_map
   915 ;; This function is called by:
   916 ;;		Interrupt level 1
   917 ;; This function uses a non-reentrant model
   918 ;;
   919                           
   920  0F3C                     _isr:	
   921                           ;psect for function _isr
   922                           
   923  0F3C                     i1l1976:
   924                           
   925                           ;PWM.c: 40:     if(PIR1bits.ADIF){
   926  0F3C  1283               	bcf	3,5	;RP0=0, select bank0
   927  0F3D  1303               	bcf	3,6	;RP1=0, select bank0
   928  0F3E  1F0C               	btfss	12,6	;volatile
   929  0F3F  2F41               	goto	u289_21
   930  0F40  2F42               	goto	u289_20
   931  0F41                     u289_21:
   932  0F41  2FF5               	goto	i1l65
   933  0F42                     u289_20:
   934  0F42                     i1l1978:
   935                           
   936                           ;PWM.c: 41:         if(ADCON0bits.CHS == 0){
   937  0F42  0C1F               	rrf	31,w	;volatile
   938  0F43  1683               	bsf	3,5	;RP0=1, select bank1
   939  0F44  1303               	bcf	3,6	;RP1=0, select bank1
   940  0F45  00AB               	movwf	??_isr^(0+128)
   941  0F46  0C2B               	rrf	??_isr^(0+128),w
   942  0F47  390F               	andlw	15
   943  0F48  3A00               	xorlw	0
   944  0F49  1D03               	skipz
   945  0F4A  2F4C               	goto	u290_21
   946  0F4B  2F4D               	goto	u290_20
   947  0F4C                     u290_21:
   948  0F4C  2F88               	goto	i1l1986
   949  0F4D                     u290_20:
   950  0F4D                     i1l1980:
   951                           
   952                           ;PWM.c: 42:             CCP1 = map(ADRESH, 0, 255, 62, 125);
   953  0F4D  01A5               	clrf	map@x0^(0+128)
   954  0F4E  30FF               	movlw	255
   955  0F4F  00AB               	movwf	??_isr^(0+128)
   956  0F50  082B               	movf	??_isr^(0+128),w
   957  0F51  00A6               	movwf	map@x1^(0+128)
   958  0F52  303E               	movlw	62
   959  0F53  00A7               	movwf	map@y0^(0+128)
   960  0F54  3000               	movlw	0
   961  0F55  00A8               	movwf	(map@y0^(0+128)+1)
   962  0F56  307D               	movlw	125
   963  0F57  00A9               	movwf	map@y1^(0+128)
   964  0F58  3000               	movlw	0
   965  0F59  00AA               	movwf	(map@y1^(0+128)+1)
   966  0F5A  1283               	bcf	3,5	;RP0=0, select bank0
   967  0F5B  1303               	bcf	3,6	;RP1=0, select bank0
   968  0F5C  081E               	movf	30,w	;volatile
   969  0F5D  120A  158A  25D0  120A  158A  	fcall	_map
   970  0F62  1683               	bsf	3,5	;RP0=1, select bank1
   971  0F63  1303               	bcf	3,6	;RP1=0, select bank1
   972  0F64  0826               	movf	(?_map+1)^(0+128),w
   973  0F65  00B5               	movwf	(_CCP1+1)^(0+128)
   974  0F66  0825               	movf	?_map^(0+128),w
   975  0F67  00B4               	movwf	_CCP1^(0+128)
   976  0F68                     i1l1982:
   977                           
   978                           ;PWM.c: 43:             CCPR1L = (uint8_t)(CCP1>>2);
   979  0F68  0835               	movf	(_CCP1+1)^(0+128),w
   980  0F69  00AC               	movwf	(??_isr^(0+128)+1)
   981  0F6A  0834               	movf	_CCP1^(0+128),w
   982  0F6B  00AB               	movwf	??_isr^(0+128)
   983  0F6C  1003               	clrc
   984  0F6D  0CAC               	rrf	(??_isr^(0+128)+1),f
   985  0F6E  0CAB               	rrf	??_isr^(0+128),f
   986  0F6F  1003               	clrc
   987  0F70  0CAC               	rrf	(??_isr^(0+128)+1),f
   988  0F71  0CAB               	rrf	??_isr^(0+128),f
   989  0F72  082B               	movf	??_isr^(0+128),w
   990  0F73  1283               	bcf	3,5	;RP0=0, select bank0
   991  0F74  1303               	bcf	3,6	;RP1=0, select bank0
   992  0F75  0095               	movwf	21	;volatile
   993  0F76                     i1l1984:
   994                           
   995                           ;PWM.c: 44:             CCP1CONbits.DC1B = CCP1 & 0b11;
   996  0F76  1683               	bsf	3,5	;RP0=1, select bank1
   997  0F77  1303               	bcf	3,6	;RP1=0, select bank1
   998  0F78  0834               	movf	_CCP1^(0+128),w
   999  0F79  3903               	andlw	3
  1000  0F7A  00AB               	movwf	??_isr^(0+128)
  1001  0F7B  0EAB               	swapf	??_isr^(0+128),f
  1002  0F7C  1283               	bcf	3,5	;RP0=0, select bank0
  1003  0F7D  1303               	bcf	3,6	;RP1=0, select bank0
  1004  0F7E  0817               	movf	23,w	;volatile
  1005  0F7F  1683               	bsf	3,5	;RP0=1, select bank1
  1006  0F80  1303               	bcf	3,6	;RP1=0, select bank1
  1007  0F81  062B               	xorwf	??_isr^(0+128),w
  1008  0F82  39CF               	andlw	-49
  1009  0F83  062B               	xorwf	??_isr^(0+128),w
  1010  0F84  1283               	bcf	3,5	;RP0=0, select bank0
  1011  0F85  1303               	bcf	3,6	;RP1=0, select bank0
  1012  0F86  0097               	movwf	23	;volatile
  1013                           
  1014                           ;PWM.c: 45:         }else if(ADCON0bits.CHS == 1){
  1015  0F87  2FF3               	goto	i1l2000
  1016  0F88                     i1l1986:
  1017  0F88  1283               	bcf	3,5	;RP0=0, select bank0
  1018  0F89  1303               	bcf	3,6	;RP1=0, select bank0
  1019  0F8A  0C1F               	rrf	31,w	;volatile
  1020  0F8B  1683               	bsf	3,5	;RP0=1, select bank1
  1021  0F8C  1303               	bcf	3,6	;RP1=0, select bank1
  1022  0F8D  00AB               	movwf	??_isr^(0+128)
  1023  0F8E  0C2B               	rrf	??_isr^(0+128),w
  1024  0F8F  390F               	andlw	15
  1025  0F90  3A01               	xorlw	1
  1026  0F91  1D03               	skipz
  1027  0F92  2F94               	goto	u291_21
  1028  0F93  2F95               	goto	u291_20
  1029  0F94                     u291_21:
  1030  0F94  2FE2               	goto	i1l1996
  1031  0F95                     u291_20:
  1032  0F95                     i1l1988:
  1033                           
  1034                           ;PWM.c: 46:             CCP2 = map(ADRESH, 0, 255, 62, 125);
  1035  0F95  01A5               	clrf	map@x0^(0+128)
  1036  0F96  30FF               	movlw	255
  1037  0F97  00AB               	movwf	??_isr^(0+128)
  1038  0F98  082B               	movf	??_isr^(0+128),w
  1039  0F99  00A6               	movwf	map@x1^(0+128)
  1040  0F9A  303E               	movlw	62
  1041  0F9B  00A7               	movwf	map@y0^(0+128)
  1042  0F9C  3000               	movlw	0
  1043  0F9D  00A8               	movwf	(map@y0^(0+128)+1)
  1044  0F9E  307D               	movlw	125
  1045  0F9F  00A9               	movwf	map@y1^(0+128)
  1046  0FA0  3000               	movlw	0
  1047  0FA1  00AA               	movwf	(map@y1^(0+128)+1)
  1048  0FA2  1283               	bcf	3,5	;RP0=0, select bank0
  1049  0FA3  1303               	bcf	3,6	;RP1=0, select bank0
  1050  0FA4  081E               	movf	30,w	;volatile
  1051  0FA5  120A  158A  25D0  120A  158A  	fcall	_map
  1052  0FAA  1683               	bsf	3,5	;RP0=1, select bank1
  1053  0FAB  1303               	bcf	3,6	;RP1=0, select bank1
  1054  0FAC  0826               	movf	(?_map+1)^(0+128),w
  1055  0FAD  00B3               	movwf	(_CCP2+1)^(0+128)
  1056  0FAE  0825               	movf	?_map^(0+128),w
  1057  0FAF  00B2               	movwf	_CCP2^(0+128)
  1058  0FB0                     i1l1990:
  1059                           
  1060                           ;PWM.c: 47:             CCPR2L = (uint8_t)(CCP2>>2);
  1061  0FB0  0833               	movf	(_CCP2+1)^(0+128),w
  1062  0FB1  00AC               	movwf	(??_isr^(0+128)+1)
  1063  0FB2  0832               	movf	_CCP2^(0+128),w
  1064  0FB3  00AB               	movwf	??_isr^(0+128)
  1065  0FB4  1003               	clrc
  1066  0FB5  0CAC               	rrf	(??_isr^(0+128)+1),f
  1067  0FB6  0CAB               	rrf	??_isr^(0+128),f
  1068  0FB7  1003               	clrc
  1069  0FB8  0CAC               	rrf	(??_isr^(0+128)+1),f
  1070  0FB9  0CAB               	rrf	??_isr^(0+128),f
  1071  0FBA  082B               	movf	??_isr^(0+128),w
  1072  0FBB  1283               	bcf	3,5	;RP0=0, select bank0
  1073  0FBC  1303               	bcf	3,6	;RP1=0, select bank0
  1074  0FBD  009B               	movwf	27	;volatile
  1075  0FBE                     i1l1992:
  1076                           
  1077                           ;PWM.c: 48:             CCP2CONbits.DC2B0 = CCP2 & 0b01;
  1078  0FBE  1683               	bsf	3,5	;RP0=1, select bank1
  1079  0FBF  1303               	bcf	3,6	;RP1=0, select bank1
  1080  0FC0  0832               	movf	_CCP2^(0+128),w
  1081  0FC1  3901               	andlw	1
  1082  0FC2  00AB               	movwf	??_isr^(0+128)
  1083  0FC3  0EAB               	swapf	??_isr^(0+128),f
  1084  0FC4  1283               	bcf	3,5	;RP0=0, select bank0
  1085  0FC5  1303               	bcf	3,6	;RP1=0, select bank0
  1086  0FC6  081D               	movf	29,w	;volatile
  1087  0FC7  1683               	bsf	3,5	;RP0=1, select bank1
  1088  0FC8  1303               	bcf	3,6	;RP1=0, select bank1
  1089  0FC9  062B               	xorwf	??_isr^(0+128),w
  1090  0FCA  39EF               	andlw	-17
  1091  0FCB  062B               	xorwf	??_isr^(0+128),w
  1092  0FCC  1283               	bcf	3,5	;RP0=0, select bank0
  1093  0FCD  1303               	bcf	3,6	;RP1=0, select bank0
  1094  0FCE  009D               	movwf	29	;volatile
  1095  0FCF                     i1l1994:
  1096                           
  1097                           ;PWM.c: 49:             CCP2CONbits.DC2B1 = CCP2 & 0b10;
  1098  0FCF  1683               	bsf	3,5	;RP0=1, select bank1
  1099  0FD0  1303               	bcf	3,6	;RP1=0, select bank1
  1100  0FD1  0832               	movf	_CCP2^(0+128),w
  1101  0FD2  3902               	andlw	2
  1102  0FD3  00AB               	movwf	??_isr^(0+128)
  1103  0FD4  0EAB               	swapf	??_isr^(0+128),f
  1104  0FD5  0DAB               	rlf	??_isr^(0+128),f
  1105  0FD6  1283               	bcf	3,5	;RP0=0, select bank0
  1106  0FD7  1303               	bcf	3,6	;RP1=0, select bank0
  1107  0FD8  081D               	movf	29,w	;volatile
  1108  0FD9  1683               	bsf	3,5	;RP0=1, select bank1
  1109  0FDA  1303               	bcf	3,6	;RP1=0, select bank1
  1110  0FDB  062B               	xorwf	??_isr^(0+128),w
  1111  0FDC  39DF               	andlw	-33
  1112  0FDD  062B               	xorwf	??_isr^(0+128),w
  1113  0FDE  1283               	bcf	3,5	;RP0=0, select bank0
  1114  0FDF  1303               	bcf	3,6	;RP1=0, select bank0
  1115  0FE0  009D               	movwf	29	;volatile
  1116                           
  1117                           ;PWM.c: 50:         }else if(ADCON0bits.CHS == 2){
  1118  0FE1  2FF3               	goto	i1l2000
  1119  0FE2                     i1l1996:
  1120  0FE2  1283               	bcf	3,5	;RP0=0, select bank0
  1121  0FE3  1303               	bcf	3,6	;RP1=0, select bank0
  1122  0FE4  0C1F               	rrf	31,w	;volatile
  1123  0FE5  1683               	bsf	3,5	;RP0=1, select bank1
  1124  0FE6  1303               	bcf	3,6	;RP1=0, select bank1
  1125  0FE7  00AB               	movwf	??_isr^(0+128)
  1126  0FE8  0C2B               	rrf	??_isr^(0+128),w
  1127  0FE9  390F               	andlw	15
  1128  0FEA  3A02               	xorlw	2
  1129  0FEB  1D03               	skipz
  1130  0FEC  2FEE               	goto	u292_21
  1131  0FED  2FEF               	goto	u292_20
  1132  0FEE                     u292_21:
  1133  0FEE  2FF3               	goto	i1l2000
  1134  0FEF                     u292_20:
  1135  0FEF                     i1l1998:
  1136                           
  1137                           ;PWM.c: 51:             PORTD = ADRESH;
  1138  0FEF  1283               	bcf	3,5	;RP0=0, select bank0
  1139  0FF0  1303               	bcf	3,6	;RP1=0, select bank0
  1140  0FF1  081E               	movf	30,w	;volatile
  1141  0FF2  0088               	movwf	8	;volatile
  1142  0FF3                     i1l2000:
  1143                           
  1144                           ;PWM.c: 53:         PIR1bits.ADIF = 0;
  1145  0FF3  1283               	bcf	3,5	;RP0=0, select bank0
  1146  0FF4  130C               	bcf	12,6	;volatile
  1147  0FF5                     i1l65:
  1148  0FF5  1683               	bsf	3,5	;RP0=1, select bank1
  1149  0FF6  1303               	bcf	3,6	;RP1=0, select bank1
  1150  0FF7  082F               	movf	(??_isr+4)^(0+128),w
  1151  0FF8  00FF               	movwf	btemp+1
  1152  0FF9  082E               	movf	(??_isr+3)^(0+128),w
  1153  0FFA  008A               	movwf	10
  1154  0FFB  0E2D               	swapf	(??_isr+2)^(0+128),w
  1155  0FFC  0083               	movwf	3
  1156  0FFD  0EFE               	swapf	btemp,f
  1157  0FFE  0E7E               	swapf	btemp,w
  1158  0FFF  0009               	retfie
  1159  1000                     __end_of_isr:
  1160                           
  1161                           	psect	intentry
  1162  0004                     __pintentry:	
  1163                           ;incstack = 0
  1164                           ; Regs used in _isr: [wreg+status,2+status,0+btemp+1+pclath+cstack]
  1165                           
  1166  0004                     interrupt_function:
  1167  007E                     saved_w	set	btemp
  1168  0004  00FE               	movwf	btemp
  1169  0005  0E03               	swapf	3,w
  1170  0006  1683               	bsf	3,5	;RP0=1, select bank1
  1171  0007  1303               	bcf	3,6	;RP1=0, select bank1
  1172  0008  00AD               	movwf	(??_isr+2)^(0+128)
  1173  0009  080A               	movf	10,w
  1174  000A  00AE               	movwf	(??_isr+3)^(0+128)
  1175  000B  087F               	movf	btemp+1,w
  1176  000C  00AF               	movwf	(??_isr+4)^(0+128)
  1177  000D  120A  158A  2F3C   	ljmp	_isr
  1178                           
  1179                           	psect	text3
  1180  0DD0                     __ptext3:	
  1181 ;; *************** function _map *****************
  1182 ;; Defined at:
  1183 ;;		line 136 in file "PWM.c"
  1184 ;; Parameters:    Size  Location     Type
  1185 ;;  x               1    wreg     unsigned char 
  1186 ;;  x0              1    5[BANK1 ] unsigned char 
  1187 ;;  x1              1    6[BANK1 ] unsigned char 
  1188 ;;  y0              2    7[BANK1 ] unsigned short 
  1189 ;;  y1              2    9[BANK1 ] unsigned short 
  1190 ;; Auto vars:     Size  Location     Type
  1191 ;;  x               1   78[BANK0 ] unsigned char 
  1192 ;; Return value:  Size  Location     Type
  1193 ;;                  2    5[BANK1 ] unsigned short 
  1194 ;; Registers used:
  1195 ;;		wreg, status,2, status,0, btemp+1, pclath, cstack
  1196 ;; Tracked objects:
  1197 ;;		On entry : 0/0
  1198 ;;		On exit  : 0/0
  1199 ;;		Unchanged: 0/0
  1200 ;; Data sizes:     COMMON   BANK0   BANK1   BANK3   BANK2
  1201 ;;      Params:         0       0       6       0       0
  1202 ;;      Locals:         0       1       0       0       0
  1203 ;;      Temps:          0       0       0       0       0
  1204 ;;      Totals:         0       1       6       0       0
  1205 ;;Total ram usage:        7 bytes
  1206 ;; Hardware stack levels used: 1
  1207 ;; Hardware stack levels required when called: 2
  1208 ;; This function calls:
  1209 ;;		___fladd
  1210 ;;		___fldiv
  1211 ;;		___flmul
  1212 ;;		___fltol
  1213 ;;		___xxtofl
  1214 ;; This function is called by:
  1215 ;;		_isr
  1216 ;; This function uses a non-reentrant model
  1217 ;;
  1218                           
  1219  0DD0                     _map:	
  1220                           ;psect for function _map
  1221                           
  1222                           
  1223                           ;incstack = 0
  1224                           ; Regs used in _map: [wreg+status,2+status,0+btemp+1+pclath+cstack]
  1225                           ;map@x stored from wreg
  1226  0DD0  1283               	bcf	3,5	;RP0=0, select bank0
  1227  0DD1  1303               	bcf	3,6	;RP1=0, select bank0
  1228  0DD2  00EE               	movwf	map@x
  1229  0DD3                     i1l1922:
  1230                           
  1231                           ;PWM.c: 136: unsigned short map(uint8_t x, uint8_t x0, uint8_t x1,;PWM.c: 137:          
      +                             unsigned short y0, unsigned short y1){;PWM.c: 138:     return (unsigned short)(y0+((f
      +                          loat)(y1-y0)/(x1-x0))*(x-x0));
  1232  0DD3  1683               	bsf	3,5	;RP0=1, select bank1
  1233  0DD4  1303               	bcf	3,6	;RP1=0, select bank1
  1234  0DD5  0827               	movf	map@y0^(0+128),w
  1235  0DD6  00F0               	movwf	___xxtofl@val
  1236  0DD7  0828               	movf	(map@y0+1)^(0+128),w
  1237  0DD8  00F1               	movwf	___xxtofl@val+1
  1238  0DD9  01F2               	clrf	___xxtofl@val+2
  1239  0DDA  01F3               	clrf	___xxtofl@val+3
  1240  0DDB  3000               	movlw	0
  1241  0DDC  120A  158A  2682  120A  158A  	fcall	___xxtofl
  1242  0DE1  0873               	movf	?___xxtofl+3,w
  1243  0DE2  1283               	bcf	3,5	;RP0=0, select bank0
  1244  0DE3  1303               	bcf	3,6	;RP1=0, select bank0
  1245  0DE4  00DB               	movwf	___fladd@a+3
  1246  0DE5  0872               	movf	?___xxtofl+2,w
  1247  0DE6  00DA               	movwf	___fladd@a+2
  1248  0DE7  0871               	movf	?___xxtofl+1,w
  1249  0DE8  00D9               	movwf	___fladd@a+1
  1250  0DE9  0870               	movf	?___xxtofl,w
  1251  0DEA  00D8               	movwf	___fladd@a
  1252  0DEB  1683               	bsf	3,5	;RP0=1, select bank1
  1253  0DEC  1303               	bcf	3,6	;RP1=0, select bank1
  1254  0DED  0827               	movf	map@y0^(0+128),w
  1255  0DEE  0229               	subwf	map@y1^(0+128),w
  1256  0DEF  00F0               	movwf	___xxtofl@val
  1257  0DF0  0828               	movf	(map@y0+1)^(0+128),w
  1258  0DF1  1C03               	skipc
  1259  0DF2  0A28               	incf	(map@y0+1)^(0+128),w
  1260  0DF3  022A               	subwf	(map@y1+1)^(0+128),w
  1261  0DF4  00F1               	movwf	___xxtofl@val+1
  1262  0DF5  01F2               	clrf	___xxtofl@val+2
  1263  0DF6  01F3               	clrf	___xxtofl@val+3
  1264  0DF7  3000               	movlw	0
  1265  0DF8  120A  158A  2682  120A  158A  	fcall	___xxtofl
  1266  0DFD  0873               	movf	?___xxtofl+3,w
  1267  0DFE  1283               	bcf	3,5	;RP0=0, select bank0
  1268  0DFF  1303               	bcf	3,6	;RP1=0, select bank0
  1269  0E00  00A7               	movwf	___fldiv@b+3
  1270  0E01  0872               	movf	?___xxtofl+2,w
  1271  0E02  00A6               	movwf	___fldiv@b+2
  1272  0E03  0871               	movf	?___xxtofl+1,w
  1273  0E04  00A5               	movwf	___fldiv@b+1
  1274  0E05  0870               	movf	?___xxtofl,w
  1275  0E06  00A4               	movwf	___fldiv@b
  1276  0E07  1683               	bsf	3,5	;RP0=1, select bank1
  1277  0E08  1303               	bcf	3,6	;RP1=0, select bank1
  1278  0E09  0825               	movf	map@x0^(0+128),w
  1279  0E0A  0226               	subwf	map@x1^(0+128),w
  1280  0E0B  00F0               	movwf	___xxtofl@val
  1281  0E0C  01F1               	clrf	___xxtofl@val+1
  1282  0E0D  1C03               	skipc
  1283  0E0E  03F1               	decf	___xxtofl@val+1,f
  1284  0E0F  01F2               	clrf	___xxtofl@val+2
  1285  0E10  1BF1               	btfsc	___xxtofl@val+1,7
  1286  0E11  03F2               	decf	___xxtofl@val+2,f
  1287  0E12  0872               	movf	___xxtofl@val+2,w
  1288  0E13  00F3               	movwf	___xxtofl@val+3
  1289  0E14  3001               	movlw	1
  1290  0E15  120A  158A  2682  120A  158A  	fcall	___xxtofl
  1291  0E1A  0873               	movf	?___xxtofl+3,w
  1292  0E1B  1283               	bcf	3,5	;RP0=0, select bank0
  1293  0E1C  1303               	bcf	3,6	;RP1=0, select bank0
  1294  0E1D  00A3               	movwf	___fldiv@a+3
  1295  0E1E  0872               	movf	?___xxtofl+2,w
  1296  0E1F  00A2               	movwf	___fldiv@a+2
  1297  0E20  0871               	movf	?___xxtofl+1,w
  1298  0E21  00A1               	movwf	___fldiv@a+1
  1299  0E22  0870               	movf	?___xxtofl,w
  1300  0E23  00A0               	movwf	___fldiv@a
  1301  0E24  120A  118A  2606  120A  158A  	fcall	___fldiv
  1302  0E29  1283               	bcf	3,5	;RP0=0, select bank0
  1303  0E2A  1303               	bcf	3,6	;RP1=0, select bank0
  1304  0E2B  0823               	movf	?___fldiv+3,w
  1305  0E2C  00C1               	movwf	___flmul@a+3
  1306  0E2D  0822               	movf	?___fldiv+2,w
  1307  0E2E  00C0               	movwf	___flmul@a+2
  1308  0E2F  0821               	movf	?___fldiv+1,w
  1309  0E30  00BF               	movwf	___flmul@a+1
  1310  0E31  0820               	movf	?___fldiv,w
  1311  0E32  00BE               	movwf	___flmul@a
  1312  0E33  1683               	bsf	3,5	;RP0=1, select bank1
  1313  0E34  1303               	bcf	3,6	;RP1=0, select bank1
  1314  0E35  0825               	movf	map@x0^(0+128),w
  1315  0E36  1283               	bcf	3,5	;RP0=0, select bank0
  1316  0E37  1303               	bcf	3,6	;RP1=0, select bank0
  1317  0E38  026E               	subwf	map@x,w
  1318  0E39  00F0               	movwf	___xxtofl@val
  1319  0E3A  01F1               	clrf	___xxtofl@val+1
  1320  0E3B  1C03               	skipc
  1321  0E3C  03F1               	decf	___xxtofl@val+1,f
  1322  0E3D  01F2               	clrf	___xxtofl@val+2
  1323  0E3E  1BF1               	btfsc	___xxtofl@val+1,7
  1324  0E3F  03F2               	decf	___xxtofl@val+2,f
  1325  0E40  0872               	movf	___xxtofl@val+2,w
  1326  0E41  00F3               	movwf	___xxtofl@val+3
  1327  0E42  3001               	movlw	1
  1328  0E43  120A  158A  2682  120A  158A  	fcall	___xxtofl
  1329  0E48  0873               	movf	?___xxtofl+3,w
  1330  0E49  1283               	bcf	3,5	;RP0=0, select bank0
  1331  0E4A  1303               	bcf	3,6	;RP1=0, select bank0
  1332  0E4B  00BD               	movwf	___flmul@b+3
  1333  0E4C  0872               	movf	?___xxtofl+2,w
  1334  0E4D  00BC               	movwf	___flmul@b+2
  1335  0E4E  0871               	movf	?___xxtofl+1,w
  1336  0E4F  00BB               	movwf	___flmul@b+1
  1337  0E50  0870               	movf	?___xxtofl,w
  1338  0E51  00BA               	movwf	___flmul@b
  1339  0E52  120A  118A  201D  120A  158A  	fcall	___flmul
  1340  0E57  1283               	bcf	3,5	;RP0=0, select bank0
  1341  0E58  1303               	bcf	3,6	;RP1=0, select bank0
  1342  0E59  083D               	movf	?___flmul+3,w
  1343  0E5A  00D7               	movwf	___fladd@b+3
  1344  0E5B  083C               	movf	?___flmul+2,w
  1345  0E5C  00D6               	movwf	___fladd@b+2
  1346  0E5D  083B               	movf	?___flmul+1,w
  1347  0E5E  00D5               	movwf	___fladd@b+1
  1348  0E5F  083A               	movf	?___flmul,w
  1349  0E60  00D4               	movwf	___fladd@b
  1350  0E61  120A  118A  237E  120A  158A  	fcall	___fladd
  1351  0E66  1283               	bcf	3,5	;RP0=0, select bank0
  1352  0E67  1303               	bcf	3,6	;RP1=0, select bank0
  1353  0E68  0857               	movf	?___fladd+3,w
  1354  0E69  00EB               	movwf	___fltol@f1+3
  1355  0E6A  0856               	movf	?___fladd+2,w
  1356  0E6B  00EA               	movwf	___fltol@f1+2
  1357  0E6C  0855               	movf	?___fladd+1,w
  1358  0E6D  00E9               	movwf	___fltol@f1+1
  1359  0E6E  0854               	movf	?___fladd,w
  1360  0E6F  00E8               	movwf	___fltol@f1
  1361  0E70  120A  158A  2534  120A  158A  	fcall	___fltol
  1362  0E75  1283               	bcf	3,5	;RP0=0, select bank0
  1363  0E76  1303               	bcf	3,6	;RP1=0, select bank0
  1364  0E77  0869               	movf	?___fltol+1,w
  1365  0E78  1683               	bsf	3,5	;RP0=1, select bank1
  1366  0E79  1303               	bcf	3,6	;RP1=0, select bank1
  1367  0E7A  00A6               	movwf	(?_map+1)^(0+128)
  1368  0E7B  1283               	bcf	3,5	;RP0=0, select bank0
  1369  0E7C  1303               	bcf	3,6	;RP1=0, select bank0
  1370  0E7D  0868               	movf	?___fltol,w
  1371  0E7E  1683               	bsf	3,5	;RP0=1, select bank1
  1372  0E7F  1303               	bcf	3,6	;RP1=0, select bank1
  1373  0E80  00A5               	movwf	?_map^(0+128)
  1374  0E81                     i1l88:
  1375  0E81  0008               	return
  1376  0E82                     __end_of_map:
  1377                           
  1378                           	psect	text4
  1379  0E82                     __ptext4:	
  1380 ;; *************** function ___xxtofl *****************
  1381 ;; Defined at:
  1382 ;;		line 10 in file "C:\Program Files\Microchip\xc8\v2.35\pic\sources\c90\common\xxtofl.c"
  1383 ;; Parameters:    Size  Location     Type
  1384 ;;  sign            1    wreg     unsigned char 
  1385 ;;  val             4    0[COMMON] long 
  1386 ;; Auto vars:     Size  Location     Type
  1387 ;;  sign            1    8[COMMON] unsigned char 
  1388 ;;  arg             4   10[COMMON] unsigned long 
  1389 ;;  exp             1    9[COMMON] unsigned char 
  1390 ;; Return value:  Size  Location     Type
  1391 ;;                  4    0[COMMON] unsigned char 
  1392 ;; Registers used:
  1393 ;;		wreg, status,2, status,0
  1394 ;; Tracked objects:
  1395 ;;		On entry : 0/0
  1396 ;;		On exit  : 0/0
  1397 ;;		Unchanged: 0/0
  1398 ;; Data sizes:     COMMON   BANK0   BANK1   BANK3   BANK2
  1399 ;;      Params:         4       0       0       0       0
  1400 ;;      Locals:         6       0       0       0       0
  1401 ;;      Temps:          4       0       0       0       0
  1402 ;;      Totals:        14       0       0       0       0
  1403 ;;Total ram usage:       14 bytes
  1404 ;; Hardware stack levels used: 1
  1405 ;; This function calls:
  1406 ;;		Nothing
  1407 ;; This function is called by:
  1408 ;;		_map
  1409 ;; This function uses a non-reentrant model
  1410 ;;
  1411                           
  1412  0E82                     ___xxtofl:	
  1413                           ;psect for function ___xxtofl
  1414                           
  1415                           
  1416                           ;incstack = 0
  1417                           ; Regs used in ___xxtofl: [wreg+status,2+status,0]
  1418                           ;___xxtofl@sign stored from wreg
  1419  0E82  00F8               	movwf	___xxtofl@sign
  1420  0E83                     i1l1878:
  1421  0E83  0878               	movf	___xxtofl@sign,w
  1422  0E84  1903               	btfsc	3,2
  1423  0E85  2E87               	goto	u274_21
  1424  0E86  2E88               	goto	u274_20
  1425  0E87                     u274_21:
  1426  0E87  2E9C               	goto	i1l1884
  1427  0E88                     u274_20:
  1428  0E88                     i1l1880:
  1429  0E88  1FF3               	btfss	___xxtofl@val+3,7
  1430  0E89  2E8B               	goto	u275_21
  1431  0E8A  2E8C               	goto	u275_20
  1432  0E8B                     u275_21:
  1433  0E8B  2E9C               	goto	i1l1884
  1434  0E8C                     u275_20:
  1435  0E8C                     i1l1882:
  1436  0E8C  0970               	comf	___xxtofl@val,w
  1437  0E8D  00FA               	movwf	___xxtofl@arg
  1438  0E8E  0971               	comf	___xxtofl@val+1,w
  1439  0E8F  00FB               	movwf	___xxtofl@arg+1
  1440  0E90  0972               	comf	___xxtofl@val+2,w
  1441  0E91  00FC               	movwf	___xxtofl@arg+2
  1442  0E92  0973               	comf	___xxtofl@val+3,w
  1443  0E93  00FD               	movwf	___xxtofl@arg+3
  1444  0E94  0AFA               	incf	___xxtofl@arg,f
  1445  0E95  1903               	skipnz
  1446  0E96  0AFB               	incf	___xxtofl@arg+1,f
  1447  0E97  1903               	skipnz
  1448  0E98  0AFC               	incf	___xxtofl@arg+2,f
  1449  0E99  1903               	skipnz
  1450  0E9A  0AFD               	incf	___xxtofl@arg+3,f
  1451  0E9B  2EA4               	goto	i1l607
  1452  0E9C                     i1l1884:
  1453  0E9C  0873               	movf	___xxtofl@val+3,w
  1454  0E9D  00FD               	movwf	___xxtofl@arg+3
  1455  0E9E  0872               	movf	___xxtofl@val+2,w
  1456  0E9F  00FC               	movwf	___xxtofl@arg+2
  1457  0EA0  0871               	movf	___xxtofl@val+1,w
  1458  0EA1  00FB               	movwf	___xxtofl@arg+1
  1459  0EA2  0870               	movf	___xxtofl@val,w
  1460  0EA3  00FA               	movwf	___xxtofl@arg
  1461  0EA4                     i1l607:
  1462  0EA4  0873               	movf	___xxtofl@val+3,w
  1463  0EA5  0472               	iorwf	___xxtofl@val+2,w
  1464  0EA6  0471               	iorwf	___xxtofl@val+1,w
  1465  0EA7  0470               	iorwf	___xxtofl@val,w
  1466  0EA8  1D03               	skipz
  1467  0EA9  2EAB               	goto	u276_21
  1468  0EAA  2EAC               	goto	u276_20
  1469  0EAB                     u276_21:
  1470  0EAB  2EB5               	goto	i1l1890
  1471  0EAC                     u276_20:
  1472  0EAC                     i1l1886:
  1473  0EAC  3000               	movlw	0
  1474  0EAD  00F3               	movwf	?___xxtofl+3
  1475  0EAE  3000               	movlw	0
  1476  0EAF  00F2               	movwf	?___xxtofl+2
  1477  0EB0  3000               	movlw	0
  1478  0EB1  00F1               	movwf	?___xxtofl+1
  1479  0EB2  3000               	movlw	0
  1480  0EB3  00F0               	movwf	?___xxtofl
  1481  0EB4  2F3B               	goto	i1l609
  1482  0EB5                     i1l1890:
  1483  0EB5  3096               	movlw	150
  1484  0EB6  00F4               	movwf	??___xxtofl
  1485  0EB7  0874               	movf	??___xxtofl,w
  1486  0EB8  00F9               	movwf	___xxtofl@exp
  1487  0EB9  2EC7               	goto	i1l1894
  1488  0EBA                     i1l1892:
  1489  0EBA  3001               	movlw	1
  1490  0EBB  00F4               	movwf	??___xxtofl
  1491  0EBC  0874               	movf	??___xxtofl,w
  1492  0EBD  07F9               	addwf	___xxtofl@exp,f
  1493  0EBE  3001               	movlw	1
  1494  0EBF                     u277_25:
  1495  0EBF  1003               	clrc
  1496  0EC0  0CFD               	rrf	___xxtofl@arg+3,f
  1497  0EC1  0CFC               	rrf	___xxtofl@arg+2,f
  1498  0EC2  0CFB               	rrf	___xxtofl@arg+1,f
  1499  0EC3  0CFA               	rrf	___xxtofl@arg,f
  1500  0EC4  3EFF               	addlw	-1
  1501  0EC5  1D03               	skipz
  1502  0EC6  2EBF               	goto	u277_25
  1503  0EC7                     i1l1894:
  1504  0EC7  30FE               	movlw	254
  1505  0EC8  057D               	andwf	___xxtofl@arg+3,w
  1506  0EC9  1D03               	btfss	3,2
  1507  0ECA  2ECC               	goto	u278_21
  1508  0ECB  2ECD               	goto	u278_20
  1509  0ECC                     u278_21:
  1510  0ECC  2EBA               	goto	i1l1892
  1511  0ECD                     u278_20:
  1512  0ECD  2EE9               	goto	i1l613
  1513  0ECE                     i1l1896:
  1514  0ECE  3001               	movlw	1
  1515  0ECF  00F4               	movwf	??___xxtofl
  1516  0ED0  0874               	movf	??___xxtofl,w
  1517  0ED1  07F9               	addwf	___xxtofl@exp,f
  1518  0ED2                     i1l1898:
  1519  0ED2  3001               	movlw	1
  1520  0ED3  07FA               	addwf	___xxtofl@arg,f
  1521  0ED4  3000               	movlw	0
  1522  0ED5  1803               	skipnc
  1523  0ED6  3001               	movlw	1
  1524  0ED7  07FB               	addwf	___xxtofl@arg+1,f
  1525  0ED8  3000               	movlw	0
  1526  0ED9  1803               	skipnc
  1527  0EDA  3001               	movlw	1
  1528  0EDB  07FC               	addwf	___xxtofl@arg+2,f
  1529  0EDC  3000               	movlw	0
  1530  0EDD  1803               	skipnc
  1531  0EDE  3001               	movlw	1
  1532  0EDF  07FD               	addwf	___xxtofl@arg+3,f
  1533  0EE0                     i1l1900:
  1534  0EE0  3001               	movlw	1
  1535  0EE1                     u279_25:
  1536  0EE1  1003               	clrc
  1537  0EE2  0CFD               	rrf	___xxtofl@arg+3,f
  1538  0EE3  0CFC               	rrf	___xxtofl@arg+2,f
  1539  0EE4  0CFB               	rrf	___xxtofl@arg+1,f
  1540  0EE5  0CFA               	rrf	___xxtofl@arg,f
  1541  0EE6  3EFF               	addlw	-1
  1542  0EE7  1D03               	skipz
  1543  0EE8  2EE1               	goto	u279_25
  1544  0EE9                     i1l613:
  1545  0EE9  30FF               	movlw	255
  1546  0EEA  057D               	andwf	___xxtofl@arg+3,w
  1547  0EEB  1D03               	btfss	3,2
  1548  0EEC  2EEE               	goto	u280_21
  1549  0EED  2EEF               	goto	u280_20
  1550  0EEE                     u280_21:
  1551  0EEE  2ECE               	goto	i1l1896
  1552  0EEF                     u280_20:
  1553  0EEF  2EFB               	goto	i1l1904
  1554  0EF0                     i1l1902:
  1555  0EF0  3001               	movlw	1
  1556  0EF1  02F9               	subwf	___xxtofl@exp,f
  1557  0EF2  3001               	movlw	1
  1558  0EF3  00F4               	movwf	??___xxtofl
  1559  0EF4                     u281_25:
  1560  0EF4  1003               	clrc
  1561  0EF5  0DFA               	rlf	___xxtofl@arg,f
  1562  0EF6  0DFB               	rlf	___xxtofl@arg+1,f
  1563  0EF7  0DFC               	rlf	___xxtofl@arg+2,f
  1564  0EF8  0DFD               	rlf	___xxtofl@arg+3,f
  1565  0EF9  0BF4               	decfsz	??___xxtofl,f
  1566  0EFA  2EF4               	goto	u281_25
  1567  0EFB                     i1l1904:
  1568  0EFB  1BFC               	btfsc	___xxtofl@arg+2,7
  1569  0EFC  2EFE               	goto	u282_21
  1570  0EFD  2EFF               	goto	u282_20
  1571  0EFE                     u282_21:
  1572  0EFE  2F05               	goto	i1l620
  1573  0EFF                     u282_20:
  1574  0EFF                     i1l1906:
  1575  0EFF  3002               	movlw	2
  1576  0F00  0279               	subwf	___xxtofl@exp,w
  1577  0F01  1803               	skipnc
  1578  0F02  2F04               	goto	u283_21
  1579  0F03  2F05               	goto	u283_20
  1580  0F04                     u283_21:
  1581  0F04  2EF0               	goto	i1l1902
  1582  0F05                     u283_20:
  1583  0F05                     i1l620:
  1584  0F05  1879               	btfsc	___xxtofl@exp,0
  1585  0F06  2F08               	goto	u284_21
  1586  0F07  2F09               	goto	u284_20
  1587  0F08                     u284_21:
  1588  0F08  2F11               	goto	i1l621
  1589  0F09                     u284_20:
  1590  0F09                     i1l1908:
  1591  0F09  30FF               	movlw	255
  1592  0F0A  05FA               	andwf	___xxtofl@arg,f
  1593  0F0B  30FF               	movlw	255
  1594  0F0C  05FB               	andwf	___xxtofl@arg+1,f
  1595  0F0D  307F               	movlw	127
  1596  0F0E  05FC               	andwf	___xxtofl@arg+2,f
  1597  0F0F  30FF               	movlw	255
  1598  0F10  05FD               	andwf	___xxtofl@arg+3,f
  1599  0F11                     i1l621:
  1600  0F11  1003               	clrc
  1601  0F12  0CF9               	rrf	___xxtofl@exp,f
  1602  0F13                     i1l1910:
  1603  0F13  0879               	movf	___xxtofl@exp,w
  1604  0F14  00F4               	movwf	??___xxtofl
  1605  0F15  01F5               	clrf	??___xxtofl+1
  1606  0F16  01F6               	clrf	??___xxtofl+2
  1607  0F17  01F7               	clrf	??___xxtofl+3
  1608  0F18  3018               	movlw	24
  1609  0F19                     u285_25:
  1610  0F19  1003               	clrc
  1611  0F1A  0DF4               	rlf	??___xxtofl,f
  1612  0F1B  0DF5               	rlf	??___xxtofl+1,f
  1613  0F1C  0DF6               	rlf	??___xxtofl+2,f
  1614  0F1D  0DF7               	rlf	??___xxtofl+3,f
  1615  0F1E                     u285_20:
  1616  0F1E  3EFF               	addlw	-1
  1617  0F1F  1D03               	skipz
  1618  0F20  2F19               	goto	u285_25
  1619  0F21  0874               	movf	??___xxtofl,w
  1620  0F22  04FA               	iorwf	___xxtofl@arg,f
  1621  0F23  0875               	movf	??___xxtofl+1,w
  1622  0F24  04FB               	iorwf	___xxtofl@arg+1,f
  1623  0F25  0876               	movf	??___xxtofl+2,w
  1624  0F26  04FC               	iorwf	___xxtofl@arg+2,f
  1625  0F27  0877               	movf	??___xxtofl+3,w
  1626  0F28  04FD               	iorwf	___xxtofl@arg+3,f
  1627  0F29                     i1l1912:
  1628  0F29  0878               	movf	___xxtofl@sign,w
  1629  0F2A  1903               	btfsc	3,2
  1630  0F2B  2F2D               	goto	u286_21
  1631  0F2C  2F2E               	goto	u286_20
  1632  0F2D                     u286_21:
  1633  0F2D  2F33               	goto	i1l1918
  1634  0F2E                     u286_20:
  1635  0F2E                     i1l1914:
  1636  0F2E  1FF3               	btfss	___xxtofl@val+3,7
  1637  0F2F  2F31               	goto	u287_21
  1638  0F30  2F32               	goto	u287_20
  1639  0F31                     u287_21:
  1640  0F31  2F33               	goto	i1l1918
  1641  0F32                     u287_20:
  1642  0F32                     i1l1916:
  1643  0F32  17FD               	bsf	___xxtofl@arg+3,7
  1644  0F33                     i1l1918:
  1645  0F33  087D               	movf	___xxtofl@arg+3,w
  1646  0F34  00F3               	movwf	?___xxtofl+3
  1647  0F35  087C               	movf	___xxtofl@arg+2,w
  1648  0F36  00F2               	movwf	?___xxtofl+2
  1649  0F37  087B               	movf	___xxtofl@arg+1,w
  1650  0F38  00F1               	movwf	?___xxtofl+1
  1651  0F39  087A               	movf	___xxtofl@arg,w
  1652  0F3A  00F0               	movwf	?___xxtofl
  1653  0F3B                     i1l609:
  1654  0F3B  0008               	return
  1655  0F3C                     __end_of___xxtofl:
  1656                           
  1657                           	psect	text5
  1658  0D34                     __ptext5:	
  1659 ;; *************** function ___fltol *****************
  1660 ;; Defined at:
  1661 ;;		line 43 in file "C:\Program Files\Microchip\xc8\v2.35\pic\sources\c90\common\fltol.c"
  1662 ;; Parameters:    Size  Location     Type
  1663 ;;  f1              4   72[BANK0 ] unsigned char 
  1664 ;; Auto vars:     Size  Location     Type
  1665 ;;  exp1            1   77[BANK0 ] unsigned char 
  1666 ;;  sign1           1   76[BANK0 ] unsigned char 
  1667 ;; Return value:  Size  Location     Type
  1668 ;;                  4   72[BANK0 ] long 
  1669 ;; Registers used:
  1670 ;;		wreg, status,2, status,0
  1671 ;; Tracked objects:
  1672 ;;		On entry : 0/0
  1673 ;;		On exit  : 0/0
  1674 ;;		Unchanged: 0/0
  1675 ;; Data sizes:     COMMON   BANK0   BANK1   BANK3   BANK2
  1676 ;;      Params:         0       4       0       0       0
  1677 ;;      Locals:         0       2       0       0       0
  1678 ;;      Temps:          0       0       5       0       0
  1679 ;;      Totals:         0       6       5       0       0
  1680 ;;Total ram usage:       11 bytes
  1681 ;; Hardware stack levels used: 1
  1682 ;; This function calls:
  1683 ;;		Nothing
  1684 ;; This function is called by:
  1685 ;;		_map
  1686 ;; This function uses a non-reentrant model
  1687 ;;
  1688                           
  1689  0D34                     ___fltol:	
  1690                           ;psect for function ___fltol
  1691                           
  1692  0D34                     i1l1366:	
  1693                           ;incstack = 0
  1694                           ; Regs used in ___fltol: [wreg+status,2+status,0]
  1695                           
  1696  0D34  1003               	clrc
  1697  0D35  1283               	bcf	3,5	;RP0=0, select bank0
  1698  0D36  1303               	bcf	3,6	;RP1=0, select bank0
  1699  0D37  0D6A               	rlf	___fltol@f1+2,w
  1700  0D38  0D6B               	rlf	___fltol@f1+3,w
  1701  0D39  1683               	bsf	3,5	;RP0=1, select bank1
  1702  0D3A  1303               	bcf	3,6	;RP1=0, select bank1
  1703  0D3B  00A0               	movwf	??___fltol^(0+128)
  1704  0D3C  0820               	movf	??___fltol^(0+128),w
  1705  0D3D  1283               	bcf	3,5	;RP0=0, select bank0
  1706  0D3E  1303               	bcf	3,6	;RP1=0, select bank0
  1707  0D3F  00ED               	movwf	___fltol@exp1
  1708  0D40  086D               	movf	___fltol@exp1,w
  1709  0D41  1D03               	btfss	3,2
  1710  0D42  2D44               	goto	u152_21
  1711  0D43  2D45               	goto	u152_20
  1712  0D44                     u152_21:
  1713  0D44  2D4E               	goto	i1l1372
  1714  0D45                     u152_20:
  1715  0D45                     i1l1368:
  1716  0D45  3000               	movlw	0
  1717  0D46  00EB               	movwf	?___fltol+3
  1718  0D47  3000               	movlw	0
  1719  0D48  00EA               	movwf	?___fltol+2
  1720  0D49  3000               	movlw	0
  1721  0D4A  00E9               	movwf	?___fltol+1
  1722  0D4B  3000               	movlw	0
  1723  0D4C  00E8               	movwf	?___fltol
  1724  0D4D  2DCF               	goto	i1l360
  1725  0D4E                     i1l1372:
  1726  0D4E  0868               	movf	___fltol@f1,w
  1727  0D4F  1683               	bsf	3,5	;RP0=1, select bank1
  1728  0D50  1303               	bcf	3,6	;RP1=0, select bank1
  1729  0D51  00A0               	movwf	??___fltol^(0+128)
  1730  0D52  1283               	bcf	3,5	;RP0=0, select bank0
  1731  0D53  1303               	bcf	3,6	;RP1=0, select bank0
  1732  0D54  0869               	movf	___fltol@f1+1,w
  1733  0D55  1683               	bsf	3,5	;RP0=1, select bank1
  1734  0D56  1303               	bcf	3,6	;RP1=0, select bank1
  1735  0D57  00A1               	movwf	(??___fltol^(0+128)+1)
  1736  0D58  1283               	bcf	3,5	;RP0=0, select bank0
  1737  0D59  1303               	bcf	3,6	;RP1=0, select bank0
  1738  0D5A  086A               	movf	___fltol@f1+2,w
  1739  0D5B  1683               	bsf	3,5	;RP0=1, select bank1
  1740  0D5C  1303               	bcf	3,6	;RP1=0, select bank1
  1741  0D5D  00A2               	movwf	(??___fltol^(0+128)+2)
  1742  0D5E  1283               	bcf	3,5	;RP0=0, select bank0
  1743  0D5F  1303               	bcf	3,6	;RP1=0, select bank0
  1744  0D60  086B               	movf	___fltol@f1+3,w
  1745  0D61  1683               	bsf	3,5	;RP0=1, select bank1
  1746  0D62  1303               	bcf	3,6	;RP1=0, select bank1
  1747  0D63  00A3               	movwf	(??___fltol^(0+128)+3)
  1748  0D64  301F               	movlw	31
  1749  0D65                     u153_25:
  1750  0D65  1003               	clrc
  1751  0D66  0CA3               	rrf	(??___fltol^(0+128)+3),f
  1752  0D67  0CA2               	rrf	(??___fltol^(0+128)+2),f
  1753  0D68  0CA1               	rrf	(??___fltol^(0+128)+1),f
  1754  0D69  0CA0               	rrf	??___fltol^(0+128),f
  1755  0D6A                     u153_20:
  1756  0D6A  3EFF               	addlw	-1
  1757  0D6B  1D03               	skipz
  1758  0D6C  2D65               	goto	u153_25
  1759  0D6D  0820               	movf	??___fltol^(0+128),w
  1760  0D6E  00A4               	movwf	(??___fltol+4)^(0+128)
  1761  0D6F  0824               	movf	(??___fltol+4)^(0+128),w
  1762  0D70  1283               	bcf	3,5	;RP0=0, select bank0
  1763  0D71  1303               	bcf	3,6	;RP1=0, select bank0
  1764  0D72  00EC               	movwf	___fltol@sign1
  1765  0D73                     i1l1374:
  1766  0D73  17EA               	bsf	___fltol@f1+2,7
  1767  0D74                     i1l1376:
  1768  0D74  30FF               	movlw	255
  1769  0D75  05E8               	andwf	___fltol@f1,f
  1770  0D76  30FF               	movlw	255
  1771  0D77  05E9               	andwf	___fltol@f1+1,f
  1772  0D78  30FF               	movlw	255
  1773  0D79  05EA               	andwf	___fltol@f1+2,f
  1774  0D7A  3000               	movlw	0
  1775  0D7B  05EB               	andwf	___fltol@f1+3,f
  1776  0D7C                     i1l1378:
  1777  0D7C  3096               	movlw	150
  1778  0D7D  02ED               	subwf	___fltol@exp1,f
  1779  0D7E                     i1l1380:
  1780  0D7E  1FED               	btfss	___fltol@exp1,7
  1781  0D7F  2D81               	goto	u154_21
  1782  0D80  2D82               	goto	u154_20
  1783  0D81                     u154_21:
  1784  0D81  2DA0               	goto	i1l1390
  1785  0D82                     u154_20:
  1786  0D82                     i1l1382:
  1787  0D82  086D               	movf	___fltol@exp1,w
  1788  0D83  3A80               	xorlw	128
  1789  0D84  3E97               	addlw	151
  1790  0D85  1803               	skipnc
  1791  0D86  2D88               	goto	u155_21
  1792  0D87  2D89               	goto	u155_20
  1793  0D88                     u155_21:
  1794  0D88  2D8A               	goto	i1l1388
  1795  0D89                     u155_20:
  1796  0D89  2D45               	goto	i1l1368
  1797  0D8A                     i1l1388:
  1798  0D8A  3001               	movlw	1
  1799  0D8B                     u156_25:
  1800  0D8B  1003               	clrc
  1801  0D8C  0CEB               	rrf	___fltol@f1+3,f
  1802  0D8D  0CEA               	rrf	___fltol@f1+2,f
  1803  0D8E  0CE9               	rrf	___fltol@f1+1,f
  1804  0D8F  0CE8               	rrf	___fltol@f1,f
  1805  0D90  3EFF               	addlw	-1
  1806  0D91  1D03               	skipz
  1807  0D92  2D8B               	goto	u156_25
  1808  0D93  3001               	movlw	1
  1809  0D94  1683               	bsf	3,5	;RP0=1, select bank1
  1810  0D95  1303               	bcf	3,6	;RP1=0, select bank1
  1811  0D96  00A0               	movwf	??___fltol^(0+128)
  1812  0D97  0820               	movf	??___fltol^(0+128),w
  1813  0D98  1283               	bcf	3,5	;RP0=0, select bank0
  1814  0D99  1303               	bcf	3,6	;RP1=0, select bank0
  1815  0D9A  07ED               	addwf	___fltol@exp1,f
  1816  0D9B  1D03               	btfss	3,2
  1817  0D9C  2D9E               	goto	u157_21
  1818  0D9D  2D9F               	goto	u157_20
  1819  0D9E                     u157_21:
  1820  0D9E  2D8A               	goto	i1l1388
  1821  0D9F                     u157_20:
  1822  0D9F  2DBF               	goto	i1l1398
  1823  0DA0                     i1l1390:
  1824  0DA0  3020               	movlw	32
  1825  0DA1  026D               	subwf	___fltol@exp1,w
  1826  0DA2  1C03               	skipc
  1827  0DA3  2DA5               	goto	u158_21
  1828  0DA4  2DA6               	goto	u158_20
  1829  0DA5                     u158_21:
  1830  0DA5  2DBA               	goto	i1l367
  1831  0DA6                     u158_20:
  1832  0DA6  2D45               	goto	i1l1368
  1833  0DA7                     i1l1396:
  1834  0DA7  3001               	movlw	1
  1835  0DA8  1683               	bsf	3,5	;RP0=1, select bank1
  1836  0DA9  1303               	bcf	3,6	;RP1=0, select bank1
  1837  0DAA  00A0               	movwf	??___fltol^(0+128)
  1838  0DAB                     u159_25:
  1839  0DAB  1003               	clrc
  1840  0DAC  1283               	bcf	3,5	;RP0=0, select bank0
  1841  0DAD  1303               	bcf	3,6	;RP1=0, select bank0
  1842  0DAE  0DE8               	rlf	___fltol@f1,f
  1843  0DAF  0DE9               	rlf	___fltol@f1+1,f
  1844  0DB0  0DEA               	rlf	___fltol@f1+2,f
  1845  0DB1  0DEB               	rlf	___fltol@f1+3,f
  1846  0DB2  1683               	bsf	3,5	;RP0=1, select bank1
  1847  0DB3  1303               	bcf	3,6	;RP1=0, select bank1
  1848  0DB4  0BA0               	decfsz	??___fltol^(0+128),f
  1849  0DB5  2DAB               	goto	u159_25
  1850  0DB6  3001               	movlw	1
  1851  0DB7  1283               	bcf	3,5	;RP0=0, select bank0
  1852  0DB8  1303               	bcf	3,6	;RP1=0, select bank0
  1853  0DB9  02ED               	subwf	___fltol@exp1,f
  1854  0DBA                     i1l367:
  1855  0DBA  086D               	movf	___fltol@exp1,w
  1856  0DBB  1D03               	btfss	3,2
  1857  0DBC  2DBE               	goto	u160_21
  1858  0DBD  2DBF               	goto	u160_20
  1859  0DBE                     u160_21:
  1860  0DBE  2DA7               	goto	i1l1396
  1861  0DBF                     u160_20:
  1862  0DBF                     i1l1398:
  1863  0DBF  086C               	movf	___fltol@sign1,w
  1864  0DC0  1903               	btfsc	3,2
  1865  0DC1  2DC3               	goto	u161_21
  1866  0DC2  2DC4               	goto	u161_20
  1867  0DC3                     u161_21:
  1868  0DC3  2DCF               	goto	i1l370
  1869  0DC4                     u161_20:
  1870  0DC4                     i1l1400:
  1871  0DC4  09E8               	comf	___fltol@f1,f
  1872  0DC5  09E9               	comf	___fltol@f1+1,f
  1873  0DC6  09EA               	comf	___fltol@f1+2,f
  1874  0DC7  09EB               	comf	___fltol@f1+3,f
  1875  0DC8  0AE8               	incf	___fltol@f1,f
  1876  0DC9  1903               	skipnz
  1877  0DCA  0AE9               	incf	___fltol@f1+1,f
  1878  0DCB  1903               	skipnz
  1879  0DCC  0AEA               	incf	___fltol@f1+2,f
  1880  0DCD  1903               	skipnz
  1881  0DCE  0AEB               	incf	___fltol@f1+3,f
  1882  0DCF                     i1l370:
  1883  0DCF                     i1l360:
  1884  0DCF  0008               	return
  1885  0DD0                     __end_of___fltol:
  1886                           
  1887                           	psect	text6
  1888  001D                     __ptext6:	
  1889 ;; *************** function ___flmul *****************
  1890 ;; Defined at:
  1891 ;;		line 8 in file "C:\Program Files\Microchip\xc8\v2.35\pic\sources\c90\common\sprcmul.c"
  1892 ;; Parameters:    Size  Location     Type
  1893 ;;  b               4   26[BANK0 ] long 
  1894 ;;  a               4   30[BANK0 ] long 
  1895 ;; Auto vars:     Size  Location     Type
  1896 ;;  prod            4   46[BANK0 ] struct .
  1897 ;;  grs             4   40[BANK0 ] unsigned long 
  1898 ;;  temp            2   50[BANK0 ] struct .
  1899 ;;  bexp            1   45[BANK0 ] unsigned char 
  1900 ;;  aexp            1   44[BANK0 ] unsigned char 
  1901 ;;  sign            1   39[BANK0 ] unsigned char 
  1902 ;; Return value:  Size  Location     Type
  1903 ;;                  4   26[BANK0 ] unsigned char 
  1904 ;; Registers used:
  1905 ;;		wreg, status,2, status,0, btemp+1, pclath, cstack
  1906 ;; Tracked objects:
  1907 ;;		On entry : 0/0
  1908 ;;		On exit  : 0/0
  1909 ;;		Unchanged: 0/0
  1910 ;; Data sizes:     COMMON   BANK0   BANK1   BANK3   BANK2
  1911 ;;      Params:         0       8       0       0       0
  1912 ;;      Locals:         0      13       0       0       0
  1913 ;;      Temps:          0       5       0       0       0
  1914 ;;      Totals:         0      26       0       0       0
  1915 ;;Total ram usage:       26 bytes
  1916 ;; Hardware stack levels used: 1
  1917 ;; Hardware stack levels required when called: 1
  1918 ;; This function calls:
  1919 ;;		__Umul8_16
  1920 ;; This function is called by:
  1921 ;;		_map
  1922 ;; This function uses a non-reentrant model
  1923 ;;
  1924                           
  1925  001D                     ___flmul:	
  1926                           ;psect for function ___flmul
  1927                           
  1928  001D                     i1l1738:	
  1929                           ;incstack = 0
  1930                           ; Regs used in ___flmul: [wreg+status,2+status,0+btemp+1+pclath+cstack]
  1931                           
  1932  001D  1283               	bcf	3,5	;RP0=0, select bank0
  1933  001E  1303               	bcf	3,6	;RP1=0, select bank0
  1934  001F  083D               	movf	___flmul@b+3,w
  1935  0020  3980               	andlw	128
  1936  0021  00C2               	movwf	??___flmul
  1937  0022  0842               	movf	??___flmul,w
  1938  0023  00C7               	movwf	___flmul@sign
  1939  0024                     i1l1740:
  1940  0024  083D               	movf	___flmul@b+3,w
  1941  0025  00C2               	movwf	??___flmul
  1942  0026  0742               	addwf	??___flmul,w
  1943  0027  00C3               	movwf	??___flmul+1
  1944  0028  0843               	movf	??___flmul+1,w
  1945  0029  00CD               	movwf	___flmul@bexp
  1946  002A                     i1l1742:
  1947  002A  1FBC               	btfss	___flmul@b+2,7
  1948  002B  282D               	goto	u237_21
  1949  002C  282E               	goto	u237_20
  1950  002D                     u237_21:
  1951  002D  282F               	goto	i1l1746
  1952  002E                     u237_20:
  1953  002E                     i1l1744:
  1954  002E  144D               	bsf	___flmul@bexp,0
  1955  002F                     i1l1746:
  1956  002F  084D               	movf	___flmul@bexp,w
  1957  0030  1903               	btfsc	3,2
  1958  0031  2833               	goto	u238_21
  1959  0032  2834               	goto	u238_20
  1960  0033                     u238_21:
  1961  0033  2843               	goto	i1l1754
  1962  0034                     u238_20:
  1963  0034                     i1l1748:
  1964  0034  0A4D               	incf	___flmul@bexp,w
  1965  0035  1D03               	btfss	3,2
  1966  0036  2838               	goto	u239_21
  1967  0037  2839               	goto	u239_20
  1968  0038                     u239_21:
  1969  0038  2841               	goto	i1l1752
  1970  0039                     u239_20:
  1971  0039                     i1l1750:
  1972  0039  3000               	movlw	0
  1973  003A  00BD               	movwf	___flmul@b+3
  1974  003B  3000               	movlw	0
  1975  003C  00BC               	movwf	___flmul@b+2
  1976  003D  3000               	movlw	0
  1977  003E  00BB               	movwf	___flmul@b+1
  1978  003F  3000               	movlw	0
  1979  0040  00BA               	movwf	___flmul@b
  1980  0041                     i1l1752:
  1981  0041  17BC               	bsf	___flmul@b+2,7
  1982  0042  284B               	goto	i1l1756
  1983  0043                     i1l1754:
  1984  0043  3000               	movlw	0
  1985  0044  00BD               	movwf	___flmul@b+3
  1986  0045  3000               	movlw	0
  1987  0046  00BC               	movwf	___flmul@b+2
  1988  0047  3000               	movlw	0
  1989  0048  00BB               	movwf	___flmul@b+1
  1990  0049  3000               	movlw	0
  1991  004A  00BA               	movwf	___flmul@b
  1992  004B                     i1l1756:
  1993  004B  0841               	movf	___flmul@a+3,w
  1994  004C  3980               	andlw	128
  1995  004D  00C2               	movwf	??___flmul
  1996  004E  0842               	movf	??___flmul,w
  1997  004F  06C7               	xorwf	___flmul@sign,f
  1998  0050                     i1l1758:
  1999  0050  0841               	movf	___flmul@a+3,w
  2000  0051  00C2               	movwf	??___flmul
  2001  0052  0742               	addwf	??___flmul,w
  2002  0053  00C3               	movwf	??___flmul+1
  2003  0054  0843               	movf	??___flmul+1,w
  2004  0055  00CC               	movwf	___flmul@aexp
  2005  0056                     i1l1760:
  2006  0056  1FC0               	btfss	___flmul@a+2,7
  2007  0057  2859               	goto	u240_21
  2008  0058  285A               	goto	u240_20
  2009  0059                     u240_21:
  2010  0059  285B               	goto	i1l1764
  2011  005A                     u240_20:
  2012  005A                     i1l1762:
  2013  005A  144C               	bsf	___flmul@aexp,0
  2014  005B                     i1l1764:
  2015  005B  084C               	movf	___flmul@aexp,w
  2016  005C  1903               	btfsc	3,2
  2017  005D  285F               	goto	u241_21
  2018  005E  2860               	goto	u241_20
  2019  005F                     u241_21:
  2020  005F  286F               	goto	i1l1772
  2021  0060                     u241_20:
  2022  0060                     i1l1766:
  2023  0060  0A4C               	incf	___flmul@aexp,w
  2024  0061  1D03               	btfss	3,2
  2025  0062  2864               	goto	u242_21
  2026  0063  2865               	goto	u242_20
  2027  0064                     u242_21:
  2028  0064  286D               	goto	i1l1770
  2029  0065                     u242_20:
  2030  0065                     i1l1768:
  2031  0065  3000               	movlw	0
  2032  0066  00C1               	movwf	___flmul@a+3
  2033  0067  3000               	movlw	0
  2034  0068  00C0               	movwf	___flmul@a+2
  2035  0069  3000               	movlw	0
  2036  006A  00BF               	movwf	___flmul@a+1
  2037  006B  3000               	movlw	0
  2038  006C  00BE               	movwf	___flmul@a
  2039  006D                     i1l1770:
  2040  006D  17C0               	bsf	___flmul@a+2,7
  2041  006E  2877               	goto	i1l1774
  2042  006F                     i1l1772:
  2043  006F  3000               	movlw	0
  2044  0070  00C1               	movwf	___flmul@a+3
  2045  0071  3000               	movlw	0
  2046  0072  00C0               	movwf	___flmul@a+2
  2047  0073  3000               	movlw	0
  2048  0074  00BF               	movwf	___flmul@a+1
  2049  0075  3000               	movlw	0
  2050  0076  00BE               	movwf	___flmul@a
  2051  0077                     i1l1774:
  2052  0077  084C               	movf	___flmul@aexp,w
  2053  0078  1903               	btfsc	3,2
  2054  0079  287B               	goto	u243_21
  2055  007A  287C               	goto	u243_20
  2056  007B                     u243_21:
  2057  007B  2881               	goto	i1l1778
  2058  007C                     u243_20:
  2059  007C                     i1l1776:
  2060  007C  084D               	movf	___flmul@bexp,w
  2061  007D  1D03               	btfss	3,2
  2062  007E  2880               	goto	u244_21
  2063  007F  2881               	goto	u244_20
  2064  0080                     u244_21:
  2065  0080  288A               	goto	i1l1782
  2066  0081                     u244_20:
  2067  0081                     i1l1778:
  2068  0081  3000               	movlw	0
  2069  0082  00BD               	movwf	?___flmul+3
  2070  0083  3000               	movlw	0
  2071  0084  00BC               	movwf	?___flmul+2
  2072  0085  3000               	movlw	0
  2073  0086  00BB               	movwf	?___flmul+1
  2074  0087  3000               	movlw	0
  2075  0088  00BA               	movwf	?___flmul
  2076  0089  2B7D               	goto	i1l563
  2077  008A                     i1l1782:
  2078  008A  083A               	movf	___flmul@b,w
  2079  008B  00C2               	movwf	??___flmul
  2080  008C  0842               	movf	??___flmul,w
  2081  008D  00F0               	movwf	__Umul8_16@multiplicand
  2082  008E  0840               	movf	___flmul@a+2,w
  2083  008F  120A  158A  245F  120A  118A  	fcall	__Umul8_16
  2084  0094  0871               	movf	?__Umul8_16+1,w
  2085  0095  1283               	bcf	3,5	;RP0=0, select bank0
  2086  0096  1303               	bcf	3,6	;RP1=0, select bank0
  2087  0097  00D3               	movwf	___flmul@temp+1
  2088  0098  0870               	movf	?__Umul8_16,w
  2089  0099  00D2               	movwf	___flmul@temp
  2090  009A                     i1l1784:
  2091  009A  0852               	movf	___flmul@temp,w
  2092  009B  00C2               	movwf	??___flmul
  2093  009C  01C3               	clrf	??___flmul+1
  2094  009D  01C4               	clrf	??___flmul+2
  2095  009E  01C5               	clrf	??___flmul+3
  2096  009F  0845               	movf	??___flmul+3,w
  2097  00A0  00CB               	movwf	___flmul@grs+3
  2098  00A1  0844               	movf	??___flmul+2,w
  2099  00A2  00CA               	movwf	___flmul@grs+2
  2100  00A3  0843               	movf	??___flmul+1,w
  2101  00A4  00C9               	movwf	___flmul@grs+1
  2102  00A5  0842               	movf	??___flmul,w
  2103  00A6  00C8               	movwf	___flmul@grs
  2104  00A7                     i1l1786:
  2105  00A7  0853               	movf	___flmul@temp+1,w
  2106  00A8  00C2               	movwf	??___flmul
  2107  00A9  01C3               	clrf	??___flmul+1
  2108  00AA  01C4               	clrf	??___flmul+2
  2109  00AB  01C5               	clrf	??___flmul+3
  2110  00AC  0845               	movf	??___flmul+3,w
  2111  00AD  00D1               	movwf	___flmul@prod+3
  2112  00AE  0844               	movf	??___flmul+2,w
  2113  00AF  00D0               	movwf	___flmul@prod+2
  2114  00B0  0843               	movf	??___flmul+1,w
  2115  00B1  00CF               	movwf	___flmul@prod+1
  2116  00B2  0842               	movf	??___flmul,w
  2117  00B3  00CE               	movwf	___flmul@prod
  2118  00B4  083B               	movf	___flmul@b+1,w
  2119  00B5  00C2               	movwf	??___flmul
  2120  00B6  0842               	movf	??___flmul,w
  2121  00B7  00F0               	movwf	__Umul8_16@multiplicand
  2122  00B8  083F               	movf	___flmul@a+1,w
  2123  00B9  120A  158A  245F  120A  118A  	fcall	__Umul8_16
  2124  00BE  0871               	movf	?__Umul8_16+1,w
  2125  00BF  1283               	bcf	3,5	;RP0=0, select bank0
  2126  00C0  1303               	bcf	3,6	;RP1=0, select bank0
  2127  00C1  00D3               	movwf	___flmul@temp+1
  2128  00C2  0870               	movf	?__Umul8_16,w
  2129  00C3  00D2               	movwf	___flmul@temp
  2130  00C4                     i1l1788:
  2131  00C4  0852               	movf	___flmul@temp,w
  2132  00C5  00C2               	movwf	??___flmul
  2133  00C6  01C3               	clrf	??___flmul+1
  2134  00C7  01C4               	clrf	??___flmul+2
  2135  00C8  01C5               	clrf	??___flmul+3
  2136  00C9  0842               	movf	??___flmul,w
  2137  00CA  07C8               	addwf	___flmul@grs,f
  2138  00CB  0843               	movf	??___flmul+1,w
  2139  00CC  1103               	clrz
  2140  00CD  1803               	skipnc
  2141  00CE  3E01               	addlw	1
  2142  00CF  1903               	skipnz
  2143  00D0  28D2               	goto	u245_21
  2144  00D1  07C9               	addwf	___flmul@grs+1,f
  2145  00D2                     u245_21:
  2146  00D2  0844               	movf	??___flmul+2,w
  2147  00D3  1103               	clrz
  2148  00D4  1803               	skipnc
  2149  00D5  3E01               	addlw	1
  2150  00D6  1903               	skipnz
  2151  00D7  28D9               	goto	u245_22
  2152  00D8  07CA               	addwf	___flmul@grs+2,f
  2153  00D9                     u245_22:
  2154  00D9  0845               	movf	??___flmul+3,w
  2155  00DA  1103               	clrz
  2156  00DB  1803               	skipnc
  2157  00DC  3E01               	addlw	1
  2158  00DD  1903               	skipnz
  2159  00DE  28E0               	goto	u245_23
  2160  00DF  07CB               	addwf	___flmul@grs+3,f
  2161  00E0                     u245_23:
  2162  00E0                     i1l1790:
  2163  00E0  0853               	movf	___flmul@temp+1,w
  2164  00E1  00C2               	movwf	??___flmul
  2165  00E2  01C3               	clrf	??___flmul+1
  2166  00E3  01C4               	clrf	??___flmul+2
  2167  00E4  01C5               	clrf	??___flmul+3
  2168  00E5  0842               	movf	??___flmul,w
  2169  00E6  07CE               	addwf	___flmul@prod,f
  2170  00E7  0843               	movf	??___flmul+1,w
  2171  00E8  1103               	clrz
  2172  00E9  1803               	skipnc
  2173  00EA  3E01               	addlw	1
  2174  00EB  1903               	skipnz
  2175  00EC  28EE               	goto	u246_21
  2176  00ED  07CF               	addwf	___flmul@prod+1,f
  2177  00EE                     u246_21:
  2178  00EE  0844               	movf	??___flmul+2,w
  2179  00EF  1103               	clrz
  2180  00F0  1803               	skipnc
  2181  00F1  3E01               	addlw	1
  2182  00F2  1903               	skipnz
  2183  00F3  28F5               	goto	u246_22
  2184  00F4  07D0               	addwf	___flmul@prod+2,f
  2185  00F5                     u246_22:
  2186  00F5  0845               	movf	??___flmul+3,w
  2187  00F6  1103               	clrz
  2188  00F7  1803               	skipnc
  2189  00F8  3E01               	addlw	1
  2190  00F9  1903               	skipnz
  2191  00FA  28FC               	goto	u246_23
  2192  00FB  07D1               	addwf	___flmul@prod+3,f
  2193  00FC                     u246_23:
  2194  00FC  083C               	movf	___flmul@b+2,w
  2195  00FD  00C2               	movwf	??___flmul
  2196  00FE  0842               	movf	??___flmul,w
  2197  00FF  00F0               	movwf	__Umul8_16@multiplicand
  2198  0100  083E               	movf	___flmul@a,w
  2199  0101  120A  158A  245F  120A  118A  	fcall	__Umul8_16
  2200  0106  0871               	movf	?__Umul8_16+1,w
  2201  0107  1283               	bcf	3,5	;RP0=0, select bank0
  2202  0108  1303               	bcf	3,6	;RP1=0, select bank0
  2203  0109  00D3               	movwf	___flmul@temp+1
  2204  010A  0870               	movf	?__Umul8_16,w
  2205  010B  00D2               	movwf	___flmul@temp
  2206  010C                     i1l1792:
  2207  010C  0852               	movf	___flmul@temp,w
  2208  010D  00C2               	movwf	??___flmul
  2209  010E  01C3               	clrf	??___flmul+1
  2210  010F  01C4               	clrf	??___flmul+2
  2211  0110  01C5               	clrf	??___flmul+3
  2212  0111  0842               	movf	??___flmul,w
  2213  0112  07C8               	addwf	___flmul@grs,f
  2214  0113  0843               	movf	??___flmul+1,w
  2215  0114  1103               	clrz
  2216  0115  1803               	skipnc
  2217  0116  3E01               	addlw	1
  2218  0117  1903               	skipnz
  2219  0118  291A               	goto	u247_21
  2220  0119  07C9               	addwf	___flmul@grs+1,f
  2221  011A                     u247_21:
  2222  011A  0844               	movf	??___flmul+2,w
  2223  011B  1103               	clrz
  2224  011C  1803               	skipnc
  2225  011D  3E01               	addlw	1
  2226  011E  1903               	skipnz
  2227  011F  2921               	goto	u247_22
  2228  0120  07CA               	addwf	___flmul@grs+2,f
  2229  0121                     u247_22:
  2230  0121  0845               	movf	??___flmul+3,w
  2231  0122  1103               	clrz
  2232  0123  1803               	skipnc
  2233  0124  3E01               	addlw	1
  2234  0125  1903               	skipnz
  2235  0126  2928               	goto	u247_23
  2236  0127  07CB               	addwf	___flmul@grs+3,f
  2237  0128                     u247_23:
  2238  0128                     i1l1794:
  2239  0128  0853               	movf	___flmul@temp+1,w
  2240  0129  00C2               	movwf	??___flmul
  2241  012A  01C3               	clrf	??___flmul+1
  2242  012B  01C4               	clrf	??___flmul+2
  2243  012C  01C5               	clrf	??___flmul+3
  2244  012D  0842               	movf	??___flmul,w
  2245  012E  07CE               	addwf	___flmul@prod,f
  2246  012F  0843               	movf	??___flmul+1,w
  2247  0130  1103               	clrz
  2248  0131  1803               	skipnc
  2249  0132  3E01               	addlw	1
  2250  0133  1903               	skipnz
  2251  0134  2936               	goto	u248_21
  2252  0135  07CF               	addwf	___flmul@prod+1,f
  2253  0136                     u248_21:
  2254  0136  0844               	movf	??___flmul+2,w
  2255  0137  1103               	clrz
  2256  0138  1803               	skipnc
  2257  0139  3E01               	addlw	1
  2258  013A  1903               	skipnz
  2259  013B  293D               	goto	u248_22
  2260  013C  07D0               	addwf	___flmul@prod+2,f
  2261  013D                     u248_22:
  2262  013D  0845               	movf	??___flmul+3,w
  2263  013E  1103               	clrz
  2264  013F  1803               	skipnc
  2265  0140  3E01               	addlw	1
  2266  0141  1903               	skipnz
  2267  0142  2944               	goto	u248_23
  2268  0143  07D1               	addwf	___flmul@prod+3,f
  2269  0144                     u248_23:
  2270  0144                     i1l1796:
  2271  0144  3008               	movlw	8
  2272  0145  00C2               	movwf	??___flmul
  2273  0146                     u249_25:
  2274  0146  1003               	clrc
  2275  0147  0DC8               	rlf	___flmul@grs,f
  2276  0148  0DC9               	rlf	___flmul@grs+1,f
  2277  0149  0DCA               	rlf	___flmul@grs+2,f
  2278  014A  0DCB               	rlf	___flmul@grs+3,f
  2279  014B  0BC2               	decfsz	??___flmul,f
  2280  014C  2946               	goto	u249_25
  2281  014D                     i1l1798:
  2282  014D  083B               	movf	___flmul@b+1,w
  2283  014E  00C2               	movwf	??___flmul
  2284  014F  0842               	movf	??___flmul,w
  2285  0150  00F0               	movwf	__Umul8_16@multiplicand
  2286  0151  083E               	movf	___flmul@a,w
  2287  0152  120A  158A  245F  120A  118A  	fcall	__Umul8_16
  2288  0157  0871               	movf	?__Umul8_16+1,w
  2289  0158  1283               	bcf	3,5	;RP0=0, select bank0
  2290  0159  1303               	bcf	3,6	;RP1=0, select bank0
  2291  015A  00D3               	movwf	___flmul@temp+1
  2292  015B  0870               	movf	?__Umul8_16,w
  2293  015C  00D2               	movwf	___flmul@temp
  2294  015D                     i1l1800:
  2295  015D  0852               	movf	___flmul@temp,w
  2296  015E  00C2               	movwf	??___flmul
  2297  015F  0853               	movf	___flmul@temp+1,w
  2298  0160  00C3               	movwf	??___flmul+1
  2299  0161  01C4               	clrf	??___flmul+2
  2300  0162  01C5               	clrf	??___flmul+3
  2301  0163  0842               	movf	??___flmul,w
  2302  0164  07C8               	addwf	___flmul@grs,f
  2303  0165  0843               	movf	??___flmul+1,w
  2304  0166  1103               	clrz
  2305  0167  1803               	skipnc
  2306  0168  3E01               	addlw	1
  2307  0169  1903               	skipnz
  2308  016A  296C               	goto	u250_21
  2309  016B  07C9               	addwf	___flmul@grs+1,f
  2310  016C                     u250_21:
  2311  016C  0844               	movf	??___flmul+2,w
  2312  016D  1103               	clrz
  2313  016E  1803               	skipnc
  2314  016F  3E01               	addlw	1
  2315  0170  1903               	skipnz
  2316  0171  2973               	goto	u250_22
  2317  0172  07CA               	addwf	___flmul@grs+2,f
  2318  0173                     u250_22:
  2319  0173  0845               	movf	??___flmul+3,w
  2320  0174  1103               	clrz
  2321  0175  1803               	skipnc
  2322  0176  3E01               	addlw	1
  2323  0177  1903               	skipnz
  2324  0178  297A               	goto	u250_23
  2325  0179  07CB               	addwf	___flmul@grs+3,f
  2326  017A                     u250_23:
  2327  017A                     i1l1802:
  2328  017A  083A               	movf	___flmul@b,w
  2329  017B  00C2               	movwf	??___flmul
  2330  017C  0842               	movf	??___flmul,w
  2331  017D  00F0               	movwf	__Umul8_16@multiplicand
  2332  017E  083F               	movf	___flmul@a+1,w
  2333  017F  120A  158A  245F  120A  118A  	fcall	__Umul8_16
  2334  0184  0871               	movf	?__Umul8_16+1,w
  2335  0185  1283               	bcf	3,5	;RP0=0, select bank0
  2336  0186  1303               	bcf	3,6	;RP1=0, select bank0
  2337  0187  00D3               	movwf	___flmul@temp+1
  2338  0188  0870               	movf	?__Umul8_16,w
  2339  0189  00D2               	movwf	___flmul@temp
  2340  018A                     i1l1804:
  2341  018A  0852               	movf	___flmul@temp,w
  2342  018B  00C2               	movwf	??___flmul
  2343  018C  0853               	movf	___flmul@temp+1,w
  2344  018D  00C3               	movwf	??___flmul+1
  2345  018E  01C4               	clrf	??___flmul+2
  2346  018F  01C5               	clrf	??___flmul+3
  2347  0190  0842               	movf	??___flmul,w
  2348  0191  07C8               	addwf	___flmul@grs,f
  2349  0192  0843               	movf	??___flmul+1,w
  2350  0193  1103               	clrz
  2351  0194  1803               	skipnc
  2352  0195  3E01               	addlw	1
  2353  0196  1903               	skipnz
  2354  0197  2999               	goto	u251_21
  2355  0198  07C9               	addwf	___flmul@grs+1,f
  2356  0199                     u251_21:
  2357  0199  0844               	movf	??___flmul+2,w
  2358  019A  1103               	clrz
  2359  019B  1803               	skipnc
  2360  019C  3E01               	addlw	1
  2361  019D  1903               	skipnz
  2362  019E  29A0               	goto	u251_22
  2363  019F  07CA               	addwf	___flmul@grs+2,f
  2364  01A0                     u251_22:
  2365  01A0  0845               	movf	??___flmul+3,w
  2366  01A1  1103               	clrz
  2367  01A2  1803               	skipnc
  2368  01A3  3E01               	addlw	1
  2369  01A4  1903               	skipnz
  2370  01A5  29A7               	goto	u251_23
  2371  01A6  07CB               	addwf	___flmul@grs+3,f
  2372  01A7                     u251_23:
  2373  01A7                     i1l1806:
  2374  01A7  3008               	movlw	8
  2375  01A8  00C2               	movwf	??___flmul
  2376  01A9                     u252_25:
  2377  01A9  1003               	clrc
  2378  01AA  0DC8               	rlf	___flmul@grs,f
  2379  01AB  0DC9               	rlf	___flmul@grs+1,f
  2380  01AC  0DCA               	rlf	___flmul@grs+2,f
  2381  01AD  0DCB               	rlf	___flmul@grs+3,f
  2382  01AE  0BC2               	decfsz	??___flmul,f
  2383  01AF  29A9               	goto	u252_25
  2384  01B0  083A               	movf	___flmul@b,w
  2385  01B1  00C2               	movwf	??___flmul
  2386  01B2  0842               	movf	??___flmul,w
  2387  01B3  00F0               	movwf	__Umul8_16@multiplicand
  2388  01B4  083E               	movf	___flmul@a,w
  2389  01B5  120A  158A  245F  120A  118A  	fcall	__Umul8_16
  2390  01BA  0871               	movf	?__Umul8_16+1,w
  2391  01BB  1283               	bcf	3,5	;RP0=0, select bank0
  2392  01BC  1303               	bcf	3,6	;RP1=0, select bank0
  2393  01BD  00D3               	movwf	___flmul@temp+1
  2394  01BE  0870               	movf	?__Umul8_16,w
  2395  01BF  00D2               	movwf	___flmul@temp
  2396  01C0                     i1l1808:
  2397  01C0  0852               	movf	___flmul@temp,w
  2398  01C1  00C2               	movwf	??___flmul
  2399  01C2  0853               	movf	___flmul@temp+1,w
  2400  01C3  00C3               	movwf	??___flmul+1
  2401  01C4  01C4               	clrf	??___flmul+2
  2402  01C5  01C5               	clrf	??___flmul+3
  2403  01C6  0842               	movf	??___flmul,w
  2404  01C7  07C8               	addwf	___flmul@grs,f
  2405  01C8  0843               	movf	??___flmul+1,w
  2406  01C9  1103               	clrz
  2407  01CA  1803               	skipnc
  2408  01CB  3E01               	addlw	1
  2409  01CC  1903               	skipnz
  2410  01CD  29CF               	goto	u253_21
  2411  01CE  07C9               	addwf	___flmul@grs+1,f
  2412  01CF                     u253_21:
  2413  01CF  0844               	movf	??___flmul+2,w
  2414  01D0  1103               	clrz
  2415  01D1  1803               	skipnc
  2416  01D2  3E01               	addlw	1
  2417  01D3  1903               	skipnz
  2418  01D4  29D6               	goto	u253_22
  2419  01D5  07CA               	addwf	___flmul@grs+2,f
  2420  01D6                     u253_22:
  2421  01D6  0845               	movf	??___flmul+3,w
  2422  01D7  1103               	clrz
  2423  01D8  1803               	skipnc
  2424  01D9  3E01               	addlw	1
  2425  01DA  1903               	skipnz
  2426  01DB  29DD               	goto	u253_23
  2427  01DC  07CB               	addwf	___flmul@grs+3,f
  2428  01DD                     u253_23:
  2429  01DD                     i1l1810:
  2430  01DD  083B               	movf	___flmul@b+1,w
  2431  01DE  00C2               	movwf	??___flmul
  2432  01DF  0842               	movf	??___flmul,w
  2433  01E0  00F0               	movwf	__Umul8_16@multiplicand
  2434  01E1  0840               	movf	___flmul@a+2,w
  2435  01E2  120A  158A  245F  120A  118A  	fcall	__Umul8_16
  2436  01E7  0871               	movf	?__Umul8_16+1,w
  2437  01E8  1283               	bcf	3,5	;RP0=0, select bank0
  2438  01E9  1303               	bcf	3,6	;RP1=0, select bank0
  2439  01EA  00D3               	movwf	___flmul@temp+1
  2440  01EB  0870               	movf	?__Umul8_16,w
  2441  01EC  00D2               	movwf	___flmul@temp
  2442  01ED  0852               	movf	___flmul@temp,w
  2443  01EE  00C2               	movwf	??___flmul
  2444  01EF  0853               	movf	___flmul@temp+1,w
  2445  01F0  00C3               	movwf	??___flmul+1
  2446  01F1  01C4               	clrf	??___flmul+2
  2447  01F2  01C5               	clrf	??___flmul+3
  2448  01F3  0842               	movf	??___flmul,w
  2449  01F4  07CE               	addwf	___flmul@prod,f
  2450  01F5  0843               	movf	??___flmul+1,w
  2451  01F6  1103               	clrz
  2452  01F7  1803               	skipnc
  2453  01F8  3E01               	addlw	1
  2454  01F9  1903               	skipnz
  2455  01FA  29FC               	goto	u254_21
  2456  01FB  07CF               	addwf	___flmul@prod+1,f
  2457  01FC                     u254_21:
  2458  01FC  0844               	movf	??___flmul+2,w
  2459  01FD  1103               	clrz
  2460  01FE  1803               	skipnc
  2461  01FF  3E01               	addlw	1
  2462  0200  1903               	skipnz
  2463  0201  2A03               	goto	u254_22
  2464  0202  07D0               	addwf	___flmul@prod+2,f
  2465  0203                     u254_22:
  2466  0203  0845               	movf	??___flmul+3,w
  2467  0204  1103               	clrz
  2468  0205  1803               	skipnc
  2469  0206  3E01               	addlw	1
  2470  0207  1903               	skipnz
  2471  0208  2A0A               	goto	u254_23
  2472  0209  07D1               	addwf	___flmul@prod+3,f
  2473  020A                     u254_23:
  2474  020A                     i1l1812:
  2475  020A  083C               	movf	___flmul@b+2,w
  2476  020B  00C2               	movwf	??___flmul
  2477  020C  0842               	movf	??___flmul,w
  2478  020D  00F0               	movwf	__Umul8_16@multiplicand
  2479  020E  083F               	movf	___flmul@a+1,w
  2480  020F  120A  158A  245F  120A  118A  	fcall	__Umul8_16
  2481  0214  0871               	movf	?__Umul8_16+1,w
  2482  0215  1283               	bcf	3,5	;RP0=0, select bank0
  2483  0216  1303               	bcf	3,6	;RP1=0, select bank0
  2484  0217  00D3               	movwf	___flmul@temp+1
  2485  0218  0870               	movf	?__Umul8_16,w
  2486  0219  00D2               	movwf	___flmul@temp
  2487  021A                     i1l1814:
  2488  021A  0852               	movf	___flmul@temp,w
  2489  021B  00C2               	movwf	??___flmul
  2490  021C  0853               	movf	___flmul@temp+1,w
  2491  021D  00C3               	movwf	??___flmul+1
  2492  021E  01C4               	clrf	??___flmul+2
  2493  021F  01C5               	clrf	??___flmul+3
  2494  0220  0842               	movf	??___flmul,w
  2495  0221  07CE               	addwf	___flmul@prod,f
  2496  0222  0843               	movf	??___flmul+1,w
  2497  0223  1103               	clrz
  2498  0224  1803               	skipnc
  2499  0225  3E01               	addlw	1
  2500  0226  1903               	skipnz
  2501  0227  2A29               	goto	u255_21
  2502  0228  07CF               	addwf	___flmul@prod+1,f
  2503  0229                     u255_21:
  2504  0229  0844               	movf	??___flmul+2,w
  2505  022A  1103               	clrz
  2506  022B  1803               	skipnc
  2507  022C  3E01               	addlw	1
  2508  022D  1903               	skipnz
  2509  022E  2A30               	goto	u255_22
  2510  022F  07D0               	addwf	___flmul@prod+2,f
  2511  0230                     u255_22:
  2512  0230  0845               	movf	??___flmul+3,w
  2513  0231  1103               	clrz
  2514  0232  1803               	skipnc
  2515  0233  3E01               	addlw	1
  2516  0234  1903               	skipnz
  2517  0235  2A37               	goto	u255_23
  2518  0236  07D1               	addwf	___flmul@prod+3,f
  2519  0237                     u255_23:
  2520  0237  083C               	movf	___flmul@b+2,w
  2521  0238  00C2               	movwf	??___flmul
  2522  0239  0842               	movf	??___flmul,w
  2523  023A  00F0               	movwf	__Umul8_16@multiplicand
  2524  023B  0840               	movf	___flmul@a+2,w
  2525  023C  120A  158A  245F  120A  118A  	fcall	__Umul8_16
  2526  0241  0871               	movf	?__Umul8_16+1,w
  2527  0242  1283               	bcf	3,5	;RP0=0, select bank0
  2528  0243  1303               	bcf	3,6	;RP1=0, select bank0
  2529  0244  00D3               	movwf	___flmul@temp+1
  2530  0245  0870               	movf	?__Umul8_16,w
  2531  0246  00D2               	movwf	___flmul@temp
  2532  0247                     i1l1816:
  2533  0247  0852               	movf	___flmul@temp,w
  2534  0248  00C2               	movwf	??___flmul
  2535  0249  0853               	movf	___flmul@temp+1,w
  2536  024A  00C3               	movwf	??___flmul+1
  2537  024B  01C4               	clrf	??___flmul+2
  2538  024C  01C5               	clrf	??___flmul+3
  2539  024D  3008               	movlw	8
  2540  024E                     u256_25:
  2541  024E  1003               	clrc
  2542  024F  0DC2               	rlf	??___flmul,f
  2543  0250  0DC3               	rlf	??___flmul+1,f
  2544  0251  0DC4               	rlf	??___flmul+2,f
  2545  0252  0DC5               	rlf	??___flmul+3,f
  2546  0253                     u256_20:
  2547  0253  3EFF               	addlw	-1
  2548  0254  1D03               	skipz
  2549  0255  2A4E               	goto	u256_25
  2550  0256  0842               	movf	??___flmul,w
  2551  0257  07CE               	addwf	___flmul@prod,f
  2552  0258  0843               	movf	??___flmul+1,w
  2553  0259  1103               	clrz
  2554  025A  1803               	skipnc
  2555  025B  3E01               	addlw	1
  2556  025C  1903               	skipnz
  2557  025D  2A5F               	goto	u257_21
  2558  025E  07CF               	addwf	___flmul@prod+1,f
  2559  025F                     u257_21:
  2560  025F  0844               	movf	??___flmul+2,w
  2561  0260  1103               	clrz
  2562  0261  1803               	skipnc
  2563  0262  3E01               	addlw	1
  2564  0263  1903               	skipnz
  2565  0264  2A66               	goto	u257_22
  2566  0265  07D0               	addwf	___flmul@prod+2,f
  2567  0266                     u257_22:
  2568  0266  0845               	movf	??___flmul+3,w
  2569  0267  1103               	clrz
  2570  0268  1803               	skipnc
  2571  0269  3E01               	addlw	1
  2572  026A  1903               	skipnz
  2573  026B  2A6D               	goto	u257_23
  2574  026C  07D1               	addwf	___flmul@prod+3,f
  2575  026D                     u257_23:
  2576  026D                     i1l1818:
  2577  026D  0848               	movf	___flmul@grs,w
  2578  026E  00C2               	movwf	??___flmul
  2579  026F  0849               	movf	___flmul@grs+1,w
  2580  0270  00C3               	movwf	??___flmul+1
  2581  0271  084A               	movf	___flmul@grs+2,w
  2582  0272  00C4               	movwf	??___flmul+2
  2583  0273  084B               	movf	___flmul@grs+3,w
  2584  0274  00C5               	movwf	??___flmul+3
  2585  0275  3018               	movlw	24
  2586  0276                     u258_25:
  2587  0276  1003               	clrc
  2588  0277  0CC5               	rrf	??___flmul+3,f
  2589  0278  0CC4               	rrf	??___flmul+2,f
  2590  0279  0CC3               	rrf	??___flmul+1,f
  2591  027A  0CC2               	rrf	??___flmul,f
  2592  027B                     u258_20:
  2593  027B  3EFF               	addlw	-1
  2594  027C  1D03               	skipz
  2595  027D  2A76               	goto	u258_25
  2596  027E  0842               	movf	??___flmul,w
  2597  027F  07CE               	addwf	___flmul@prod,f
  2598  0280  0843               	movf	??___flmul+1,w
  2599  0281  1103               	clrz
  2600  0282  1803               	skipnc
  2601  0283  3E01               	addlw	1
  2602  0284  1903               	skipnz
  2603  0285  2A87               	goto	u259_21
  2604  0286  07CF               	addwf	___flmul@prod+1,f
  2605  0287                     u259_21:
  2606  0287  0844               	movf	??___flmul+2,w
  2607  0288  1103               	clrz
  2608  0289  1803               	skipnc
  2609  028A  3E01               	addlw	1
  2610  028B  1903               	skipnz
  2611  028C  2A8E               	goto	u259_22
  2612  028D  07D0               	addwf	___flmul@prod+2,f
  2613  028E                     u259_22:
  2614  028E  0845               	movf	??___flmul+3,w
  2615  028F  1103               	clrz
  2616  0290  1803               	skipnc
  2617  0291  3E01               	addlw	1
  2618  0292  1903               	skipnz
  2619  0293  2A95               	goto	u259_23
  2620  0294  07D1               	addwf	___flmul@prod+3,f
  2621  0295                     u259_23:
  2622  0295                     i1l1820:
  2623  0295  3008               	movlw	8
  2624  0296  00C2               	movwf	??___flmul
  2625  0297                     u260_25:
  2626  0297  1003               	clrc
  2627  0298  0DC8               	rlf	___flmul@grs,f
  2628  0299  0DC9               	rlf	___flmul@grs+1,f
  2629  029A  0DCA               	rlf	___flmul@grs+2,f
  2630  029B  0DCB               	rlf	___flmul@grs+3,f
  2631  029C  0BC2               	decfsz	??___flmul,f
  2632  029D  2A97               	goto	u260_25
  2633  029E                     i1l1822:
  2634  029E  084D               	movf	___flmul@bexp,w
  2635  029F  074C               	addwf	___flmul@aexp,w
  2636  02A0  00C2               	movwf	??___flmul
  2637  02A1  01C3               	clrf	??___flmul+1
  2638  02A2  0DC3               	rlf	??___flmul+1,f
  2639  02A3  0842               	movf	??___flmul,w
  2640  02A4  3E82               	addlw	130
  2641  02A5  00D2               	movwf	___flmul@temp
  2642  02A6  0843               	movf	??___flmul+1,w
  2643  02A7  1803               	skipnc
  2644  02A8  3E01               	addlw	1
  2645  02A9  3EFF               	addlw	255
  2646  02AA  00D3               	movwf	___flmul@temp+1
  2647  02AB  2AC9               	goto	i1l1834
  2648  02AC                     i1l1824:
  2649  02AC  3001               	movlw	1
  2650  02AD  00C2               	movwf	??___flmul
  2651  02AE                     u261_25:
  2652  02AE  1003               	clrc
  2653  02AF  0DCE               	rlf	___flmul@prod,f
  2654  02B0  0DCF               	rlf	___flmul@prod+1,f
  2655  02B1  0DD0               	rlf	___flmul@prod+2,f
  2656  02B2  0DD1               	rlf	___flmul@prod+3,f
  2657  02B3  0BC2               	decfsz	??___flmul,f
  2658  02B4  2AAE               	goto	u261_25
  2659  02B5                     i1l1826:
  2660  02B5  1FCB               	btfss	___flmul@grs+3,7
  2661  02B6  2AB8               	goto	u262_21
  2662  02B7  2AB9               	goto	u262_20
  2663  02B8                     u262_21:
  2664  02B8  2ABA               	goto	i1l1830
  2665  02B9                     u262_20:
  2666  02B9                     i1l1828:
  2667  02B9  144E               	bsf	___flmul@prod,0
  2668  02BA                     i1l1830:
  2669  02BA  3001               	movlw	1
  2670  02BB  00C2               	movwf	??___flmul
  2671  02BC                     u263_25:
  2672  02BC  1003               	clrc
  2673  02BD  0DC8               	rlf	___flmul@grs,f
  2674  02BE  0DC9               	rlf	___flmul@grs+1,f
  2675  02BF  0DCA               	rlf	___flmul@grs+2,f
  2676  02C0  0DCB               	rlf	___flmul@grs+3,f
  2677  02C1  0BC2               	decfsz	??___flmul,f
  2678  02C2  2ABC               	goto	u263_25
  2679  02C3                     i1l1832:
  2680  02C3  30FF               	movlw	255
  2681  02C4  07D2               	addwf	___flmul@temp,f
  2682  02C5  1803               	skipnc
  2683  02C6  0AD3               	incf	___flmul@temp+1,f
  2684  02C7  30FF               	movlw	255
  2685  02C8  07D3               	addwf	___flmul@temp+1,f
  2686  02C9                     i1l1834:
  2687  02C9  1FD0               	btfss	___flmul@prod+2,7
  2688  02CA  2ACC               	goto	u264_21
  2689  02CB  2ACD               	goto	u264_20
  2690  02CC                     u264_21:
  2691  02CC  2AAC               	goto	i1l1824
  2692  02CD                     u264_20:
  2693  02CD                     i1l1836:
  2694  02CD  01CC               	clrf	___flmul@aexp
  2695  02CE                     i1l1838:
  2696  02CE  1FCB               	btfss	___flmul@grs+3,7
  2697  02CF  2AD1               	goto	u265_21
  2698  02D0  2AD2               	goto	u265_20
  2699  02D1                     u265_21:
  2700  02D1  2AEE               	goto	i1l1846
  2701  02D2                     u265_20:
  2702  02D2                     i1l1840:
  2703  02D2  30FF               	movlw	255
  2704  02D3  0548               	andwf	___flmul@grs,w
  2705  02D4  00C2               	movwf	??___flmul
  2706  02D5  30FF               	movlw	255
  2707  02D6  0549               	andwf	___flmul@grs+1,w
  2708  02D7  00C3               	movwf	??___flmul+1
  2709  02D8  30FF               	movlw	255
  2710  02D9  054A               	andwf	___flmul@grs+2,w
  2711  02DA  00C4               	movwf	??___flmul+2
  2712  02DB  307F               	movlw	127
  2713  02DC  054B               	andwf	___flmul@grs+3,w
  2714  02DD  00C5               	movwf	??___flmul+3
  2715  02DE  0845               	movf	??___flmul+3,w
  2716  02DF  0444               	iorwf	??___flmul+2,w
  2717  02E0  0443               	iorwf	??___flmul+1,w
  2718  02E1  0442               	iorwf	??___flmul,w
  2719  02E2  1903               	skipnz
  2720  02E3  2AE5               	goto	u266_21
  2721  02E4  2AE6               	goto	u266_20
  2722  02E5                     u266_21:
  2723  02E5  2AE9               	goto	i1l569
  2724  02E6                     u266_20:
  2725  02E6                     i1l1842:
  2726  02E6  01CC               	clrf	___flmul@aexp
  2727  02E7  0ACC               	incf	___flmul@aexp,f
  2728  02E8  2AEE               	goto	i1l1846
  2729  02E9                     i1l569:
  2730  02E9  1C4E               	btfss	___flmul@prod,0
  2731  02EA  2AEC               	goto	u267_21
  2732  02EB  2AED               	goto	u267_20
  2733  02EC                     u267_21:
  2734  02EC  2AEE               	goto	i1l1846
  2735  02ED                     u267_20:
  2736  02ED  2AE6               	goto	i1l1842
  2737  02EE                     i1l1846:
  2738  02EE  084C               	movf	___flmul@aexp,w
  2739  02EF  1903               	btfsc	3,2
  2740  02F0  2AF2               	goto	u268_21
  2741  02F1  2AF3               	goto	u268_20
  2742  02F2                     u268_21:
  2743  02F2  2B24               	goto	i1l1856
  2744  02F3                     u268_20:
  2745  02F3                     i1l1848:
  2746  02F3  3001               	movlw	1
  2747  02F4  07CE               	addwf	___flmul@prod,f
  2748  02F5  3000               	movlw	0
  2749  02F6  1803               	skipnc
  2750  02F7  3001               	movlw	1
  2751  02F8  07CF               	addwf	___flmul@prod+1,f
  2752  02F9  3000               	movlw	0
  2753  02FA  1803               	skipnc
  2754  02FB  3001               	movlw	1
  2755  02FC  07D0               	addwf	___flmul@prod+2,f
  2756  02FD  3000               	movlw	0
  2757  02FE  1803               	skipnc
  2758  02FF  3001               	movlw	1
  2759  0300  07D1               	addwf	___flmul@prod+3,f
  2760  0301                     i1l1850:
  2761  0301  1C51               	btfss	___flmul@prod+3,0
  2762  0302  2B04               	goto	u269_21
  2763  0303  2B05               	goto	u269_20
  2764  0304                     u269_21:
  2765  0304  2B24               	goto	i1l1856
  2766  0305                     u269_20:
  2767  0305                     i1l1852:
  2768  0305  084E               	movf	___flmul@prod,w
  2769  0306  00C2               	movwf	??___flmul
  2770  0307  084F               	movf	___flmul@prod+1,w
  2771  0308  00C3               	movwf	??___flmul+1
  2772  0309  0850               	movf	___flmul@prod+2,w
  2773  030A  00C4               	movwf	??___flmul+2
  2774  030B  0851               	movf	___flmul@prod+3,w
  2775  030C  00C5               	movwf	??___flmul+3
  2776  030D  3001               	movlw	1
  2777  030E  00C6               	movwf	??___flmul+4
  2778  030F                     u270_25:
  2779  030F  0D45               	rlf	??___flmul+3,w
  2780  0310  0CC5               	rrf	??___flmul+3,f
  2781  0311  0CC4               	rrf	??___flmul+2,f
  2782  0312  0CC3               	rrf	??___flmul+1,f
  2783  0313  0CC2               	rrf	??___flmul,f
  2784  0314                     u270_20:
  2785  0314  0BC6               	decfsz	??___flmul+4,f
  2786  0315  2B0F               	goto	u270_25
  2787  0316  0845               	movf	??___flmul+3,w
  2788  0317  00D1               	movwf	___flmul@prod+3
  2789  0318  0844               	movf	??___flmul+2,w
  2790  0319  00D0               	movwf	___flmul@prod+2
  2791  031A  0843               	movf	??___flmul+1,w
  2792  031B  00CF               	movwf	___flmul@prod+1
  2793  031C  0842               	movf	??___flmul,w
  2794  031D  00CE               	movwf	___flmul@prod
  2795  031E                     i1l1854:
  2796  031E  3001               	movlw	1
  2797  031F  07D2               	addwf	___flmul@temp,f
  2798  0320  1803               	skipnc
  2799  0321  0AD3               	incf	___flmul@temp+1,f
  2800  0322  3000               	movlw	0
  2801  0323  07D3               	addwf	___flmul@temp+1,f
  2802  0324                     i1l1856:
  2803  0324  0853               	movf	___flmul@temp+1,w
  2804  0325  3A80               	xorlw	128
  2805  0326  00FF               	movwf	btemp+1
  2806  0327  3080               	movlw	128
  2807  0328  027F               	subwf	btemp+1,w
  2808  0329  1D03               	skipz
  2809  032A  2B2D               	goto	u271_25
  2810  032B  30FF               	movlw	255
  2811  032C  0252               	subwf	___flmul@temp,w
  2812  032D                     u271_25:
  2813  032D  1C03               	skipc
  2814  032E  2B30               	goto	u271_21
  2815  032F  2B31               	goto	u271_20
  2816  0330                     u271_21:
  2817  0330  2B3C               	goto	i1l1860
  2818  0331                     u271_20:
  2819  0331                     i1l1858:
  2820  0331  307F               	movlw	127
  2821  0332  1283               	bcf	3,5	;RP0=0, select bank0
  2822  0333  1303               	bcf	3,6	;RP1=0, select bank0
  2823  0334  00D1               	movwf	___flmul@prod+3
  2824  0335  3080               	movlw	128
  2825  0336  00D0               	movwf	___flmul@prod+2
  2826  0337  3000               	movlw	0
  2827  0338  00CF               	movwf	___flmul@prod+1
  2828  0339  3000               	movlw	0
  2829  033A  00CE               	movwf	___flmul@prod
  2830  033B  2B71               	goto	i1l575
  2831  033C                     i1l1860:
  2832  033C  1283               	bcf	3,5	;RP0=0, select bank0
  2833  033D  1303               	bcf	3,6	;RP1=0, select bank0
  2834  033E  0853               	movf	___flmul@temp+1,w
  2835  033F  3A80               	xorlw	128
  2836  0340  00FF               	movwf	btemp+1
  2837  0341  3080               	movlw	128
  2838  0342  027F               	subwf	btemp+1,w
  2839  0343  1D03               	skipz
  2840  0344  2B47               	goto	u272_25
  2841  0345  3001               	movlw	1
  2842  0346  0252               	subwf	___flmul@temp,w
  2843  0347                     u272_25:
  2844  0347  1803               	skipnc
  2845  0348  2B4A               	goto	u272_21
  2846  0349  2B4B               	goto	u272_20
  2847  034A                     u272_21:
  2848  034A  2B57               	goto	i1l1866
  2849  034B                     u272_20:
  2850  034B                     i1l1862:
  2851  034B  3000               	movlw	0
  2852  034C  1283               	bcf	3,5	;RP0=0, select bank0
  2853  034D  1303               	bcf	3,6	;RP1=0, select bank0
  2854  034E  00D1               	movwf	___flmul@prod+3
  2855  034F  3000               	movlw	0
  2856  0350  00D0               	movwf	___flmul@prod+2
  2857  0351  3000               	movlw	0
  2858  0352  00CF               	movwf	___flmul@prod+1
  2859  0353  3000               	movlw	0
  2860  0354  00CE               	movwf	___flmul@prod
  2861  0355                     i1l1864:
  2862  0355  01C7               	clrf	___flmul@sign
  2863  0356  2B71               	goto	i1l575
  2864  0357                     i1l1866:
  2865  0357  1283               	bcf	3,5	;RP0=0, select bank0
  2866  0358  1303               	bcf	3,6	;RP1=0, select bank0
  2867  0359  0852               	movf	___flmul@temp,w
  2868  035A  00C2               	movwf	??___flmul
  2869  035B  0842               	movf	??___flmul,w
  2870  035C  00CD               	movwf	___flmul@bexp
  2871  035D  30FF               	movlw	255
  2872  035E  05CE               	andwf	___flmul@prod,f
  2873  035F  30FF               	movlw	255
  2874  0360  05CF               	andwf	___flmul@prod+1,f
  2875  0361  307F               	movlw	127
  2876  0362  05D0               	andwf	___flmul@prod+2,f
  2877  0363  3000               	movlw	0
  2878  0364  05D1               	andwf	___flmul@prod+3,f
  2879  0365                     i1l1868:
  2880  0365  1C4D               	btfss	___flmul@bexp,0
  2881  0366  2B68               	goto	u273_21
  2882  0367  2B69               	goto	u273_20
  2883  0368                     u273_21:
  2884  0368  2B6A               	goto	i1l1872
  2885  0369                     u273_20:
  2886  0369                     i1l1870:
  2887  0369  17D0               	bsf	___flmul@prod+2,7
  2888  036A                     i1l1872:
  2889  036A  084D               	movf	___flmul@bexp,w
  2890  036B  00C2               	movwf	??___flmul
  2891  036C  1003               	clrc
  2892  036D  0C42               	rrf	??___flmul,w
  2893  036E  00C3               	movwf	??___flmul+1
  2894  036F  0843               	movf	??___flmul+1,w
  2895  0370  00D1               	movwf	___flmul@prod+3
  2896  0371                     i1l575:
  2897  0371  0847               	movf	___flmul@sign,w
  2898  0372  00C2               	movwf	??___flmul
  2899  0373  0842               	movf	??___flmul,w
  2900  0374  04D1               	iorwf	___flmul@prod+3,f
  2901  0375                     i1l1874:
  2902  0375  0851               	movf	___flmul@prod+3,w
  2903  0376  00BD               	movwf	?___flmul+3
  2904  0377  0850               	movf	___flmul@prod+2,w
  2905  0378  00BC               	movwf	?___flmul+2
  2906  0379  084F               	movf	___flmul@prod+1,w
  2907  037A  00BB               	movwf	?___flmul+1
  2908  037B  084E               	movf	___flmul@prod,w
  2909  037C  00BA               	movwf	?___flmul
  2910  037D                     i1l563:
  2911  037D  0008               	return
  2912  037E                     __end_of___flmul:
  2913                           
  2914                           	psect	text7
  2915  0C5F                     __ptext7:	
  2916 ;; *************** function __Umul8_16 *****************
  2917 ;; Defined at:
  2918 ;;		line 4 in file "C:\Program Files\Microchip\xc8\v2.35\pic\sources\c90\common\Umul8_16.c"
  2919 ;; Parameters:    Size  Location     Type
  2920 ;;  multiplier      1    wreg     unsigned char 
  2921 ;;  multiplicand    1    0[COMMON] unsigned char 
  2922 ;; Auto vars:     Size  Location     Type
  2923 ;;  multiplier      1    8[COMMON] unsigned char 
  2924 ;;  word_mpld       2    6[COMMON] unsigned int 
  2925 ;;  product         2    4[COMMON] unsigned int 
  2926 ;; Return value:  Size  Location     Type
  2927 ;;                  2    0[COMMON] unsigned int 
  2928 ;; Registers used:
  2929 ;;		wreg, status,2, status,0
  2930 ;; Tracked objects:
  2931 ;;		On entry : 0/0
  2932 ;;		On exit  : 0/0
  2933 ;;		Unchanged: 0/0
  2934 ;; Data sizes:     COMMON   BANK0   BANK1   BANK3   BANK2
  2935 ;;      Params:         2       0       0       0       0
  2936 ;;      Locals:         5       0       0       0       0
  2937 ;;      Temps:          2       0       0       0       0
  2938 ;;      Totals:         9       0       0       0       0
  2939 ;;Total ram usage:        9 bytes
  2940 ;; Hardware stack levels used: 1
  2941 ;; This function calls:
  2942 ;;		Nothing
  2943 ;; This function is called by:
  2944 ;;		___flmul
  2945 ;; This function uses a non-reentrant model
  2946 ;;
  2947                           
  2948  0C5F                     __Umul8_16:	
  2949                           ;psect for function __Umul8_16
  2950                           
  2951                           
  2952                           ;incstack = 0
  2953                           ; Regs used in __Umul8_16: [wreg+status,2+status,0]
  2954                           ;__Umul8_16@multiplier stored from wreg
  2955  0C5F  00F8               	movwf	__Umul8_16@multiplier
  2956  0C60                     i1l1352:
  2957  0C60  01F4               	clrf	__Umul8_16@product
  2958  0C61  01F5               	clrf	__Umul8_16@product+1
  2959  0C62                     i1l1354:
  2960  0C62  0870               	movf	__Umul8_16@multiplicand,w
  2961  0C63  00F2               	movwf	??__Umul8_16
  2962  0C64  01F3               	clrf	??__Umul8_16+1
  2963  0C65  0872               	movf	??__Umul8_16,w
  2964  0C66  00F6               	movwf	__Umul8_16@word_mpld
  2965  0C67  0873               	movf	??__Umul8_16+1,w
  2966  0C68  00F7               	movwf	__Umul8_16@word_mpld+1
  2967  0C69                     i1l1356:
  2968  0C69  1C78               	btfss	__Umul8_16@multiplier,0
  2969  0C6A  2C6C               	goto	u149_21
  2970  0C6B  2C6D               	goto	u149_20
  2971  0C6C                     u149_21:
  2972  0C6C  2C73               	goto	i1l582
  2973  0C6D                     u149_20:
  2974  0C6D                     i1l1358:
  2975  0C6D  0876               	movf	__Umul8_16@word_mpld,w
  2976  0C6E  07F4               	addwf	__Umul8_16@product,f
  2977  0C6F  1803               	skipnc
  2978  0C70  0AF5               	incf	__Umul8_16@product+1,f
  2979  0C71  0877               	movf	__Umul8_16@word_mpld+1,w
  2980  0C72  07F5               	addwf	__Umul8_16@product+1,f
  2981  0C73                     i1l582:
  2982  0C73  3001               	movlw	1
  2983  0C74                     u150_25:
  2984  0C74  1003               	clrc
  2985  0C75  0DF6               	rlf	__Umul8_16@word_mpld,f
  2986  0C76  0DF7               	rlf	__Umul8_16@word_mpld+1,f
  2987  0C77  3EFF               	addlw	-1
  2988  0C78  1D03               	skipz
  2989  0C79  2C74               	goto	u150_25
  2990  0C7A  1003               	clrc
  2991  0C7B  0CF8               	rrf	__Umul8_16@multiplier,f
  2992  0C7C                     i1l1360:
  2993  0C7C  0878               	movf	__Umul8_16@multiplier,w
  2994  0C7D  1D03               	btfss	3,2
  2995  0C7E  2C80               	goto	u151_21
  2996  0C7F  2C81               	goto	u151_20
  2997  0C80                     u151_21:
  2998  0C80  2C69               	goto	i1l1356
  2999  0C81                     u151_20:
  3000  0C81                     i1l1362:
  3001  0C81  0875               	movf	__Umul8_16@product+1,w
  3002  0C82  00F1               	movwf	?__Umul8_16+1
  3003  0C83  0874               	movf	__Umul8_16@product,w
  3004  0C84  00F0               	movwf	?__Umul8_16
  3005  0C85                     i1l584:
  3006  0C85  0008               	return
  3007  0C86                     __end_of__Umul8_16:
  3008                           
  3009                           	psect	text8
  3010  0606                     __ptext8:	
  3011 ;; *************** function ___fldiv *****************
  3012 ;; Defined at:
  3013 ;;		line 8 in file "C:\Program Files\Microchip\xc8\v2.35\pic\sources\c90\common\sprcdiv.c"
  3014 ;; Parameters:    Size  Location     Type
  3015 ;;  a               4    0[BANK0 ] unsigned int 
  3016 ;;  b               4    4[BANK0 ] unsigned int 
  3017 ;; Auto vars:     Size  Location     Type
  3018 ;;  grs             4   20[BANK0 ] unsigned long 
  3019 ;;  rem             4   13[BANK0 ] unsigned long 
  3020 ;;  new_exp         2   18[BANK0 ] int 
  3021 ;;  aexp            1   25[BANK0 ] unsigned char 
  3022 ;;  bexp            1   24[BANK0 ] unsigned char 
  3023 ;;  sign            1   17[BANK0 ] unsigned char 
  3024 ;; Return value:  Size  Location     Type
  3025 ;;                  4    0[BANK0 ] unsigned char 
  3026 ;; Registers used:
  3027 ;;		wreg, status,2, status,0, btemp+1
  3028 ;; Tracked objects:
  3029 ;;		On entry : 0/0
  3030 ;;		On exit  : 0/0
  3031 ;;		Unchanged: 0/0
  3032 ;; Data sizes:     COMMON   BANK0   BANK1   BANK3   BANK2
  3033 ;;      Params:         0       8       0       0       0
  3034 ;;      Locals:         0      13       0       0       0
  3035 ;;      Temps:          0       5       0       0       0
  3036 ;;      Totals:         0      26       0       0       0
  3037 ;;Total ram usage:       26 bytes
  3038 ;; Hardware stack levels used: 1
  3039 ;; This function calls:
  3040 ;;		Nothing
  3041 ;; This function is called by:
  3042 ;;		_map
  3043 ;; This function uses a non-reentrant model
  3044 ;;
  3045                           
  3046  0606                     ___fldiv:	
  3047                           ;psect for function ___fldiv
  3048                           
  3049  0606                     i1l1596:	
  3050                           ;incstack = 0
  3051                           ; Regs used in ___fldiv: [wreg+status,2+status,0+btemp+1]
  3052                           
  3053  0606  1283               	bcf	3,5	;RP0=0, select bank0
  3054  0607  1303               	bcf	3,6	;RP1=0, select bank0
  3055  0608  0827               	movf	___fldiv@b+3,w
  3056  0609  3980               	andlw	128
  3057  060A  00A8               	movwf	??___fldiv
  3058  060B  0828               	movf	??___fldiv,w
  3059  060C  00B1               	movwf	___fldiv@sign
  3060  060D                     i1l1598:
  3061  060D  0827               	movf	___fldiv@b+3,w
  3062  060E  00A8               	movwf	??___fldiv
  3063  060F  0728               	addwf	??___fldiv,w
  3064  0610  00A9               	movwf	??___fldiv+1
  3065  0611  0829               	movf	??___fldiv+1,w
  3066  0612  00B8               	movwf	___fldiv@bexp
  3067  0613                     i1l1600:
  3068  0613  1FA6               	btfss	___fldiv@b+2,7
  3069  0614  2E16               	goto	u208_21
  3070  0615  2E17               	goto	u208_20
  3071  0616                     u208_21:
  3072  0616  2E18               	goto	i1l1604
  3073  0617                     u208_20:
  3074  0617                     i1l1602:
  3075  0617  1438               	bsf	___fldiv@bexp,0
  3076  0618                     i1l1604:
  3077  0618  0838               	movf	___fldiv@bexp,w
  3078  0619  1903               	btfsc	3,2
  3079  061A  2E1C               	goto	u209_21
  3080  061B  2E1D               	goto	u209_20
  3081  061C                     u209_21:
  3082  061C  2E2D               	goto	i1l1614
  3083  061D                     u209_20:
  3084  061D                     i1l1606:
  3085  061D  0A38               	incf	___fldiv@bexp,w
  3086  061E  1D03               	btfss	3,2
  3087  061F  2E21               	goto	u210_21
  3088  0620  2E22               	goto	u210_20
  3089  0621                     u210_21:
  3090  0621  2E2A               	goto	i1l1610
  3091  0622                     u210_20:
  3092  0622                     i1l1608:
  3093  0622  3000               	movlw	0
  3094  0623  00A7               	movwf	___fldiv@b+3
  3095  0624  3000               	movlw	0
  3096  0625  00A6               	movwf	___fldiv@b+2
  3097  0626  3000               	movlw	0
  3098  0627  00A5               	movwf	___fldiv@b+1
  3099  0628  3000               	movlw	0
  3100  0629  00A4               	movwf	___fldiv@b
  3101  062A                     i1l1610:
  3102  062A  17A6               	bsf	___fldiv@b+2,7
  3103  062B                     i1l1612:
  3104  062B  01A7               	clrf	___fldiv@b+3
  3105  062C  2E35               	goto	i1l1616
  3106  062D                     i1l1614:
  3107  062D  3000               	movlw	0
  3108  062E  00A7               	movwf	___fldiv@b+3
  3109  062F  3000               	movlw	0
  3110  0630  00A6               	movwf	___fldiv@b+2
  3111  0631  3000               	movlw	0
  3112  0632  00A5               	movwf	___fldiv@b+1
  3113  0633  3000               	movlw	0
  3114  0634  00A4               	movwf	___fldiv@b
  3115  0635                     i1l1616:
  3116  0635  0823               	movf	___fldiv@a+3,w
  3117  0636  3980               	andlw	128
  3118  0637  00A8               	movwf	??___fldiv
  3119  0638  0828               	movf	??___fldiv,w
  3120  0639  06B1               	xorwf	___fldiv@sign,f
  3121  063A                     i1l1618:
  3122  063A  0823               	movf	___fldiv@a+3,w
  3123  063B  00A8               	movwf	??___fldiv
  3124  063C  0728               	addwf	??___fldiv,w
  3125  063D  00A9               	movwf	??___fldiv+1
  3126  063E  0829               	movf	??___fldiv+1,w
  3127  063F  00B9               	movwf	___fldiv@aexp
  3128  0640                     i1l1620:
  3129  0640  1FA2               	btfss	___fldiv@a+2,7
  3130  0641  2E43               	goto	u211_21
  3131  0642  2E44               	goto	u211_20
  3132  0643                     u211_21:
  3133  0643  2E45               	goto	i1l1624
  3134  0644                     u211_20:
  3135  0644                     i1l1622:
  3136  0644  1439               	bsf	___fldiv@aexp,0
  3137  0645                     i1l1624:
  3138  0645  0839               	movf	___fldiv@aexp,w
  3139  0646  1903               	btfsc	3,2
  3140  0647  2E49               	goto	u212_21
  3141  0648  2E4A               	goto	u212_20
  3142  0649                     u212_21:
  3143  0649  2E5A               	goto	i1l1634
  3144  064A                     u212_20:
  3145  064A                     i1l1626:
  3146  064A  0A39               	incf	___fldiv@aexp,w
  3147  064B  1D03               	btfss	3,2
  3148  064C  2E4E               	goto	u213_21
  3149  064D  2E4F               	goto	u213_20
  3150  064E                     u213_21:
  3151  064E  2E57               	goto	i1l1630
  3152  064F                     u213_20:
  3153  064F                     i1l1628:
  3154  064F  3000               	movlw	0
  3155  0650  00A3               	movwf	___fldiv@a+3
  3156  0651  3000               	movlw	0
  3157  0652  00A2               	movwf	___fldiv@a+2
  3158  0653  3000               	movlw	0
  3159  0654  00A1               	movwf	___fldiv@a+1
  3160  0655  3000               	movlw	0
  3161  0656  00A0               	movwf	___fldiv@a
  3162  0657                     i1l1630:
  3163  0657  17A2               	bsf	___fldiv@a+2,7
  3164  0658                     i1l1632:
  3165  0658  01A3               	clrf	___fldiv@a+3
  3166  0659  2E62               	goto	i1l523
  3167  065A                     i1l1634:
  3168  065A  3000               	movlw	0
  3169  065B  00A3               	movwf	___fldiv@a+3
  3170  065C  3000               	movlw	0
  3171  065D  00A2               	movwf	___fldiv@a+2
  3172  065E  3000               	movlw	0
  3173  065F  00A1               	movwf	___fldiv@a+1
  3174  0660  3000               	movlw	0
  3175  0661  00A0               	movwf	___fldiv@a
  3176  0662                     i1l523:
  3177  0662  0823               	movf	___fldiv@a+3,w
  3178  0663  0422               	iorwf	___fldiv@a+2,w
  3179  0664  0421               	iorwf	___fldiv@a+1,w
  3180  0665  0420               	iorwf	___fldiv@a,w
  3181  0666  1D03               	skipz
  3182  0667  2E69               	goto	u214_21
  3183  0668  2E6A               	goto	u214_20
  3184  0669                     u214_21:
  3185  0669  2E83               	goto	i1l1644
  3186  066A                     u214_20:
  3187  066A                     i1l1636:
  3188  066A  3000               	movlw	0
  3189  066B  00A7               	movwf	___fldiv@b+3
  3190  066C  3000               	movlw	0
  3191  066D  00A6               	movwf	___fldiv@b+2
  3192  066E  3000               	movlw	0
  3193  066F  00A5               	movwf	___fldiv@b+1
  3194  0670  3000               	movlw	0
  3195  0671  00A4               	movwf	___fldiv@b
  3196  0672  3080               	movlw	128
  3197  0673  04A6               	iorwf	___fldiv@b+2,f
  3198  0674  307F               	movlw	127
  3199  0675  04A7               	iorwf	___fldiv@b+3,f
  3200  0676                     i1l1638:
  3201  0676  0831               	movf	___fldiv@sign,w
  3202  0677  00A8               	movwf	??___fldiv
  3203  0678  0828               	movf	??___fldiv,w
  3204  0679  04A7               	iorwf	___fldiv@b+3,f
  3205  067A                     i1l1640:
  3206  067A  0827               	movf	___fldiv@b+3,w
  3207  067B  00A3               	movwf	?___fldiv+3
  3208  067C  0826               	movf	___fldiv@b+2,w
  3209  067D  00A2               	movwf	?___fldiv+2
  3210  067E  0825               	movf	___fldiv@b+1,w
  3211  067F  00A1               	movwf	?___fldiv+1
  3212  0680  0824               	movf	___fldiv@b,w
  3213  0681  00A0               	movwf	?___fldiv
  3214  0682  2FE2               	goto	i1l525
  3215  0683                     i1l1644:
  3216  0683  0838               	movf	___fldiv@bexp,w
  3217  0684  1D03               	btfss	3,2
  3218  0685  2E87               	goto	u215_21
  3219  0686  2E88               	goto	u215_20
  3220  0687                     u215_21:
  3221  0687  2E91               	goto	i1l1650
  3222  0688                     u215_20:
  3223  0688                     i1l1646:
  3224  0688  3000               	movlw	0
  3225  0689  00A3               	movwf	?___fldiv+3
  3226  068A  3000               	movlw	0
  3227  068B  00A2               	movwf	?___fldiv+2
  3228  068C  3000               	movlw	0
  3229  068D  00A1               	movwf	?___fldiv+1
  3230  068E  3000               	movlw	0
  3231  068F  00A0               	movwf	?___fldiv
  3232  0690  2FE2               	goto	i1l525
  3233  0691                     i1l1650:
  3234  0691  0838               	movf	___fldiv@bexp,w
  3235  0692  00A8               	movwf	??___fldiv
  3236  0693  01A9               	clrf	??___fldiv+1
  3237  0694  0829               	movf	??___fldiv+1,w
  3238  0695  00AB               	movwf	??___fldiv+3
  3239  0696  0839               	movf	___fldiv@aexp,w
  3240  0697  0228               	subwf	??___fldiv,w
  3241  0698  00AA               	movwf	??___fldiv+2
  3242  0699  1C03               	skipc
  3243  069A  03AB               	decf	??___fldiv+3,f
  3244  069B  082A               	movf	??___fldiv+2,w
  3245  069C  3E7F               	addlw	127
  3246  069D  00B2               	movwf	___fldiv@new_exp
  3247  069E  082B               	movf	??___fldiv+3,w
  3248  069F  1803               	skipnc
  3249  06A0  3E01               	addlw	1
  3250  06A1  3E00               	addlw	0
  3251  06A2  00B3               	movwf	___fldiv@new_exp+1
  3252  06A3                     i1l1652:
  3253  06A3  0827               	movf	___fldiv@b+3,w
  3254  06A4  00B0               	movwf	___fldiv@rem+3
  3255  06A5  0826               	movf	___fldiv@b+2,w
  3256  06A6  00AF               	movwf	___fldiv@rem+2
  3257  06A7  0825               	movf	___fldiv@b+1,w
  3258  06A8  00AE               	movwf	___fldiv@rem+1
  3259  06A9  0824               	movf	___fldiv@b,w
  3260  06AA  00AD               	movwf	___fldiv@rem
  3261  06AB                     i1l1654:
  3262  06AB  3000               	movlw	0
  3263  06AC  00A7               	movwf	___fldiv@b+3
  3264  06AD  3000               	movlw	0
  3265  06AE  00A6               	movwf	___fldiv@b+2
  3266  06AF  3000               	movlw	0
  3267  06B0  00A5               	movwf	___fldiv@b+1
  3268  06B1  3000               	movlw	0
  3269  06B2  00A4               	movwf	___fldiv@b
  3270  06B3                     i1l1656:
  3271  06B3  3000               	movlw	0
  3272  06B4  00B7               	movwf	___fldiv@grs+3
  3273  06B5  3000               	movlw	0
  3274  06B6  00B6               	movwf	___fldiv@grs+2
  3275  06B7  3000               	movlw	0
  3276  06B8  00B5               	movwf	___fldiv@grs+1
  3277  06B9  3000               	movlw	0
  3278  06BA  00B4               	movwf	___fldiv@grs
  3279  06BB                     i1l1658:
  3280  06BB  01B9               	clrf	___fldiv@aexp
  3281  06BC  2F07               	goto	i1l1678
  3282  06BD                     i1l1660:
  3283  06BD  0839               	movf	___fldiv@aexp,w
  3284  06BE  1903               	btfsc	3,2
  3285  06BF  2EC1               	goto	u216_21
  3286  06C0  2EC2               	goto	u216_20
  3287  06C1                     u216_21:
  3288  06C1  2EE2               	goto	i1l1670
  3289  06C2                     u216_20:
  3290  06C2                     i1l1662:
  3291  06C2  3001               	movlw	1
  3292  06C3  00A8               	movwf	??___fldiv
  3293  06C4                     u217_25:
  3294  06C4  1003               	clrc
  3295  06C5  0DAD               	rlf	___fldiv@rem,f
  3296  06C6  0DAE               	rlf	___fldiv@rem+1,f
  3297  06C7  0DAF               	rlf	___fldiv@rem+2,f
  3298  06C8  0DB0               	rlf	___fldiv@rem+3,f
  3299  06C9  0BA8               	decfsz	??___fldiv,f
  3300  06CA  2EC4               	goto	u217_25
  3301  06CB  3001               	movlw	1
  3302  06CC  00A8               	movwf	??___fldiv
  3303  06CD                     u218_25:
  3304  06CD  1003               	clrc
  3305  06CE  0DA4               	rlf	___fldiv@b,f
  3306  06CF  0DA5               	rlf	___fldiv@b+1,f
  3307  06D0  0DA6               	rlf	___fldiv@b+2,f
  3308  06D1  0DA7               	rlf	___fldiv@b+3,f
  3309  06D2  0BA8               	decfsz	??___fldiv,f
  3310  06D3  2ECD               	goto	u218_25
  3311  06D4                     i1l1664:
  3312  06D4  1FB7               	btfss	___fldiv@grs+3,7
  3313  06D5  2ED7               	goto	u219_21
  3314  06D6  2ED8               	goto	u219_20
  3315  06D7                     u219_21:
  3316  06D7  2ED9               	goto	i1l1668
  3317  06D8                     u219_20:
  3318  06D8                     i1l1666:
  3319  06D8  1424               	bsf	___fldiv@b,0
  3320  06D9                     i1l1668:
  3321  06D9  3001               	movlw	1
  3322  06DA  00A8               	movwf	??___fldiv
  3323  06DB                     u220_25:
  3324  06DB  1003               	clrc
  3325  06DC  0DB4               	rlf	___fldiv@grs,f
  3326  06DD  0DB5               	rlf	___fldiv@grs+1,f
  3327  06DE  0DB6               	rlf	___fldiv@grs+2,f
  3328  06DF  0DB7               	rlf	___fldiv@grs+3,f
  3329  06E0  0BA8               	decfsz	??___fldiv,f
  3330  06E1  2EDB               	goto	u220_25
  3331  06E2                     i1l1670:
  3332  06E2  0823               	movf	___fldiv@a+3,w
  3333  06E3  0230               	subwf	___fldiv@rem+3,w
  3334  06E4  1D03               	skipz
  3335  06E5  2EF0               	goto	u221_25
  3336  06E6  0822               	movf	___fldiv@a+2,w
  3337  06E7  022F               	subwf	___fldiv@rem+2,w
  3338  06E8  1D03               	skipz
  3339  06E9  2EF0               	goto	u221_25
  3340  06EA  0821               	movf	___fldiv@a+1,w
  3341  06EB  022E               	subwf	___fldiv@rem+1,w
  3342  06EC  1D03               	skipz
  3343  06ED  2EF0               	goto	u221_25
  3344  06EE  0820               	movf	___fldiv@a,w
  3345  06EF  022D               	subwf	___fldiv@rem,w
  3346  06F0                     u221_25:
  3347  06F0  1C03               	skipc
  3348  06F1  2EF3               	goto	u221_21
  3349  06F2  2EF4               	goto	u221_20
  3350  06F3                     u221_21:
  3351  06F3  2F03               	goto	i1l1676
  3352  06F4                     u221_20:
  3353  06F4                     i1l1672:
  3354  06F4  1737               	bsf	___fldiv@grs+3,6
  3355  06F5                     i1l1674:
  3356  06F5  0820               	movf	___fldiv@a,w
  3357  06F6  02AD               	subwf	___fldiv@rem,f
  3358  06F7  0821               	movf	___fldiv@a+1,w
  3359  06F8  1C03               	skipc
  3360  06F9  0F21               	incfsz	___fldiv@a+1,w
  3361  06FA  02AE               	subwf	___fldiv@rem+1,f
  3362  06FB  0822               	movf	___fldiv@a+2,w
  3363  06FC  1C03               	skipc
  3364  06FD  0F22               	incfsz	___fldiv@a+2,w
  3365  06FE  02AF               	subwf	___fldiv@rem+2,f
  3366  06FF  0823               	movf	___fldiv@a+3,w
  3367  0700  1C03               	skipc
  3368  0701  0F23               	incfsz	___fldiv@a+3,w
  3369  0702  02B0               	subwf	___fldiv@rem+3,f
  3370  0703                     i1l1676:
  3371  0703  3001               	movlw	1
  3372  0704  00A8               	movwf	??___fldiv
  3373  0705  0828               	movf	??___fldiv,w
  3374  0706  07B9               	addwf	___fldiv@aexp,f
  3375  0707                     i1l1678:
  3376  0707  301A               	movlw	26
  3377  0708  0239               	subwf	___fldiv@aexp,w
  3378  0709  1C03               	skipc
  3379  070A  2F0C               	goto	u222_21
  3380  070B  2F0D               	goto	u222_20
  3381  070C                     u222_21:
  3382  070C  2EBD               	goto	i1l1660
  3383  070D                     u222_20:
  3384  070D                     i1l1680:
  3385  070D  0830               	movf	___fldiv@rem+3,w
  3386  070E  042F               	iorwf	___fldiv@rem+2,w
  3387  070F  042E               	iorwf	___fldiv@rem+1,w
  3388  0710  042D               	iorwf	___fldiv@rem,w
  3389  0711  1903               	skipnz
  3390  0712  2F14               	goto	u223_21
  3391  0713  2F15               	goto	u223_20
  3392  0714                     u223_21:
  3393  0714  2F34               	goto	i1l1694
  3394  0715                     u223_20:
  3395  0715                     i1l1682:
  3396  0715  1434               	bsf	___fldiv@grs,0
  3397  0716  2F34               	goto	i1l1694
  3398  0717                     i1l1684:
  3399  0717  3001               	movlw	1
  3400  0718  00A8               	movwf	??___fldiv
  3401  0719                     u224_25:
  3402  0719  1003               	clrc
  3403  071A  0DA4               	rlf	___fldiv@b,f
  3404  071B  0DA5               	rlf	___fldiv@b+1,f
  3405  071C  0DA6               	rlf	___fldiv@b+2,f
  3406  071D  0DA7               	rlf	___fldiv@b+3,f
  3407  071E  0BA8               	decfsz	??___fldiv,f
  3408  071F  2F19               	goto	u224_25
  3409  0720                     i1l1686:
  3410  0720  1FB7               	btfss	___fldiv@grs+3,7
  3411  0721  2F23               	goto	u225_21
  3412  0722  2F24               	goto	u225_20
  3413  0723                     u225_21:
  3414  0723  2F25               	goto	i1l1690
  3415  0724                     u225_20:
  3416  0724                     i1l1688:
  3417  0724  1424               	bsf	___fldiv@b,0
  3418  0725                     i1l1690:
  3419  0725  3001               	movlw	1
  3420  0726  00A8               	movwf	??___fldiv
  3421  0727                     u226_25:
  3422  0727  1003               	clrc
  3423  0728  0DB4               	rlf	___fldiv@grs,f
  3424  0729  0DB5               	rlf	___fldiv@grs+1,f
  3425  072A  0DB6               	rlf	___fldiv@grs+2,f
  3426  072B  0DB7               	rlf	___fldiv@grs+3,f
  3427  072C  0BA8               	decfsz	??___fldiv,f
  3428  072D  2F27               	goto	u226_25
  3429  072E                     i1l1692:
  3430  072E  30FF               	movlw	255
  3431  072F  07B2               	addwf	___fldiv@new_exp,f
  3432  0730  1803               	skipnc
  3433  0731  0AB3               	incf	___fldiv@new_exp+1,f
  3434  0732  30FF               	movlw	255
  3435  0733  07B3               	addwf	___fldiv@new_exp+1,f
  3436  0734                     i1l1694:
  3437  0734  1FA6               	btfss	___fldiv@b+2,7
  3438  0735  2F37               	goto	u227_21
  3439  0736  2F38               	goto	u227_20
  3440  0737                     u227_21:
  3441  0737  2F17               	goto	i1l1684
  3442  0738                     u227_20:
  3443  0738                     i1l1696:
  3444  0738  01B9               	clrf	___fldiv@aexp
  3445  0739                     i1l1698:
  3446  0739  1FB7               	btfss	___fldiv@grs+3,7
  3447  073A  2F3C               	goto	u228_21
  3448  073B  2F3D               	goto	u228_20
  3449  073C                     u228_21:
  3450  073C  2F59               	goto	i1l1706
  3451  073D                     u228_20:
  3452  073D                     i1l1700:
  3453  073D  30FF               	movlw	255
  3454  073E  0534               	andwf	___fldiv@grs,w
  3455  073F  00A8               	movwf	??___fldiv
  3456  0740  30FF               	movlw	255
  3457  0741  0535               	andwf	___fldiv@grs+1,w
  3458  0742  00A9               	movwf	??___fldiv+1
  3459  0743  30FF               	movlw	255
  3460  0744  0536               	andwf	___fldiv@grs+2,w
  3461  0745  00AA               	movwf	??___fldiv+2
  3462  0746  307F               	movlw	127
  3463  0747  0537               	andwf	___fldiv@grs+3,w
  3464  0748  00AB               	movwf	??___fldiv+3
  3465  0749  082B               	movf	??___fldiv+3,w
  3466  074A  042A               	iorwf	??___fldiv+2,w
  3467  074B  0429               	iorwf	??___fldiv+1,w
  3468  074C  0428               	iorwf	??___fldiv,w
  3469  074D  1903               	skipnz
  3470  074E  2F50               	goto	u229_21
  3471  074F  2F51               	goto	u229_20
  3472  0750                     u229_21:
  3473  0750  2F54               	goto	i1l539
  3474  0751                     u229_20:
  3475  0751                     i1l1702:
  3476  0751  01B9               	clrf	___fldiv@aexp
  3477  0752  0AB9               	incf	___fldiv@aexp,f
  3478  0753  2F59               	goto	i1l1706
  3479  0754                     i1l539:
  3480  0754  1C24               	btfss	___fldiv@b,0
  3481  0755  2F57               	goto	u230_21
  3482  0756  2F58               	goto	u230_20
  3483  0757                     u230_21:
  3484  0757  2F59               	goto	i1l1706
  3485  0758                     u230_20:
  3486  0758  2F51               	goto	i1l1702
  3487  0759                     i1l1706:
  3488  0759  0839               	movf	___fldiv@aexp,w
  3489  075A  1903               	btfsc	3,2
  3490  075B  2F5D               	goto	u231_21
  3491  075C  2F5E               	goto	u231_20
  3492  075D                     u231_21:
  3493  075D  2F8F               	goto	i1l1716
  3494  075E                     u231_20:
  3495  075E                     i1l1708:
  3496  075E  3001               	movlw	1
  3497  075F  07A4               	addwf	___fldiv@b,f
  3498  0760  3000               	movlw	0
  3499  0761  1803               	skipnc
  3500  0762  3001               	movlw	1
  3501  0763  07A5               	addwf	___fldiv@b+1,f
  3502  0764  3000               	movlw	0
  3503  0765  1803               	skipnc
  3504  0766  3001               	movlw	1
  3505  0767  07A6               	addwf	___fldiv@b+2,f
  3506  0768  3000               	movlw	0
  3507  0769  1803               	skipnc
  3508  076A  3001               	movlw	1
  3509  076B  07A7               	addwf	___fldiv@b+3,f
  3510  076C                     i1l1710:
  3511  076C  1C27               	btfss	___fldiv@b+3,0
  3512  076D  2F6F               	goto	u232_21
  3513  076E  2F70               	goto	u232_20
  3514  076F                     u232_21:
  3515  076F  2F8F               	goto	i1l1716
  3516  0770                     u232_20:
  3517  0770                     i1l1712:
  3518  0770  0824               	movf	___fldiv@b,w
  3519  0771  00A8               	movwf	??___fldiv
  3520  0772  0825               	movf	___fldiv@b+1,w
  3521  0773  00A9               	movwf	??___fldiv+1
  3522  0774  0826               	movf	___fldiv@b+2,w
  3523  0775  00AA               	movwf	??___fldiv+2
  3524  0776  0827               	movf	___fldiv@b+3,w
  3525  0777  00AB               	movwf	??___fldiv+3
  3526  0778  3001               	movlw	1
  3527  0779  00AC               	movwf	??___fldiv+4
  3528  077A                     u233_25:
  3529  077A  0D2B               	rlf	??___fldiv+3,w
  3530  077B  0CAB               	rrf	??___fldiv+3,f
  3531  077C  0CAA               	rrf	??___fldiv+2,f
  3532  077D  0CA9               	rrf	??___fldiv+1,f
  3533  077E  0CA8               	rrf	??___fldiv,f
  3534  077F                     u233_20:
  3535  077F  0BAC               	decfsz	??___fldiv+4,f
  3536  0780  2F7A               	goto	u233_25
  3537  0781  082B               	movf	??___fldiv+3,w
  3538  0782  00A7               	movwf	___fldiv@b+3
  3539  0783  082A               	movf	??___fldiv+2,w
  3540  0784  00A6               	movwf	___fldiv@b+2
  3541  0785  0829               	movf	??___fldiv+1,w
  3542  0786  00A5               	movwf	___fldiv@b+1
  3543  0787  0828               	movf	??___fldiv,w
  3544  0788  00A4               	movwf	___fldiv@b
  3545  0789                     i1l1714:
  3546  0789  3001               	movlw	1
  3547  078A  07B2               	addwf	___fldiv@new_exp,f
  3548  078B  1803               	skipnc
  3549  078C  0AB3               	incf	___fldiv@new_exp+1,f
  3550  078D  3000               	movlw	0
  3551  078E  07B3               	addwf	___fldiv@new_exp+1,f
  3552  078F                     i1l1716:
  3553  078F  0833               	movf	___fldiv@new_exp+1,w
  3554  0790  3A80               	xorlw	128
  3555  0791  00FF               	movwf	btemp+1
  3556  0792  3080               	movlw	128
  3557  0793  027F               	subwf	btemp+1,w
  3558  0794  1D03               	skipz
  3559  0795  2F98               	goto	u234_25
  3560  0796  30FF               	movlw	255
  3561  0797  0232               	subwf	___fldiv@new_exp,w
  3562  0798                     u234_25:
  3563  0798  1C03               	skipc
  3564  0799  2F9B               	goto	u234_21
  3565  079A  2F9C               	goto	u234_20
  3566  079B                     u234_21:
  3567  079B  2FAA               	goto	i1l1720
  3568  079C                     u234_20:
  3569  079C                     i1l1718:
  3570  079C  30FF               	movlw	255
  3571  079D  1283               	bcf	3,5	;RP0=0, select bank0
  3572  079E  1303               	bcf	3,6	;RP1=0, select bank0
  3573  079F  00B2               	movwf	___fldiv@new_exp
  3574  07A0  3000               	movlw	0
  3575  07A1  00B3               	movwf	___fldiv@new_exp+1
  3576  07A2  3000               	movlw	0
  3577  07A3  00A7               	movwf	___fldiv@b+3
  3578  07A4  3000               	movlw	0
  3579  07A5  00A6               	movwf	___fldiv@b+2
  3580  07A6  3000               	movlw	0
  3581  07A7  00A5               	movwf	___fldiv@b+1
  3582  07A8  3000               	movlw	0
  3583  07A9  00A4               	movwf	___fldiv@b
  3584  07AA                     i1l1720:
  3585  07AA  1283               	bcf	3,5	;RP0=0, select bank0
  3586  07AB  1303               	bcf	3,6	;RP1=0, select bank0
  3587  07AC  0833               	movf	___fldiv@new_exp+1,w
  3588  07AD  3A80               	xorlw	128
  3589  07AE  00FF               	movwf	btemp+1
  3590  07AF  3080               	movlw	128
  3591  07B0  027F               	subwf	btemp+1,w
  3592  07B1  1D03               	skipz
  3593  07B2  2FB5               	goto	u235_25
  3594  07B3  3001               	movlw	1
  3595  07B4  0232               	subwf	___fldiv@new_exp,w
  3596  07B5                     u235_25:
  3597  07B5  1803               	skipnc
  3598  07B6  2FB8               	goto	u235_21
  3599  07B7  2FB9               	goto	u235_20
  3600  07B8                     u235_21:
  3601  07B8  2FC6               	goto	i1l545
  3602  07B9                     u235_20:
  3603  07B9                     i1l1722:
  3604  07B9  1283               	bcf	3,5	;RP0=0, select bank0
  3605  07BA  1303               	bcf	3,6	;RP1=0, select bank0
  3606  07BB  01B2               	clrf	___fldiv@new_exp
  3607  07BC  01B3               	clrf	___fldiv@new_exp+1
  3608  07BD                     i1l1724:
  3609  07BD  3000               	movlw	0
  3610  07BE  00A7               	movwf	___fldiv@b+3
  3611  07BF  3000               	movlw	0
  3612  07C0  00A6               	movwf	___fldiv@b+2
  3613  07C1  3000               	movlw	0
  3614  07C2  00A5               	movwf	___fldiv@b+1
  3615  07C3  3000               	movlw	0
  3616  07C4  00A4               	movwf	___fldiv@b
  3617  07C5                     i1l1726:
  3618  07C5  01B1               	clrf	___fldiv@sign
  3619  07C6                     i1l545:
  3620  07C6  1283               	bcf	3,5	;RP0=0, select bank0
  3621  07C7  1303               	bcf	3,6	;RP1=0, select bank0
  3622  07C8  0832               	movf	___fldiv@new_exp,w
  3623  07C9  00A8               	movwf	??___fldiv
  3624  07CA  0828               	movf	??___fldiv,w
  3625  07CB  00B8               	movwf	___fldiv@bexp
  3626  07CC                     i1l1728:
  3627  07CC  1C38               	btfss	___fldiv@bexp,0
  3628  07CD  2FCF               	goto	u236_21
  3629  07CE  2FD0               	goto	u236_20
  3630  07CF                     u236_21:
  3631  07CF  2FD2               	goto	i1l1732
  3632  07D0                     u236_20:
  3633  07D0                     i1l1730:
  3634  07D0  17A6               	bsf	___fldiv@b+2,7
  3635  07D1  2FD6               	goto	i1l547
  3636  07D2                     i1l1732:
  3637  07D2  307F               	movlw	127
  3638  07D3  00A8               	movwf	??___fldiv
  3639  07D4  0828               	movf	??___fldiv,w
  3640  07D5  05A6               	andwf	___fldiv@b+2,f
  3641  07D6                     i1l547:
  3642  07D6  0838               	movf	___fldiv@bexp,w
  3643  07D7  00A8               	movwf	??___fldiv
  3644  07D8  1003               	clrc
  3645  07D9  0C28               	rrf	??___fldiv,w
  3646  07DA  00A9               	movwf	??___fldiv+1
  3647  07DB  0829               	movf	??___fldiv+1,w
  3648  07DC  00A7               	movwf	___fldiv@b+3
  3649  07DD  0831               	movf	___fldiv@sign,w
  3650  07DE  00A8               	movwf	??___fldiv
  3651  07DF  0828               	movf	??___fldiv,w
  3652  07E0  04A7               	iorwf	___fldiv@b+3,f
  3653  07E1  2E7A               	goto	i1l1640
  3654  07E2                     i1l525:
  3655  07E2  0008               	return
  3656  07E3                     __end_of___fldiv:
  3657                           
  3658                           	psect	text9
  3659  037E                     __ptext9:	
  3660 ;; *************** function ___fladd *****************
  3661 ;; Defined at:
  3662 ;;		line 10 in file "C:\Program Files\Microchip\xc8\v2.35\pic\sources\c90\common\sprcadd.c"
  3663 ;; Parameters:    Size  Location     Type
  3664 ;;  b               4   52[BANK0 ] unsigned char 
  3665 ;;  a               4   56[BANK0 ] unsigned char 
  3666 ;; Auto vars:     Size  Location     Type
  3667 ;;  grs             1   71[BANK0 ] unsigned char 
  3668 ;;  bexp            1   70[BANK0 ] unsigned char 
  3669 ;;  aexp            1   69[BANK0 ] unsigned char 
  3670 ;;  signs           1   68[BANK0 ] unsigned char 
  3671 ;; Return value:  Size  Location     Type
  3672 ;;                  4   52[BANK0 ] unsigned char 
  3673 ;; Registers used:
  3674 ;;		wreg, status,2, status,0, btemp+1
  3675 ;; Tracked objects:
  3676 ;;		On entry : 0/0
  3677 ;;		On exit  : 0/0
  3678 ;;		Unchanged: 0/0
  3679 ;; Data sizes:     COMMON   BANK0   BANK1   BANK3   BANK2
  3680 ;;      Params:         0       8       0       0       0
  3681 ;;      Locals:         0       4       0       0       0
  3682 ;;      Temps:          0       8       0       0       0
  3683 ;;      Totals:         0      20       0       0       0
  3684 ;;Total ram usage:       20 bytes
  3685 ;; Hardware stack levels used: 1
  3686 ;; This function calls:
  3687 ;;		Nothing
  3688 ;; This function is called by:
  3689 ;;		_map
  3690 ;; This function uses a non-reentrant model
  3691 ;;
  3692                           
  3693  037E                     ___fladd:	
  3694                           ;psect for function ___fladd
  3695                           
  3696  037E                     i1l1402:	
  3697                           ;incstack = 0
  3698                           ; Regs used in ___fladd: [wreg+status,2+status,0+btemp+1]
  3699                           
  3700  037E  1283               	bcf	3,5	;RP0=0, select bank0
  3701  037F  1303               	bcf	3,6	;RP1=0, select bank0
  3702  0380  0857               	movf	___fladd@b+3,w
  3703  0381  3980               	andlw	128
  3704  0382  00DC               	movwf	??___fladd
  3705  0383  085C               	movf	??___fladd,w
  3706  0384  00E4               	movwf	___fladd@signs
  3707  0385                     i1l1404:
  3708  0385  0857               	movf	___fladd@b+3,w
  3709  0386  00DC               	movwf	??___fladd
  3710  0387  075C               	addwf	??___fladd,w
  3711  0388  00DD               	movwf	??___fladd+1
  3712  0389  085D               	movf	??___fladd+1,w
  3713  038A  00E6               	movwf	___fladd@bexp
  3714  038B                     i1l1406:
  3715  038B  1FD6               	btfss	___fladd@b+2,7
  3716  038C  2B8E               	goto	u162_21
  3717  038D  2B8F               	goto	u162_20
  3718  038E                     u162_21:
  3719  038E  2B90               	goto	i1l1410
  3720  038F                     u162_20:
  3721  038F                     i1l1408:
  3722  038F  1466               	bsf	___fladd@bexp,0
  3723  0390                     i1l1410:
  3724  0390  0866               	movf	___fladd@bexp,w
  3725  0391  1903               	btfsc	3,2
  3726  0392  2B94               	goto	u163_21
  3727  0393  2B95               	goto	u163_20
  3728  0394                     u163_21:
  3729  0394  2BA5               	goto	i1l1420
  3730  0395                     u163_20:
  3731  0395                     i1l1412:
  3732  0395  0A66               	incf	___fladd@bexp,w
  3733  0396  1D03               	btfss	3,2
  3734  0397  2B99               	goto	u164_21
  3735  0398  2B9A               	goto	u164_20
  3736  0399                     u164_21:
  3737  0399  2BA2               	goto	i1l1416
  3738  039A                     u164_20:
  3739  039A                     i1l1414:
  3740  039A  3000               	movlw	0
  3741  039B  00D7               	movwf	___fladd@b+3
  3742  039C  3000               	movlw	0
  3743  039D  00D6               	movwf	___fladd@b+2
  3744  039E  3000               	movlw	0
  3745  039F  00D5               	movwf	___fladd@b+1
  3746  03A0  3000               	movlw	0
  3747  03A1  00D4               	movwf	___fladd@b
  3748  03A2                     i1l1416:
  3749  03A2  17D6               	bsf	___fladd@b+2,7
  3750  03A3                     i1l1418:
  3751  03A3  01D7               	clrf	___fladd@b+3
  3752  03A4  2BAD               	goto	i1l1422
  3753  03A5                     i1l1420:
  3754  03A5  3000               	movlw	0
  3755  03A6  00D7               	movwf	___fladd@b+3
  3756  03A7  3000               	movlw	0
  3757  03A8  00D6               	movwf	___fladd@b+2
  3758  03A9  3000               	movlw	0
  3759  03AA  00D5               	movwf	___fladd@b+1
  3760  03AB  3000               	movlw	0
  3761  03AC  00D4               	movwf	___fladd@b
  3762  03AD                     i1l1422:
  3763  03AD  085B               	movf	___fladd@a+3,w
  3764  03AE  3980               	andlw	128
  3765  03AF  00DC               	movwf	??___fladd
  3766  03B0  085C               	movf	??___fladd,w
  3767  03B1  00E5               	movwf	___fladd@aexp
  3768  03B2                     i1l1424:
  3769  03B2  0865               	movf	___fladd@aexp,w
  3770  03B3  0664               	xorwf	___fladd@signs,w
  3771  03B4  1903               	skipnz
  3772  03B5  2BB7               	goto	u165_21
  3773  03B6  2BB8               	goto	u165_20
  3774  03B7                     u165_21:
  3775  03B7  2BB9               	goto	i1l1428
  3776  03B8                     u165_20:
  3777  03B8                     i1l1426:
  3778  03B8  1764               	bsf	___fladd@signs,6
  3779  03B9                     i1l1428:
  3780  03B9  085B               	movf	___fladd@a+3,w
  3781  03BA  00DC               	movwf	??___fladd
  3782  03BB  075C               	addwf	??___fladd,w
  3783  03BC  00DD               	movwf	??___fladd+1
  3784  03BD  085D               	movf	??___fladd+1,w
  3785  03BE  00E5               	movwf	___fladd@aexp
  3786  03BF                     i1l1430:
  3787  03BF  1FDA               	btfss	___fladd@a+2,7
  3788  03C0  2BC2               	goto	u166_21
  3789  03C1  2BC3               	goto	u166_20
  3790  03C2                     u166_21:
  3791  03C2  2BC4               	goto	i1l1434
  3792  03C3                     u166_20:
  3793  03C3                     i1l1432:
  3794  03C3  1465               	bsf	___fladd@aexp,0
  3795  03C4                     i1l1434:
  3796  03C4  0865               	movf	___fladd@aexp,w
  3797  03C5  1903               	btfsc	3,2
  3798  03C6  2BC8               	goto	u167_21
  3799  03C7  2BC9               	goto	u167_20
  3800  03C8                     u167_21:
  3801  03C8  2BD9               	goto	i1l1444
  3802  03C9                     u167_20:
  3803  03C9                     i1l1436:
  3804  03C9  0A65               	incf	___fladd@aexp,w
  3805  03CA  1D03               	btfss	3,2
  3806  03CB  2BCD               	goto	u168_21
  3807  03CC  2BCE               	goto	u168_20
  3808  03CD                     u168_21:
  3809  03CD  2BD6               	goto	i1l1440
  3810  03CE                     u168_20:
  3811  03CE                     i1l1438:
  3812  03CE  3000               	movlw	0
  3813  03CF  00DB               	movwf	___fladd@a+3
  3814  03D0  3000               	movlw	0
  3815  03D1  00DA               	movwf	___fladd@a+2
  3816  03D2  3000               	movlw	0
  3817  03D3  00D9               	movwf	___fladd@a+1
  3818  03D4  3000               	movlw	0
  3819  03D5  00D8               	movwf	___fladd@a
  3820  03D6                     i1l1440:
  3821  03D6  17DA               	bsf	___fladd@a+2,7
  3822  03D7                     i1l1442:
  3823  03D7  01DB               	clrf	___fladd@a+3
  3824  03D8  2BE1               	goto	i1l467
  3825  03D9                     i1l1444:
  3826  03D9  3000               	movlw	0
  3827  03DA  00DB               	movwf	___fladd@a+3
  3828  03DB  3000               	movlw	0
  3829  03DC  00DA               	movwf	___fladd@a+2
  3830  03DD  3000               	movlw	0
  3831  03DE  00D9               	movwf	___fladd@a+1
  3832  03DF  3000               	movlw	0
  3833  03E0  00D8               	movwf	___fladd@a
  3834  03E1                     i1l467:
  3835  03E1  0866               	movf	___fladd@bexp,w
  3836  03E2  0265               	subwf	___fladd@aexp,w
  3837  03E3  1803               	skipnc
  3838  03E4  2BE6               	goto	u169_21
  3839  03E5  2BE7               	goto	u169_20
  3840  03E6                     u169_21:
  3841  03E6  2C2B               	goto	i1l1480
  3842  03E7                     u169_20:
  3843  03E7                     i1l1446:
  3844  03E7  1F64               	btfss	___fladd@signs,6
  3845  03E8  2BEA               	goto	u170_21
  3846  03E9  2BEB               	goto	u170_20
  3847  03EA                     u170_21:
  3848  03EA  2BEF               	goto	i1l1450
  3849  03EB                     u170_20:
  3850  03EB                     i1l1448:
  3851  03EB  3080               	movlw	128
  3852  03EC  00DC               	movwf	??___fladd
  3853  03ED  085C               	movf	??___fladd,w
  3854  03EE  06E4               	xorwf	___fladd@signs,f
  3855  03EF                     i1l1450:
  3856  03EF  0866               	movf	___fladd@bexp,w
  3857  03F0  00DC               	movwf	??___fladd
  3858  03F1  085C               	movf	??___fladd,w
  3859  03F2  00E7               	movwf	___fladd@grs
  3860  03F3                     i1l1452:
  3861  03F3  0865               	movf	___fladd@aexp,w
  3862  03F4  00DC               	movwf	??___fladd
  3863  03F5  085C               	movf	??___fladd,w
  3864  03F6  00E6               	movwf	___fladd@bexp
  3865  03F7                     i1l1454:
  3866  03F7  0867               	movf	___fladd@grs,w
  3867  03F8  00DC               	movwf	??___fladd
  3868  03F9  085C               	movf	??___fladd,w
  3869  03FA  00E5               	movwf	___fladd@aexp
  3870  03FB                     i1l1456:
  3871  03FB  0854               	movf	___fladd@b,w
  3872  03FC  00DC               	movwf	??___fladd
  3873  03FD  085C               	movf	??___fladd,w
  3874  03FE  00E7               	movwf	___fladd@grs
  3875  03FF                     i1l1458:
  3876  03FF  0858               	movf	___fladd@a,w
  3877  0400  00DC               	movwf	??___fladd
  3878  0401  085C               	movf	??___fladd,w
  3879  0402  00D4               	movwf	___fladd@b
  3880  0403                     i1l1460:
  3881  0403  0867               	movf	___fladd@grs,w
  3882  0404  00DC               	movwf	??___fladd
  3883  0405  085C               	movf	??___fladd,w
  3884  0406  00D8               	movwf	___fladd@a
  3885  0407                     i1l1462:
  3886  0407  0855               	movf	___fladd@b+1,w
  3887  0408  00DC               	movwf	??___fladd
  3888  0409  085C               	movf	??___fladd,w
  3889  040A  00E7               	movwf	___fladd@grs
  3890  040B                     i1l1464:
  3891  040B  0859               	movf	___fladd@a+1,w
  3892  040C  00DC               	movwf	??___fladd
  3893  040D  085C               	movf	??___fladd,w
  3894  040E  00D5               	movwf	___fladd@b+1
  3895  040F                     i1l1466:
  3896  040F  0867               	movf	___fladd@grs,w
  3897  0410  00DC               	movwf	??___fladd
  3898  0411  085C               	movf	??___fladd,w
  3899  0412  00D9               	movwf	___fladd@a+1
  3900  0413                     i1l1468:
  3901  0413  0856               	movf	___fladd@b+2,w
  3902  0414  00DC               	movwf	??___fladd
  3903  0415  085C               	movf	??___fladd,w
  3904  0416  00E7               	movwf	___fladd@grs
  3905  0417                     i1l1470:
  3906  0417  085A               	movf	___fladd@a+2,w
  3907  0418  00DC               	movwf	??___fladd
  3908  0419  085C               	movf	??___fladd,w
  3909  041A  00D6               	movwf	___fladd@b+2
  3910  041B                     i1l1472:
  3911  041B  0867               	movf	___fladd@grs,w
  3912  041C  00DC               	movwf	??___fladd
  3913  041D  085C               	movf	??___fladd,w
  3914  041E  00DA               	movwf	___fladd@a+2
  3915  041F                     i1l1474:
  3916  041F  0857               	movf	___fladd@b+3,w
  3917  0420  00DC               	movwf	??___fladd
  3918  0421  085C               	movf	??___fladd,w
  3919  0422  00E7               	movwf	___fladd@grs
  3920  0423                     i1l1476:
  3921  0423  085B               	movf	___fladd@a+3,w
  3922  0424  00DC               	movwf	??___fladd
  3923  0425  085C               	movf	??___fladd,w
  3924  0426  00D7               	movwf	___fladd@b+3
  3925  0427                     i1l1478:
  3926  0427  0867               	movf	___fladd@grs,w
  3927  0428  00DC               	movwf	??___fladd
  3928  0429  085C               	movf	??___fladd,w
  3929  042A  00DB               	movwf	___fladd@a+3
  3930  042B                     i1l1480:
  3931  042B  01E7               	clrf	___fladd@grs
  3932  042C                     i1l1482:
  3933  042C  0865               	movf	___fladd@aexp,w
  3934  042D  00DC               	movwf	??___fladd
  3935  042E  01DD               	clrf	??___fladd+1
  3936  042F  085D               	movf	??___fladd+1,w
  3937  0430  00DF               	movwf	??___fladd+3
  3938  0431  0866               	movf	___fladd@bexp,w
  3939  0432  025C               	subwf	??___fladd,w
  3940  0433  00DE               	movwf	??___fladd+2
  3941  0434  1C03               	skipc
  3942  0435  03DF               	decf	??___fladd+3,f
  3943  0436  085F               	movf	??___fladd+3,w
  3944  0437  3A80               	xorlw	128
  3945  0438  00FF               	movwf	btemp+1
  3946  0439  3080               	movlw	128
  3947  043A  027F               	subwf	btemp+1,w
  3948  043B  1D03               	skipz
  3949  043C  2C3F               	goto	u171_25
  3950  043D  301A               	movlw	26
  3951  043E  025E               	subwf	??___fladd+2,w
  3952  043F                     u171_25:
  3953  043F  1C03               	skipc
  3954  0440  2C42               	goto	u171_21
  3955  0441  2C43               	goto	u171_20
  3956  0442                     u171_21:
  3957  0442  2C80               	goto	i1l1498
  3958  0443                     u171_20:
  3959  0443                     i1l1484:
  3960  0443  1283               	bcf	3,5	;RP0=0, select bank0
  3961  0444  1303               	bcf	3,6	;RP1=0, select bank0
  3962  0445  0857               	movf	___fladd@b+3,w
  3963  0446  0456               	iorwf	___fladd@b+2,w
  3964  0447  0455               	iorwf	___fladd@b+1,w
  3965  0448  0454               	iorwf	___fladd@b,w
  3966  0449  1D03               	skipz
  3967  044A  2C4C               	goto	u172_21
  3968  044B  2C4E               	goto	u172_20
  3969  044C                     u172_21:
  3970  044C  3001               	movlw	1
  3971  044D  2C4F               	goto	u173_20
  3972  044E                     u172_20:
  3973  044E  3000               	movlw	0
  3974  044F                     u173_20:
  3975  044F  00DC               	movwf	??___fladd
  3976  0450  085C               	movf	??___fladd,w
  3977  0451  00E7               	movwf	___fladd@grs
  3978  0452  3000               	movlw	0
  3979  0453  00D7               	movwf	___fladd@b+3
  3980  0454  3000               	movlw	0
  3981  0455  00D6               	movwf	___fladd@b+2
  3982  0456  3000               	movlw	0
  3983  0457  00D5               	movwf	___fladd@b+1
  3984  0458  3000               	movlw	0
  3985  0459  00D4               	movwf	___fladd@b
  3986  045A  0865               	movf	___fladd@aexp,w
  3987  045B  00DC               	movwf	??___fladd
  3988  045C  085C               	movf	??___fladd,w
  3989  045D  00E6               	movwf	___fladd@bexp
  3990  045E  2C88               	goto	i1l471
  3991  045F                     i1l473:
  3992  045F  1C67               	btfss	___fladd@grs,0
  3993  0460  2C62               	goto	u174_21
  3994  0461  2C63               	goto	u174_20
  3995  0462                     u174_21:
  3996  0462  2C6C               	goto	i1l1488
  3997  0463                     u174_20:
  3998  0463                     i1l1486:
  3999  0463  0867               	movf	___fladd@grs,w
  4000  0464  00DC               	movwf	??___fladd
  4001  0465  1003               	clrc
  4002  0466  0C5C               	rrf	??___fladd,w
  4003  0467  3801               	iorlw	1
  4004  0468  00DD               	movwf	??___fladd+1
  4005  0469  085D               	movf	??___fladd+1,w
  4006  046A  00E7               	movwf	___fladd@grs
  4007  046B  2C6E               	goto	i1l1490
  4008  046C                     i1l1488:
  4009  046C  1003               	clrc
  4010  046D  0CE7               	rrf	___fladd@grs,f
  4011  046E                     i1l1490:
  4012  046E  1C54               	btfss	___fladd@b,0
  4013  046F  2C71               	goto	u175_21
  4014  0470  2C72               	goto	u175_20
  4015  0471                     u175_21:
  4016  0471  2C73               	goto	i1l1494
  4017  0472                     u175_20:
  4018  0472                     i1l1492:
  4019  0472  17E7               	bsf	___fladd@grs,7
  4020  0473                     i1l1494:
  4021  0473  3001               	movlw	1
  4022  0474  00DC               	movwf	??___fladd
  4023  0475                     u176_25:
  4024  0475  0D57               	rlf	___fladd@b+3,w
  4025  0476  0CD7               	rrf	___fladd@b+3,f
  4026  0477  0CD6               	rrf	___fladd@b+2,f
  4027  0478  0CD5               	rrf	___fladd@b+1,f
  4028  0479  0CD4               	rrf	___fladd@b,f
  4029  047A  0BDC               	decfsz	??___fladd& (0+127),f
  4030  047B  2C75               	goto	u176_25
  4031  047C                     i1l1496:
  4032  047C  3001               	movlw	1
  4033  047D  00DC               	movwf	??___fladd
  4034  047E  085C               	movf	??___fladd,w
  4035  047F  07E6               	addwf	___fladd@bexp,f
  4036  0480                     i1l1498:
  4037  0480  1283               	bcf	3,5	;RP0=0, select bank0
  4038  0481  1303               	bcf	3,6	;RP1=0, select bank0
  4039  0482  0865               	movf	___fladd@aexp,w
  4040  0483  0266               	subwf	___fladd@bexp,w
  4041  0484  1C03               	skipc
  4042  0485  2C87               	goto	u177_21
  4043  0486  2C88               	goto	u177_20
  4044  0487                     u177_21:
  4045  0487  2C5F               	goto	i1l473
  4046  0488                     u177_20:
  4047  0488                     i1l471:
  4048  0488  1B64               	btfsc	___fladd@signs,6
  4049  0489  2C8B               	goto	u178_21
  4050  048A  2C8C               	goto	u178_20
  4051  048B                     u178_21:
  4052  048B  2CD7               	goto	i1l1524
  4053  048C                     u178_20:
  4054  048C                     i1l1500:
  4055  048C  0866               	movf	___fladd@bexp,w
  4056  048D  1D03               	btfss	3,2
  4057  048E  2C90               	goto	u179_21
  4058  048F  2C91               	goto	u179_20
  4059  0490                     u179_21:
  4060  0490  2C9A               	goto	i1l1506
  4061  0491                     u179_20:
  4062  0491                     i1l1502:
  4063  0491  3000               	movlw	0
  4064  0492  00D7               	movwf	?___fladd+3
  4065  0493  3000               	movlw	0
  4066  0494  00D6               	movwf	?___fladd+2
  4067  0495  3000               	movlw	0
  4068  0496  00D5               	movwf	?___fladd+1
  4069  0497  3000               	movlw	0
  4070  0498  00D4               	movwf	?___fladd
  4071  0499  2E05               	goto	i1l480
  4072  049A                     i1l1506:
  4073  049A  0858               	movf	___fladd@a,w
  4074  049B  07D4               	addwf	___fladd@b,f
  4075  049C  0859               	movf	___fladd@a+1,w
  4076  049D  1103               	clrz
  4077  049E  1803               	skipnc
  4078  049F  3E01               	addlw	1
  4079  04A0  1903               	skipnz
  4080  04A1  2CA3               	goto	u180_21
  4081  04A2  07D5               	addwf	___fladd@b+1,f
  4082  04A3                     u180_21:
  4083  04A3  085A               	movf	___fladd@a+2,w
  4084  04A4  1103               	clrz
  4085  04A5  1803               	skipnc
  4086  04A6  3E01               	addlw	1
  4087  04A7  1903               	skipnz
  4088  04A8  2CAA               	goto	u180_22
  4089  04A9  07D6               	addwf	___fladd@b+2,f
  4090  04AA                     u180_22:
  4091  04AA  085B               	movf	___fladd@a+3,w
  4092  04AB  1103               	clrz
  4093  04AC  1803               	skipnc
  4094  04AD  3E01               	addlw	1
  4095  04AE  1903               	skipnz
  4096  04AF  2CB1               	goto	u180_23
  4097  04B0  07D7               	addwf	___fladd@b+3,f
  4098  04B1                     u180_23:
  4099  04B1                     i1l1508:
  4100  04B1  1C57               	btfss	___fladd@b+3,0
  4101  04B2  2CB4               	goto	u181_21
  4102  04B3  2CB5               	goto	u181_20
  4103  04B4                     u181_21:
  4104  04B4  2D8B               	goto	i1l1558
  4105  04B5                     u181_20:
  4106  04B5                     i1l1510:
  4107  04B5  1C67               	btfss	___fladd@grs,0
  4108  04B6  2CB8               	goto	u182_21
  4109  04B7  2CB9               	goto	u182_20
  4110  04B8                     u182_21:
  4111  04B8  2CC2               	goto	i1l1514
  4112  04B9                     u182_20:
  4113  04B9                     i1l1512:
  4114  04B9  0867               	movf	___fladd@grs,w
  4115  04BA  00DC               	movwf	??___fladd
  4116  04BB  1003               	clrc
  4117  04BC  0C5C               	rrf	??___fladd,w
  4118  04BD  3801               	iorlw	1
  4119  04BE  00DD               	movwf	??___fladd+1
  4120  04BF  085D               	movf	??___fladd+1,w
  4121  04C0  00E7               	movwf	___fladd@grs
  4122  04C1  2CC4               	goto	i1l1516
  4123  04C2                     i1l1514:
  4124  04C2  1003               	clrc
  4125  04C3  0CE7               	rrf	___fladd@grs,f
  4126  04C4                     i1l1516:
  4127  04C4  1C54               	btfss	___fladd@b,0
  4128  04C5  2CC7               	goto	u183_21
  4129  04C6  2CC8               	goto	u183_20
  4130  04C7                     u183_21:
  4131  04C7  2CC9               	goto	i1l1520
  4132  04C8                     u183_20:
  4133  04C8                     i1l1518:
  4134  04C8  17E7               	bsf	___fladd@grs,7
  4135  04C9                     i1l1520:
  4136  04C9  3001               	movlw	1
  4137  04CA  00DC               	movwf	??___fladd
  4138  04CB                     u184_25:
  4139  04CB  0D57               	rlf	___fladd@b+3,w
  4140  04CC  0CD7               	rrf	___fladd@b+3,f
  4141  04CD  0CD6               	rrf	___fladd@b+2,f
  4142  04CE  0CD5               	rrf	___fladd@b+1,f
  4143  04CF  0CD4               	rrf	___fladd@b,f
  4144  04D0  0BDC               	decfsz	??___fladd& (0+127),f
  4145  04D1  2CCB               	goto	u184_25
  4146  04D2                     i1l1522:
  4147  04D2  3001               	movlw	1
  4148  04D3  00DC               	movwf	??___fladd
  4149  04D4  085C               	movf	??___fladd,w
  4150  04D5  07E6               	addwf	___fladd@bexp,f
  4151  04D6  2D8B               	goto	i1l1558
  4152  04D7                     i1l1524:
  4153  04D7  0857               	movf	___fladd@b+3,w
  4154  04D8  3A80               	xorlw	128
  4155  04D9  00FF               	movwf	btemp+1
  4156  04DA  085B               	movf	___fladd@a+3,w
  4157  04DB  3A80               	xorlw	128
  4158  04DC  027F               	subwf	btemp+1,w
  4159  04DD  1D03               	skipz
  4160  04DE  2CE9               	goto	u185_23
  4161  04DF  085A               	movf	___fladd@a+2,w
  4162  04E0  0256               	subwf	___fladd@b+2,w
  4163  04E1  1D03               	skipz
  4164  04E2  2CE9               	goto	u185_23
  4165  04E3  0859               	movf	___fladd@a+1,w
  4166  04E4  0255               	subwf	___fladd@b+1,w
  4167  04E5  1D03               	skipz
  4168  04E6  2CE9               	goto	u185_23
  4169  04E7  0858               	movf	___fladd@a,w
  4170  04E8  0254               	subwf	___fladd@b,w
  4171  04E9                     u185_23:
  4172  04E9  1803               	skipnc
  4173  04EA  2CEC               	goto	u185_21
  4174  04EB  2CED               	goto	u185_20
  4175  04EC                     u185_21:
  4176  04EC  2D45               	goto	i1l1534
  4177  04ED                     u185_20:
  4178  04ED                     i1l1526:
  4179  04ED  30FF               	movlw	255
  4180  04EE  00DC               	movwf	??___fladd
  4181  04EF  30FF               	movlw	255
  4182  04F0  00DD               	movwf	??___fladd+1
  4183  04F1  30FF               	movlw	255
  4184  04F2  00DE               	movwf	??___fladd+2
  4185  04F3  30FF               	movlw	255
  4186  04F4  00DF               	movwf	??___fladd+3
  4187  04F5  0858               	movf	___fladd@a,w
  4188  04F6  00E0               	movwf	??___fladd+4
  4189  04F7  0859               	movf	___fladd@a+1,w
  4190  04F8  00E1               	movwf	??___fladd+5
  4191  04F9  085A               	movf	___fladd@a+2,w
  4192  04FA  00E2               	movwf	??___fladd+6
  4193  04FB  085B               	movf	___fladd@a+3,w
  4194  04FC  00E3               	movwf	??___fladd+7
  4195  04FD  0854               	movf	___fladd@b,w
  4196  04FE  02E0               	subwf	??___fladd+4,f
  4197  04FF  0855               	movf	___fladd@b+1,w
  4198  0500  1C03               	skipc
  4199  0501  0F55               	incfsz	___fladd@b+1,w
  4200  0502  2D04               	goto	u186_21
  4201  0503  2D05               	goto	u186_22
  4202  0504                     u186_21:
  4203  0504  02E1               	subwf	??___fladd+5,f
  4204  0505                     u186_22:
  4205  0505  0856               	movf	___fladd@b+2,w
  4206  0506  1C03               	skipc
  4207  0507  0F56               	incfsz	___fladd@b+2,w
  4208  0508  2D0A               	goto	u186_23
  4209  0509  2D0B               	goto	u186_24
  4210  050A                     u186_23:
  4211  050A  02E2               	subwf	??___fladd+6,f
  4212  050B                     u186_24:
  4213  050B  0857               	movf	___fladd@b+3,w
  4214  050C  1C03               	skipc
  4215  050D  0F57               	incfsz	___fladd@b+3,w
  4216  050E  2D10               	goto	u186_25
  4217  050F  2D11               	goto	u186_26
  4218  0510                     u186_25:
  4219  0510  02E3               	subwf	??___fladd+7,f
  4220  0511                     u186_26:
  4221  0511  0860               	movf	??___fladd+4,w
  4222  0512  07DC               	addwf	??___fladd,f
  4223  0513  0861               	movf	??___fladd+5,w
  4224  0514  1803               	skipnc
  4225  0515  0F61               	incfsz	??___fladd+5,w
  4226  0516  2D18               	goto	u187_20
  4227  0517  2D19               	goto	u187_21
  4228  0518                     u187_20:
  4229  0518  07DD               	addwf	??___fladd+1,f
  4230  0519                     u187_21:
  4231  0519  0862               	movf	??___fladd+6,w
  4232  051A  1803               	skipnc
  4233  051B  0F62               	incfsz	??___fladd+6,w
  4234  051C  2D1E               	goto	u187_22
  4235  051D  2D1F               	goto	u187_23
  4236  051E                     u187_22:
  4237  051E  07DE               	addwf	??___fladd+2,f
  4238  051F                     u187_23:
  4239  051F  0863               	movf	??___fladd+7,w
  4240  0520  1803               	skipnc
  4241  0521  0A63               	incf	??___fladd+7,w
  4242  0522  07DF               	addwf	??___fladd+3,f
  4243  0523  085F               	movf	??___fladd+3,w
  4244  0524  00D7               	movwf	___fladd@b+3
  4245  0525  085E               	movf	??___fladd+2,w
  4246  0526  00D6               	movwf	___fladd@b+2
  4247  0527  085D               	movf	??___fladd+1,w
  4248  0528  00D5               	movwf	___fladd@b+1
  4249  0529  085C               	movf	??___fladd,w
  4250  052A  00D4               	movwf	___fladd@b
  4251  052B                     i1l1528:
  4252  052B  3080               	movlw	128
  4253  052C  00DC               	movwf	??___fladd
  4254  052D  085C               	movf	??___fladd,w
  4255  052E  06E4               	xorwf	___fladd@signs,f
  4256  052F  09E7               	comf	___fladd@grs,f
  4257  0530  0AE7               	incf	___fladd@grs,f
  4258  0531                     i1l1530:
  4259  0531  0867               	movf	___fladd@grs,w
  4260  0532  1D03               	btfss	3,2
  4261  0533  2D35               	goto	u188_21
  4262  0534  2D36               	goto	u188_20
  4263  0535                     u188_21:
  4264  0535  2D53               	goto	i1l488
  4265  0536                     u188_20:
  4266  0536                     i1l1532:
  4267  0536  3001               	movlw	1
  4268  0537  07D4               	addwf	___fladd@b,f
  4269  0538  3000               	movlw	0
  4270  0539  1803               	skipnc
  4271  053A  3001               	movlw	1
  4272  053B  07D5               	addwf	___fladd@b+1,f
  4273  053C  3000               	movlw	0
  4274  053D  1803               	skipnc
  4275  053E  3001               	movlw	1
  4276  053F  07D6               	addwf	___fladd@b+2,f
  4277  0540  3000               	movlw	0
  4278  0541  1803               	skipnc
  4279  0542  3001               	movlw	1
  4280  0543  07D7               	addwf	___fladd@b+3,f
  4281  0544  2D53               	goto	i1l488
  4282  0545                     i1l1534:
  4283  0545  0858               	movf	___fladd@a,w
  4284  0546  02D4               	subwf	___fladd@b,f
  4285  0547  0859               	movf	___fladd@a+1,w
  4286  0548  1C03               	skipc
  4287  0549  0F59               	incfsz	___fladd@a+1,w
  4288  054A  02D5               	subwf	___fladd@b+1,f
  4289  054B  085A               	movf	___fladd@a+2,w
  4290  054C  1C03               	skipc
  4291  054D  0F5A               	incfsz	___fladd@a+2,w
  4292  054E  02D6               	subwf	___fladd@b+2,f
  4293  054F  085B               	movf	___fladd@a+3,w
  4294  0550  1C03               	skipc
  4295  0551  0F5B               	incfsz	___fladd@a+3,w
  4296  0552  02D7               	subwf	___fladd@b+3,f
  4297  0553                     i1l488:
  4298  0553  0857               	movf	___fladd@b+3,w
  4299  0554  0456               	iorwf	___fladd@b+2,w
  4300  0555  0455               	iorwf	___fladd@b+1,w
  4301  0556  0454               	iorwf	___fladd@b,w
  4302  0557  1D03               	skipz
  4303  0558  2D5A               	goto	u189_21
  4304  0559  2D5B               	goto	u189_20
  4305  055A                     u189_21:
  4306  055A  2D87               	goto	i1l1556
  4307  055B                     u189_20:
  4308  055B                     i1l1536:
  4309  055B  0867               	movf	___fladd@grs,w
  4310  055C  1D03               	btfss	3,2
  4311  055D  2D5F               	goto	u190_21
  4312  055E  2D60               	goto	u190_20
  4313  055F                     u190_21:
  4314  055F  2D87               	goto	i1l1556
  4315  0560                     u190_20:
  4316  0560                     i1l1538:
  4317  0560  3000               	movlw	0
  4318  0561  00D7               	movwf	?___fladd+3
  4319  0562  3000               	movlw	0
  4320  0563  00D6               	movwf	?___fladd+2
  4321  0564  3000               	movlw	0
  4322  0565  00D5               	movwf	?___fladd+1
  4323  0566  3000               	movlw	0
  4324  0567  00D4               	movwf	?___fladd
  4325  0568  2E05               	goto	i1l480
  4326  0569                     i1l1542:
  4327  0569  3001               	movlw	1
  4328  056A  00DC               	movwf	??___fladd
  4329  056B                     u191_25:
  4330  056B  1003               	clrc
  4331  056C  0DD4               	rlf	___fladd@b,f
  4332  056D  0DD5               	rlf	___fladd@b+1,f
  4333  056E  0DD6               	rlf	___fladd@b+2,f
  4334  056F  0DD7               	rlf	___fladd@b+3,f
  4335  0570  0BDC               	decfsz	??___fladd,f
  4336  0571  2D6B               	goto	u191_25
  4337  0572                     i1l1544:
  4338  0572  1FE7               	btfss	___fladd@grs,7
  4339  0573  2D75               	goto	u192_21
  4340  0574  2D76               	goto	u192_20
  4341  0575                     u192_21:
  4342  0575  2D77               	goto	i1l492
  4343  0576                     u192_20:
  4344  0576                     i1l1546:
  4345  0576  1454               	bsf	___fladd@b,0
  4346  0577                     i1l492:
  4347  0577  1C67               	btfss	___fladd@grs,0
  4348  0578  2D7A               	goto	u193_21
  4349  0579  2D7B               	goto	u193_20
  4350  057A                     u193_21:
  4351  057A  2D7E               	goto	i1l1550
  4352  057B                     u193_20:
  4353  057B                     i1l1548:
  4354  057B  1403               	setc
  4355  057C  0DE7               	rlf	___fladd@grs,f
  4356  057D  2D80               	goto	i1l1552
  4357  057E                     i1l1550:
  4358  057E  1003               	clrc
  4359  057F  0DE7               	rlf	___fladd@grs,f
  4360  0580                     i1l1552:
  4361  0580  0866               	movf	___fladd@bexp,w
  4362  0581  1903               	btfsc	3,2
  4363  0582  2D84               	goto	u194_21
  4364  0583  2D85               	goto	u194_20
  4365  0584                     u194_21:
  4366  0584  2D87               	goto	i1l1556
  4367  0585                     u194_20:
  4368  0585                     i1l1554:
  4369  0585  3001               	movlw	1
  4370  0586  02E6               	subwf	___fladd@bexp,f
  4371  0587                     i1l1556:
  4372  0587  1FD6               	btfss	___fladd@b+2,7
  4373  0588  2D8A               	goto	u195_21
  4374  0589  2D8B               	goto	u195_20
  4375  058A                     u195_21:
  4376  058A  2D69               	goto	i1l1542
  4377  058B                     u195_20:
  4378  058B                     i1l1558:
  4379  058B  01E5               	clrf	___fladd@aexp
  4380  058C                     i1l1560:
  4381  058C  1FE7               	btfss	___fladd@grs,7
  4382  058D  2D8F               	goto	u196_21
  4383  058E  2D90               	goto	u196_20
  4384  058F                     u196_21:
  4385  058F  2D9E               	goto	i1l1568
  4386  0590                     u196_20:
  4387  0590                     i1l1562:
  4388  0590  0867               	movf	___fladd@grs,w
  4389  0591  397F               	andlw	127
  4390  0592  1903               	btfsc	3,2
  4391  0593  2D95               	goto	u197_21
  4392  0594  2D96               	goto	u197_20
  4393  0595                     u197_21:
  4394  0595  2D99               	goto	i1l498
  4395  0596                     u197_20:
  4396  0596                     i1l1564:
  4397  0596  01E5               	clrf	___fladd@aexp
  4398  0597  0AE5               	incf	___fladd@aexp,f
  4399  0598  2D9E               	goto	i1l1568
  4400  0599                     i1l498:
  4401  0599  1C54               	btfss	___fladd@b,0
  4402  059A  2D9C               	goto	u198_21
  4403  059B  2D9D               	goto	u198_20
  4404  059C                     u198_21:
  4405  059C  2D9E               	goto	i1l1568
  4406  059D                     u198_20:
  4407  059D  2D96               	goto	i1l1564
  4408  059E                     i1l1568:
  4409  059E  0865               	movf	___fladd@aexp,w
  4410  059F  1903               	btfsc	3,2
  4411  05A0  2DA2               	goto	u199_21
  4412  05A1  2DA3               	goto	u199_20
  4413  05A2                     u199_21:
  4414  05A2  2DD7               	goto	i1l501
  4415  05A3                     u199_20:
  4416  05A3                     i1l1570:
  4417  05A3  3001               	movlw	1
  4418  05A4  07D4               	addwf	___fladd@b,f
  4419  05A5  3000               	movlw	0
  4420  05A6  1803               	skipnc
  4421  05A7  3001               	movlw	1
  4422  05A8  07D5               	addwf	___fladd@b+1,f
  4423  05A9  3000               	movlw	0
  4424  05AA  1803               	skipnc
  4425  05AB  3001               	movlw	1
  4426  05AC  07D6               	addwf	___fladd@b+2,f
  4427  05AD  3000               	movlw	0
  4428  05AE  1803               	skipnc
  4429  05AF  3001               	movlw	1
  4430  05B0  07D7               	addwf	___fladd@b+3,f
  4431  05B1                     i1l1572:
  4432  05B1  1C57               	btfss	___fladd@b+3,0
  4433  05B2  2DB4               	goto	u200_21
  4434  05B3  2DB5               	goto	u200_20
  4435  05B4                     u200_21:
  4436  05B4  2DD7               	goto	i1l501
  4437  05B5                     u200_20:
  4438  05B5                     i1l1574:
  4439  05B5  0854               	movf	___fladd@b,w
  4440  05B6  00DC               	movwf	??___fladd
  4441  05B7  0855               	movf	___fladd@b+1,w
  4442  05B8  00DD               	movwf	??___fladd+1
  4443  05B9  0856               	movf	___fladd@b+2,w
  4444  05BA  00DE               	movwf	??___fladd+2
  4445  05BB  0857               	movf	___fladd@b+3,w
  4446  05BC  00DF               	movwf	??___fladd+3
  4447  05BD  3001               	movlw	1
  4448  05BE  00E0               	movwf	??___fladd+4
  4449  05BF                     u201_25:
  4450  05BF  0D5F               	rlf	??___fladd+3,w
  4451  05C0  0CDF               	rrf	??___fladd+3,f
  4452  05C1  0CDE               	rrf	??___fladd+2,f
  4453  05C2  0CDD               	rrf	??___fladd+1,f
  4454  05C3  0CDC               	rrf	??___fladd,f
  4455  05C4                     u201_20:
  4456  05C4  0BE0               	decfsz	??___fladd+4,f
  4457  05C5  2DBF               	goto	u201_25
  4458  05C6  085F               	movf	??___fladd+3,w
  4459  05C7  00D7               	movwf	___fladd@b+3
  4460  05C8  085E               	movf	??___fladd+2,w
  4461  05C9  00D6               	movwf	___fladd@b+2
  4462  05CA  085D               	movf	??___fladd+1,w
  4463  05CB  00D5               	movwf	___fladd@b+1
  4464  05CC  085C               	movf	??___fladd,w
  4465  05CD  00D4               	movwf	___fladd@b
  4466  05CE  0A66               	incf	___fladd@bexp,w
  4467  05CF  1903               	btfsc	3,2
  4468  05D0  2DD2               	goto	u202_21
  4469  05D1  2DD3               	goto	u202_20
  4470  05D2                     u202_21:
  4471  05D2  2DD7               	goto	i1l501
  4472  05D3                     u202_20:
  4473  05D3                     i1l1576:
  4474  05D3  3001               	movlw	1
  4475  05D4  00DC               	movwf	??___fladd
  4476  05D5  085C               	movf	??___fladd,w
  4477  05D6  07E6               	addwf	___fladd@bexp,f
  4478  05D7                     i1l501:
  4479  05D7  0A66               	incf	___fladd@bexp,w
  4480  05D8  1903               	btfsc	3,2
  4481  05D9  2DDB               	goto	u203_21
  4482  05DA  2DDC               	goto	u203_20
  4483  05DB                     u203_21:
  4484  05DB  2DE1               	goto	i1l1580
  4485  05DC                     u203_20:
  4486  05DC                     i1l1578:
  4487  05DC  0866               	movf	___fladd@bexp,w
  4488  05DD  1D03               	btfss	3,2
  4489  05DE  2DE0               	goto	u204_21
  4490  05DF  2DE1               	goto	u204_20
  4491  05E0                     u204_21:
  4492  05E0  2DEF               	goto	i1l1586
  4493  05E1                     u204_20:
  4494  05E1                     i1l1580:
  4495  05E1  3000               	movlw	0
  4496  05E2  00D7               	movwf	___fladd@b+3
  4497  05E3  3000               	movlw	0
  4498  05E4  00D6               	movwf	___fladd@b+2
  4499  05E5  3000               	movlw	0
  4500  05E6  00D5               	movwf	___fladd@b+1
  4501  05E7  3000               	movlw	0
  4502  05E8  00D4               	movwf	___fladd@b
  4503  05E9                     i1l1582:
  4504  05E9  0866               	movf	___fladd@bexp,w
  4505  05EA  1D03               	btfss	3,2
  4506  05EB  2DED               	goto	u205_21
  4507  05EC  2DEE               	goto	u205_20
  4508  05ED                     u205_21:
  4509  05ED  2DEF               	goto	i1l1586
  4510  05EE                     u205_20:
  4511  05EE                     i1l1584:
  4512  05EE  01E4               	clrf	___fladd@signs
  4513  05EF                     i1l1586:
  4514  05EF  1C66               	btfss	___fladd@bexp,0
  4515  05F0  2DF2               	goto	u206_21
  4516  05F1  2DF3               	goto	u206_20
  4517  05F2                     u206_21:
  4518  05F2  2DF5               	goto	i1l1590
  4519  05F3                     u206_20:
  4520  05F3                     i1l1588:
  4521  05F3  17D6               	bsf	___fladd@b+2,7
  4522  05F4  2DF9               	goto	i1l509
  4523  05F5                     i1l1590:
  4524  05F5  307F               	movlw	127
  4525  05F6  00DC               	movwf	??___fladd
  4526  05F7  085C               	movf	??___fladd,w
  4527  05F8  05D6               	andwf	___fladd@b+2,f
  4528  05F9                     i1l509:
  4529  05F9  0866               	movf	___fladd@bexp,w
  4530  05FA  00DC               	movwf	??___fladd
  4531  05FB  1003               	clrc
  4532  05FC  0C5C               	rrf	??___fladd,w
  4533  05FD  00DD               	movwf	??___fladd+1
  4534  05FE  085D               	movf	??___fladd+1,w
  4535  05FF  00D7               	movwf	___fladd@b+3
  4536  0600                     i1l1592:
  4537  0600  1FE4               	btfss	___fladd@signs,7
  4538  0601  2E03               	goto	u207_21
  4539  0602  2E04               	goto	u207_20
  4540  0603                     u207_21:
  4541  0603  2E05               	goto	i1l510
  4542  0604                     u207_20:
  4543  0604                     i1l1594:
  4544  0604  17D7               	bsf	___fladd@b+3,7
  4545  0605                     i1l510:
  4546  0605                     i1l480:
  4547  0605  0008               	return
  4548  0606                     __end_of___fladd:
  4549  007E                     btemp	set	126	;btemp
  4550  007E                     wtemp0	set	126
  4551                           
  4552                           	psect	idloc
  4553                           
  4554                           ;Config register IDLOC0 @ 0x2000
  4555                           ;	unspecified, using default values
  4556  2000                     	org	8192
  4557  2000  3FFF               	dw	16383
  4558                           
  4559                           ;Config register IDLOC1 @ 0x2001
  4560                           ;	unspecified, using default values
  4561  2001                     	org	8193
  4562  2001  3FFF               	dw	16383
  4563                           
  4564                           ;Config register IDLOC2 @ 0x2002
  4565                           ;	unspecified, using default values
  4566  2002                     	org	8194
  4567  2002  3FFF               	dw	16383
  4568                           
  4569                           ;Config register IDLOC3 @ 0x2003
  4570                           ;	unspecified, using default values
  4571  2003                     	org	8195
  4572  2003  3FFF               	dw	16383
  4573                           
  4574                           	psect	config
  4575                           
  4576                           ;Config register CONFIG1 @ 0x2007
  4577                           ;	Oscillator Selection bits
  4578                           ;	FOSC = INTRC_NOCLKOUT, INTOSCIO oscillator: I/O function on RA6/OSC2/CLKOUT pin, I/O f
      +                          unction on RA7/OSC1/CLKIN
  4579                           ;	Watchdog Timer Enable bit
  4580                           ;	WDTE = OFF, WDT disabled and can be enabled by SWDTEN bit of the WDTCON register
  4581                           ;	Power-up Timer Enable bit
  4582                           ;	PWRTE = OFF, PWRT disabled
  4583                           ;	RE3/MCLR pin function select bit
  4584                           ;	MCLRE = OFF, RE3/MCLR pin function is digital input, MCLR internally tied to VDD
  4585                           ;	Code Protection bit
  4586                           ;	CP = OFF, Program memory code protection is disabled
  4587                           ;	Data Code Protection bit
  4588                           ;	CPD = OFF, Data memory code protection is disabled
  4589                           ;	Brown Out Reset Selection bits
  4590                           ;	BOREN = OFF, BOR disabled
  4591                           ;	Internal External Switchover bit
  4592                           ;	IESO = OFF, Internal/External Switchover mode is disabled
  4593                           ;	Fail-Safe Clock Monitor Enabled bit
  4594                           ;	FCMEN = OFF, Fail-Safe Clock Monitor is disabled
  4595                           ;	Low Voltage Programming Enable bit
  4596                           ;	LVP = OFF, RB3 pin has digital I/O, HV on MCLR must be used for programming
  4597                           ;	In-Circuit Debugger Mode bit
  4598                           ;	DEBUG = 0x1, unprogrammed default
  4599  2007                     	org	8199
  4600  2007  20D4               	dw	8404
  4601                           
  4602                           ;Config register CONFIG2 @ 0x2008
  4603                           ;	Brown-out Reset Selection bit
  4604                           ;	BOR4V = BOR40V, Brown-out Reset set to 4.0V
  4605                           ;	Flash Program Memory Self Write Enable bits
  4606                           ;	WRT = OFF, Write protection off
  4607  2008                     	org	8200
  4608  2008  3FFF               	dw	16383

Data Sizes:
    Strings     0
    Constant    0
    Data        0
    BSS         4
    Persistent  0
    Stack       0

Auto Spaces:
    Space          Size  Autos    Used
    COMMON           14     14      14
    BANK0            80     79      79
    BANK1            80     18      22
    BANK3            96      0       0
    BANK2            96      0       0

Pointer List with Targets:

    None.

Critical Paths under _main in COMMON

    None.

Critical Paths under _isr in COMMON

    _map->___xxtofl
    ___fltol->___xxtofl
    ___flmul->___xxtofl
    ___fldiv->___xxtofl
    ___fladd->___xxtofl

Critical Paths under _main in BANK0

    None.

Critical Paths under _isr in BANK0

    _isr->_map
    _map->___fltol
    ___fltol->___fladd
    ___flmul->___fldiv
    ___fladd->___flmul

Critical Paths under _main in BANK1

    _main->_setup

Critical Paths under _isr in BANK1

    _isr->_map
    _map->___fltol

Critical Paths under _main in BANK3

    None.

Critical Paths under _isr in BANK3

    None.

Critical Paths under _main in BANK2

    None.

Critical Paths under _isr in BANK2

    None.

Call Graph Tables:

 ---------------------------------------------------------------------------------
 (Depth) Function   	        Calls       Base Space   Used Autos Params    Refs
 ---------------------------------------------------------------------------------
 (0) _main                                                 1     1      0       0
                                             17 BANK1      1     1      0
                              _setup
 ---------------------------------------------------------------------------------
 (1) _setup                                                1     1      0       0
                                             16 BANK1      1     1      0
 ---------------------------------------------------------------------------------
 Estimated maximum stack depth 1
 ---------------------------------------------------------------------------------
 (Depth) Function   	        Calls       Base Space   Used Autos Params    Refs
 ---------------------------------------------------------------------------------
 (2) _isr                                                  5     5      0    7645
                                             11 BANK1      5     5      0
                                _map
 ---------------------------------------------------------------------------------
 (3) _map                                                  7     1      6    7645
                                             78 BANK0      1     1      0
                                              5 BANK1      6     0      6
                            ___fladd
                            ___fldiv
                            ___flmul
                            ___fltol
                           ___xxtofl
 ---------------------------------------------------------------------------------
 (4) ___xxtofl                                            14    10      4     626
                                              0 COMMON    14    10      4
 ---------------------------------------------------------------------------------
 (4) ___fltol                                             11     7      4     305
                                             72 BANK0      6     2      4
                                              0 BANK1      5     5      0
                            ___fladd (ARG)
                            ___fldiv (ARG)
                            ___flmul (ARG)
                           ___xxtofl (ARG)
 ---------------------------------------------------------------------------------
 (4) ___flmul                                             26    18      8    2417
                                             26 BANK0     26    18      8
                          __Umul8_16
                            ___fldiv (ARG)
                           ___xxtofl (ARG)
 ---------------------------------------------------------------------------------
 (5) __Umul8_16                                            9     7      2     799
                                              0 COMMON     9     7      2
 ---------------------------------------------------------------------------------
 (4) ___fldiv                                             26    18      8    1273
                                              0 BANK0     26    18      8
                           ___xxtofl (ARG)
 ---------------------------------------------------------------------------------
 (4) ___fladd                                             20    12      8    2262
                                             52 BANK0     20    12      8
                            ___fldiv (ARG)
                            ___flmul (ARG)
                           ___xxtofl (ARG)
 ---------------------------------------------------------------------------------
 Estimated maximum stack depth 5
 ---------------------------------------------------------------------------------

 Call Graph Graphs:

 _main (ROOT)
   _setup

 _isr (ROOT)
   _map
     ___fladd
       ___fldiv (ARG)
         ___xxtofl (ARG)
       ___flmul (ARG)
         __Umul8_16
         ___fldiv (ARG)
         ___xxtofl (ARG)
       ___xxtofl (ARG)
     ___fldiv
     ___flmul
     ___fltol
       ___fladd (ARG)
       ___fldiv (ARG)
       ___flmul (ARG)
       ___xxtofl (ARG)
     ___xxtofl

 Address spaces:
Name               Size   Autos  Total    Cost      Usage
BITCOMMON            E      0       0       0        0.0%
EEDATA             100      0       0       0        0.0%
NULL                 0      0       0       0        0.0%
CODE                 0      0       0       0        0.0%
COMMON               E      E       E       1      100.0%
BITSFR0              0      0       0       1        0.0%
SFR0                 0      0       0       1        0.0%
BITSFR1              0      0       0       2        0.0%
SFR1                 0      0       0       2        0.0%
STACK                0      0       0       2        0.0%
ABS                  0      0      73       3        0.0%
BITBANK0            50      0       0       4        0.0%
BITSFR3              0      0       0       4        0.0%
SFR3                 0      0       0       4        0.0%
BANK0               50     4F      4F       5       98.8%
BITSFR2              0      0       0       5        0.0%
SFR2                 0      0       0       5        0.0%
BITBANK1            50      0       0       6        0.0%
BANK1               50     12      16       7       27.5%
BITBANK3            60      0       0       8        0.0%
BANK3               60      0       0       9        0.0%
BITBANK2            60      0       0      10        0.0%
BANK2               60      0       0      11        0.0%
DATA                 0      0      73      12        0.0%


Microchip Technology PIC Macro Assembler V2.35 build 20211206165544 
Symbol Table                                                                                   Thu Apr 28 23:08:03 2022

           ___fldiv@aexp 0039             ___fldiv@bexp 0038             ___fldiv@sign 0031  
                     l82 0D22                       l84 0D26                       l85 0D33  
    __Umul8_16@word_mpld 0076                      _PR2 0092                      _map 0DD0  
                    _isr 0F3C             ___flmul@aexp 004C             ___flmul@bexp 004D  
           ___flmul@sign 0047             ___flmul@temp 0052             ___flmul@prod 004E  
           ___fltol@exp1 006D                     l2010 0C9C                     l2020 0CC8  
                   l2012 0CA3                     l2004 0C86                     l2022 0CCF  
                   l2014 0CB0                     l2006 0C8B                     l2016 0CB7  
                   l2008 0C91                     l2018 0CC4                     l1930 0CDB  
                   l1940 0CE8                     l1932 0CE1                     l1950 0CF9  
                   l1942 0CEB                     l1934 0CE2                     l1926 0CD6  
                   l1960 0D09                     l1952 0D00                     l1944 0CEE  
                   l1936 0CE4                     l1928 0CDA                     l1970 0D1E  
                   l1962 0D14                     l1954 0D03                     l1946 0CF3  
                   l1938 0CE5                     l1972 0D1F                     l1964 0D16  
                   l1956 0D04                     l1948 0CF6                     l1974 0D21  
                   l1966 0D1C                     l1958 0D06                     ?_map 00A5  
                   l1968 0D1D                     ?_isr 0070                     _CCP1 00B4  
                   _CCP2 00B2                     u2930 0C91                     u2931 0C90  
                   u2940 0C9C                     u2941 0C9B                     u2950 0CB0  
                   u2951 0CAF                     u2880 0D26                     u2960 0CC4  
                   u2881 0D25                     u2961 0CC3                     i1l65 0FF5  
                   u2977 0CCC                     u2987 0CFD                     i1l88 0E81  
                   _main 0C86                     map@x 006E                     btemp 007E  
                   start 0010          ___fldiv@new_exp 0032                    ??_map 007E  
                  ??_isr 00AB            ___fltol@sign1 006C          __end_of___fladd 0606  
                  ?_main 0070          __end_of___fldiv 07E3          __end_of___flmul 037E  
        __end_of___fltol 0DD0                    _ANSEL 0188                    i1l501 05D7  
                  i1l510 0605                    i1l360 0DCF                    i1l370 0DCF  
                  i1l523 0662                    i1l620 0F05                    i1l509 05F9  
                  i1l525 07E2                    i1l621 0F11                    i1l613 0EE9  
                  i1l471 0488                    i1l367 0DBA                    i1l607 0EA4  
                  i1l480 0605                    i1l473 045F                    i1l545 07C6  
                  i1l609 0F3B                    i1l467 03E1                    i1l547 07D6  
                  i1l539 0754                    i1l563 037D                    i1l492 0577  
                  i1l582 0C73                    i1l575 0371                    i1l488 0553  
                  i1l584 0C85                    i1l569 02E9                    i1l498 0599  
                  _PORTA 0005                    _PORTD 0008                    _TRISA 0085  
                  _TRISD 0088                    map@x0 00A5                    map@x1 00A6  
                  map@y0 00A7                    map@y1 00A9                    _setup 0CD6  
                  pclath 000A                    status 0003                    wtemp0 007E  
        __initialization 0013             __end_of_main 0CD6                   ??_main 00B1  
                 _ADRESH 001E                   _CCPR1L 0015                   _CCPR2L 001B  
                 ?_setup 0070                   _ANSELH 0189                   i1l2000 0FF3  
                 i1l1400 0DC4                   i1l1410 0390                   i1l1402 037E  
                 i1l1500 048C                   i1l1412 0395                   i1l1420 03A5  
                 i1l1404 0385                   i1l1510 04B5                   i1l1502 0491  
                 i1l1430 03BF                   i1l1422 03AD                   i1l1414 039A  
                 i1l1406 038B                   u200_20 05B5                   i1l1520 04C9  
                 i1l1512 04B9                   i1l1440 03D6                   i1l1432 03C3  
                 i1l1424 03B2                   i1l1416 03A2                   i1l1408 038F  
                 i1l1600 0613                   i1l1360 0C7C                   i1l1352 0C60  
                 u200_21 05B4                   i1l1530 0531                   i1l1522 04D2  
                 i1l1514 04C2                   i1l1506 049A                   i1l1450 03EF  
                 i1l1442 03D7                   i1l1434 03C4                   i1l1426 03B8  
                 i1l1418 03A3                   i1l1610 062A                   i1l1602 0617  
                 i1l1362 0C81                   i1l1354 0C62                   i1l1532 0536  
                 i1l1516 04C4                   i1l1508 04B1                   i1l1524 04D7  
                 i1l1460 0403                   i1l1452 03F3                   i1l1436 03C9  
                 i1l1444 03D9                   i1l1428 03B9                   i1l1700 073D  
                 i1l1620 0640                   i1l1612 062B                   i1l1604 0618  
                 i1l1356 0C69                   i1l1380 0D7E                   i1l1372 0D4E  
                 i1l1550 057E                   i1l1542 0569                   i1l1526 04ED  
                 i1l1534 0545                   i1l1518 04C8                   i1l1470 0417  
                 i1l1462 0407                   i1l1454 03F7                   i1l1446 03E7  
                 i1l1438 03CE                   i1l1710 076C                   i1l1702 0751  
                 i1l1630 0657                   i1l1622 0644                   i1l1606 061D  
                 i1l1614 062D                   i1l1358 0C6D                   i1l1382 0D82  
                 i1l1390 0DA0                   i1l1374 0D73                   i1l1366 0D34  
                 u201_20 05C4                   i1l1560 058C                   i1l1552 0580  
                 i1l1544 0572                   i1l1536 055B                   i1l1528 052B  
                 i1l1472 041B                   i1l1464 040B                   i1l1456 03FB  
                 i1l1448 03EB                   i1l1480 042B                   i1l1720 07AA  
                 i1l1712 0770                   i1l1640 067A                   i1l1632 0658  
                 i1l1624 0645                   i1l1616 0635                   i1l1608 0622  
                 i1l1800 015D                   i1l1376 0D74                   i1l1368 0D45  
                 i1l1570 05A3                   i1l1562 0590                   i1l1554 0585  
                 i1l1546 0576                   i1l1538 0560                   i1l1490 046E  
                 i1l1482 042C                   i1l1474 041F                   i1l1466 040F  
                 i1l1458 03FF                   i1l1730 07D0                   i1l1722 07B9  
                 i1l1714 0789                   i1l1706 0759                   i1l1650 0691  
                 i1l1626 064A                   i1l1634 065A                   i1l1618 063A  
                 i1l1810 01DD                   i1l1802 017A                   i1l1378 0D7C  
                 i1l1580 05E1                   i1l1572 05B1                   i1l1564 0596  
                 i1l1548 057B                   i1l1556 0587                   i1l1492 0472  
                 i1l1484 0443                   i1l1476 0423                   i1l1468 0413  
                 i1l1732 07D2                   i1l1724 07BD                   i1l1708 075E  
                 i1l1716 078F                   i1l1660 06BD                   i1l1652 06A3  
                 i1l1636 066A                   i1l1644 0683                   i1l1628 064F  
                 i1l1820 0295                   i1l1812 020A                   i1l1804 018A  
                 i1l1740 0024                   i1l1396 0DA7                   i1l1388 0D8A  
                 i1l1900 0EE0                   u201_25 05BF                   i1l1590 05F5  
                 i1l1582 05E9                   i1l1574 05B5                   i1l1558 058B  
                 i1l1494 0473                   i1l1486 0463                   i1l1478 0427  
                 i1l1726 07C5                   i1l1718 079C                   i1l1662 06C2  
                 i1l1670 06E2                   i1l1654 06AB                   i1l1646 0688  
                 i1l1638 0676                   i1l1830 02BA                   i1l1822 029E  
                 i1l1814 021A                   i1l1806 01A7                   i1l1750 0039  
                 i1l1742 002A                   i1l1398 0DBF                   i1l1910 0F13  
                 i1l1902 0EF0                   i1l1592 0600                   i1l1584 05EE  
                 i1l1576 05D3                   u202_20 05D3                   i1l1568 059E  
                 i1l1496 047C                   i1l1488 046C                   i1l1728 07CC  
                 i1l1680 070D                   i1l1672 06F4                   i1l1664 06D4  
                 i1l1656 06B3                   u210_20 0622                   i1l1840 02D2  
                 i1l1832 02C3                   i1l1824 02AC                   i1l1816 0247  
                 i1l1808 01C0                   i1l1760 0056                   i1l1752 0041  
                 i1l1744 002E                   i1l1912 0F29                   i1l1904 0EFB  
                 u202_21 05D2                   u210_21 0621                   i1l1594 0604  
                 i1l1586 05EF                   i1l1578 05DC                   i1l1498 0480  
                 i1l1690 0725                   i1l1682 0715                   i1l1674 06F5  
                 i1l1666 06D8                   i1l1658 06BB                   i1l1850 0301  
                 i1l1842 02E6                   i1l1826 02B5                   i1l1834 02C9  
                 i1l1818 026D                   i1l1770 006D                   i1l1762 005A  
                 i1l1754 0043                   i1l1746 002F                   i1l1738 001D  
                 i1l1914 0F2E                   i1l1906 0EFF                   i1l1922 0DD3  
                 i1l1588 05F3                   i1l1692 072E                   i1l1684 0717  
                 i1l1676 0703                   i1l1668 06D9                   i1l1596 0606  
                 i1l1860 033C                   i1l1852 0305                   i1l1836 02CD  
                 i1l1828 02B9                   i1l1772 006F                   i1l1764 005B  
                 i1l1756 004B                   i1l1748 0034                   i1l1916 0F32  
                 i1l1908 0F09                   i1l1686 0720                   i1l1694 0734  
                 i1l1678 0707                   i1l1598 060D                   i1l1870 0369  
                 i1l1862 034B                   i1l1854 031E                   i1l1846 02EE  
                 i1l1838 02CE                   i1l1790 00E0                   i1l1782 008A  
                 i1l1774 0077                   i1l1766 0060                   i1l1758 0050  
                 i1l1918 0F33                   u203_20 05DC                   i1l1696 0738  
                 i1l1688 0724                   u211_20 0644                   i1l1872 036A  
                 i1l1864 0355                   i1l1848 02F3                   i1l1856 0324  
                 i1l1792 010C                   i1l1784 009A                   i1l1776 007C  
                 i1l1768 0065                   i1l1880 0E88                   u203_21 05DB  
                 u211_21 0643                   i1l1698 0739                   i1l1874 0375  
                 i1l1866 0357                   i1l1858 0331                   i1l1794 0128  
                 i1l1786 00A7                   i1l1778 0081                   i1l1890 0EB5  
                 i1l1882 0E8C                   i1l1868 0365                   i1l1796 0144  
                 i1l1788 00C4                   i1l1892 0EBA                   i1l1884 0E9C  
                 i1l1980 0F4D                   i1l1798 014D                   i1l1894 0EC7  
                 i1l1886 0EAC                   i1l1878 0E83                   i1l1990 0FB0  
                 i1l1982 0F68                   u204_20 05E1                   u212_20 064A  
                 i1l1896 0ECE                   i1l1992 0FBE                   i1l1984 0F76  
                 i1l1976 0F3C                   u204_21 05E0                   u212_21 0649  
                 i1l1898 0ED2                   i1l1994 0FCF                   i1l1986 0F88  
                 i1l1978 0F42                   i1l1988 0F95                   i1l1996 0FE2  
                 u220_25 06DB                   i1l1998 0FEF                   u205_20 05EE  
                 u221_20 06F4                   u213_20 064F                   u205_21 05ED  
                 u221_21 06F3                   u213_21 064E                   u221_25 06F0  
                 u206_20 05F3                   u230_20 0758                   u222_20 070D  
                 u214_20 066A                   u206_21 05F2                   u230_21 0757  
                 u222_21 070C                   u214_21 0669                   u150_25 0C74  
                 u207_20 0604                   u231_20 075E                   u223_20 0715  
                 u215_20 0688                   u151_20 0C81                   u207_21 0603  
                 u231_21 075D                   u223_21 0714                   u215_21 0687  
                 u151_21 0C80                   u232_20 0770                   u216_20 06C2  
                 u208_20 0617                   u240_20 005A                   u160_20 0DBF  
                 u152_20 0D45                   u232_21 076F                   u216_21 06C1  
                 u208_21 0616                   u240_21 0059                   u160_21 0DBE  
                 u152_21 0D44                   u224_25 0719                   u233_20 077F  
                 u225_20 0724                   u209_20 061D                   u241_20 0060  
                 u161_20 0DC4                   u153_20 0D6A                   u225_21 0723  
                 u209_21 061C                   u241_21 005F                   u161_21 0DC3  
                 u233_25 077A                   u217_25 06C4                   u153_25 0D65  
                 u170_20 03EB                   u162_20 038F                   u234_20 079C  
                 u242_20 0065                   u154_20 0D82                   u170_21 03EA  
                 u162_21 038E                   u234_21 079B                   u250_21 016C  
                 u242_21 0064                   u154_21 0D81                   u250_22 0173  
                 u250_23 017A                   u234_25 0798                   u226_25 0727  
                 u218_25 06CD                   u171_20 0443                   u163_20 0395  
                 u235_20 07B9                   u227_20 0738                   u219_20 06D8  
                 u243_20 007C                   u155_20 0D89                   u171_21 0442  
                 u163_21 0394                   u235_21 07B8                   u227_21 0737  
                 u219_21 06D7                   u251_21 0199                   u243_21 007B  
                 u155_21 0D88                   u251_22 01A0                   u251_23 01A7  
                 u171_25 043F                   u235_25 07B5                   u172_20 044E  
                 u164_20 039A                   u236_20 07D0                   u228_20 073D  
                 u244_20 0081                   u180_21 04A3                   u172_21 044C  
                 u164_21 0399                   u236_21 07CF                   u228_21 073C  
                 u244_21 0080                   u180_22 04AA                   u180_23 04B1  
                 u260_25 0297                   u252_25 01A9                   u156_25 0D8B  
                 u181_20 04B5                   u173_20 044F                   u165_20 03B8  
                 u229_20 0751                   u149_20 0C6D                   u237_20 002E  
                 u157_20 0D9F                   u181_21 04B4                   u165_21 03B7  
                 u229_21 0750                   u149_21 0C6C                   u253_21 01CF  
                 u245_21 00D2                   u237_21 002D                   u157_21 0D9E  
                 u253_22 01D6                   u245_22 00D9                   u253_23 01DD  
                 u245_23 00E0                   u261_25 02AE                   u190_20 0560  
                 u182_20 04B9                   u174_20 0463                   u166_20 03C3  
                 u270_20 0314                   u262_20 02B9                   u238_20 0034  
                 u158_20 0DA6                   u190_21 055F                   u182_21 04B8  
                 u174_21 0462                   u166_21 03C2                   u262_21 02B8  
                 u254_21 01FC                   u246_21 00EE                   u238_21 0033  
                 u158_21 0DA5                   u254_22 0203                   u246_22 00F5  
                 u254_23 020A                   u246_23 00FC                   u270_25 030F  
                 u183_20 04C8                   u175_20 0472                   u167_20 03C9  
                 u271_20 0331                   u239_20 0039                   u183_21 04C7  
                 u175_21 0471                   u167_21 03C8                   u271_21 0330  
                 u255_21 0229                   u247_21 011A                   u239_21 0038  
                 u255_22 0230                   u247_22 0121                   u255_23 0237  
                 u247_23 0128                   u191_25 056B                   u271_25 032D  
                 u263_25 02BC                   u159_25 0DAB                   u192_20 0576  
                 u168_20 03CE                   u272_20 034B                   u264_20 02CD  
                 u256_20 0253                   u280_20 0EEF                   u192_21 0575  
                 u168_21 03CD                   u272_21 034A                   u264_21 02CC  
                 u248_21 0136                   u280_21 0EEE                   u248_22 013D  
                 u248_23 0144                   u184_25 04CB                   u176_25 0475  
                 u272_25 0347                   u256_25 024E                   u193_20 057B  
                 u185_20 04ED                   u177_20 0488                   u169_20 03E7  
                 u273_20 0369                   u265_20 02D2                   u193_21 057A  
                 u185_21 04EC                   u177_21 0487                   u169_21 03E6  
                 u273_21 0368                   u265_21 02D1                   u257_21 025F  
                 u257_22 0266                   u185_23 04E9                   u257_23 026D  
                 u249_25 0146                   u281_25 0EF4                   u194_20 0585  
                 u178_20 048C                   u266_20 02E6                   u258_20 027B  
                 u282_20 0EFF                   u274_20 0E88                   u290_20 0F4D  
                 u194_21 0584                   u186_21 0504                   u178_21 048B  
                 u266_21 02E5                   u282_21 0EFE                   u274_21 0E87  
                 u290_21 0F4C                   u186_22 0505                   u186_23 050A  
                 u186_24 050B                   u186_25 0510                   u258_25 0276  
                 u186_26 0511                   u195_20 058B                   u187_20 0518  
                 u179_20 0491                   u267_20 02ED                   u283_20 0F05  
                 u275_20 0E8C                   u291_20 0F95                   u195_21 058A  
                 u187_21 0519                   u179_21 0490                   u267_21 02EC  
                 u259_21 0287                   u283_21 0F04                   u275_21 0E8B  
                 u291_21 0F94                   u187_22 051E                   u259_22 028E  
                 u187_23 051F                   u259_23 0295                   u196_20 0590  
                 u188_20 0536                   u268_20 02F3                   u284_20 0F09  
                 u276_20 0EAC                   u292_20 0FEF                   u196_21 058F  
                 u188_21 0535                   u268_21 02F2                   u284_21 0F08  
                 u276_21 0EAB                   u292_21 0FEE                   u197_20 0596  
                 u189_20 055B                   u269_20 0305                   u285_20 0F1E  
                 u197_21 0595                   u189_21 055A                   u269_21 0304  
                 u285_25 0F19                   u277_25 0EBF                   u198_20 059D  
                 u286_20 0F2E                   u278_20 0ECD                   u198_21 059C  
                 u286_21 0F2D                   u278_21 0ECC                   u199_20 05A3  
                 u287_20 0F32                   u199_21 05A2                   u287_21 0F31  
                 u279_25 0EE1                   u289_20 0F42                   u289_21 0F41  
       __end_of___xxtofl 0F3C                ??___fladd 005C                ??___fldiv 0028  
              ??___flmul 0042                ??___fltol 00A0                   saved_w 007E  
           ___xxtofl@arg 007A             ___xxtofl@exp 0079             ___xxtofl@val 0070  
__end_of__initialization 0019               ___fltol@f1 0068           __pcstackCOMMON 0070  
          __end_of_setup 0D34                  ??_setup 00B0               __pbssBANK1 00B2  
      __end_of__Umul8_16 0C86               __pmaintext 0C86               __pintentry 0004  
                _CCP1CON 0017                  _CCP2CON 001D                ?___xxtofl 0070  
                ___fladd 037E                  ___fldiv 0606                  ___flmul 001D  
                ___fltol 0D34                  __ptext1 0CD6                  __ptext2 0F3C  
                __ptext3 0DD0                  __ptext4 0E82                  __ptext5 0D34  
                __ptext6 001D                  __ptext7 0C5F                  __ptext8 0606  
                __ptext9 037E                _T2CONbits 0012               ??___xxtofl 0074  
   end_of_initialization 0019              ___fladd@grs 0067            ___xxtofl@sign 0078  
              _TRISCbits 0087              ___fldiv@grs 0034              ___fldiv@rem 002D  
            ___flmul@grs 0048              _CCP1CONbits 0017              _CCP2CONbits 001D  
    start_initialization 0013              __end_of_map 0E82              __end_of_isr 1000  
              __Umul8_16 0C5F                ___fladd@a 0058                ___fladd@b 0054  
              ___fldiv@a 0020                ___fldiv@b 0024                ___flmul@a 003E  
              ___flmul@b 003A                ___latbits 0002            __pcstackBANK0 0020  
          __pcstackBANK1 00A0                 ?___fladd 0054                 ?___fldiv 0020  
               ?___flmul 003A                 ?___fltol 0068               ?__Umul8_16 0070  
      interrupt_function 0004                 _PIE1bits 008C                 _PIR1bits 000C  
             _ADCON0bits 001F               _ADCON1bits 009F              ??__Umul8_16 0072  
               ___xxtofl 0E82               _INTCONbits 000B                 intlevel1 0000  
             _OSCCONbits 008F   __Umul8_16@multiplicand 0070            ___fladd@signs 0064  
           ___fladd@aexp 0065             ___fladd@bexp 0066     __Umul8_16@multiplier 0078  
      __Umul8_16@product 0074  
