

Microchip MPLAB XC8 Assembler V2.35 build 20211206165544 
                                                                                               Thu May 26 10:33:21 2022

Microchip MPLAB XC8 C Compiler v2.35 (Free license) build 20211206165544 Og1 
     1                           	processor	16F887
     2                           	pagewidth 120
     3                           	opt	flic
     4                           	psect	cinit,global,class=CODE,merge=1,delta=2
     5                           	psect	bssCOMMON,global,class=COMMON,space=1,delta=1,noexec
     6                           	psect	bssBANK1,global,class=BANK1,space=1,delta=1,noexec
     7                           	psect	cstackBANK1,global,class=BANK1,space=1,delta=1,noexec
     8                           	psect	cstackCOMMON,global,class=COMMON,space=1,delta=1,noexec
     9                           	psect	cstackBANK0,global,class=BANK0,space=1,delta=1,noexec
    10                           	psect	maintext,global,class=CODE,split=1,delta=2
    11                           	psect	text1,local,class=CODE,merge=1,delta=2
    12                           	psect	text2,local,class=CODE,merge=1,delta=2
    13                           	psect	text3,local,class=CODE,merge=1,delta=2
    14                           	psect	text4,local,class=CODE,merge=1,delta=2
    15                           	psect	text5,local,class=CODE,merge=1,delta=2,group=1
    16                           	psect	text6,local,class=CODE,merge=1,delta=2,group=1
    17                           	psect	text7,local,class=CODE,merge=1,delta=2,group=1
    18                           	psect	text8,local,class=CODE,merge=1,delta=2,group=1
    19                           	psect	text9,local,class=CODE,merge=1,delta=2,group=1
    20                           	psect	text10,local,class=CODE,merge=1,delta=2,group=1
    21                           	psect	text11,local,class=CODE,merge=1,delta=2
    22                           	psect	intentry,global,class=CODE,delta=2
    23                           	psect	idloc,global,abs,ovrld,class=IDLOC,space=5,delta=2,noexec
    24                           	psect	config,global,abs,ovrld,class=CONFIG,space=4,delta=2,noexec
    25                           	dabs	1,0x7E,2
    26  0000                     
    27                           ; Version 2.40
    28                           ; Generated 17/11/2021 GMT
    29                           ; 
    30                           ; Copyright © 2021, Microchip Technology Inc. and its subsidiaries ("Microchip")
    31                           ; All rights reserved.
    32                           ; 
    33                           ; This software is developed by Microchip Technology Inc. and its subsidiaries ("Microch
      +                          ip").
    34                           ; 
    35                           ; Redistribution and use in source and binary forms, with or without modification, are
    36                           ; permitted provided that the following conditions are met:
    37                           ; 
    38                           ;     1. Redistributions of source code must retain the above copyright notice, this lis
      +                          t of
    39                           ;        conditions and the following disclaimer.
    40                           ; 
    41                           ;     2. Redistributions in binary form must reproduce the above copyright notice, this 
      +                          list
    42                           ;        of conditions and the following disclaimer in the documentation and/or other
    43                           ;        materials provided with the distribution. Publication is not required when
    44                           ;        this file is used in an embedded application.
    45                           ; 
    46                           ;     3. Microchip's name may not be used to endorse or promote products derived from th
      +                          is
    47                           ;        software without specific prior written permission.
    48                           ; 
    49                           ; THIS SOFTWARE IS PROVIDED BY MICROCHIP "AS IS" AND ANY EXPRESS OR IMPLIED WARRANTIES,
    50                           ; INCLUDING, BUT NOT LIMITED TO, THE IMPLIED WARRANTIES OF MERCHANTABILITY AND FITNESS F
      +                          OR
    51                           ; PURPOSE ARE DISCLAIMED.  IN NO EVENT SHALL MICROCHIP BE LIABLE FOR ANY DIRECT, INDIREC
      +                          T,
    52                           ; INCIDENTAL, SPECIAL, EXEMPLARY, OR CONSEQUENTIAL DAMAGES (INCLUDING BUT NOT LIMITED TO
    53                           ; PROCUREMENT OF SUBSTITUTE GOODS OR SERVICES; LOSS OF USE, DATA OR PROFITS; OR BUSINESS
    54                           ; INTERRUPTION) HOWSOEVER CAUSED AND ON ANY THEORY OF LIABILITY, WHETHER IN CONTRACT, ST
      +                          RICT
    55                           ; LIABILITY, OR TORT (INCLUDING NEGLIGENCE OR OTHERWISE) ARISING IN ANY WAY OUT OF THE U
      +                          SE OF
    56                           ; THIS SOFTWARE, EVEN IF ADVISED OF THE POSSIBILITY OF SUCH DAMAGE.
    57                           ; 
    58                           ; 
    59                           ; Code-generator required, PIC16F887 Definitions
    60                           ; 
    61                           ; SFR Addresses
    62  0000                     	;# 
    63  0001                     	;# 
    64  0002                     	;# 
    65  0003                     	;# 
    66  0004                     	;# 
    67  0005                     	;# 
    68  0006                     	;# 
    69  0007                     	;# 
    70  0008                     	;# 
    71  0009                     	;# 
    72  000A                     	;# 
    73  000B                     	;# 
    74  000C                     	;# 
    75  000D                     	;# 
    76  000E                     	;# 
    77  000E                     	;# 
    78  000F                     	;# 
    79  0010                     	;# 
    80  0011                     	;# 
    81  0012                     	;# 
    82  0013                     	;# 
    83  0014                     	;# 
    84  0015                     	;# 
    85  0015                     	;# 
    86  0016                     	;# 
    87  0017                     	;# 
    88  0018                     	;# 
    89  0019                     	;# 
    90  001A                     	;# 
    91  001B                     	;# 
    92  001B                     	;# 
    93  001C                     	;# 
    94  001D                     	;# 
    95  001E                     	;# 
    96  001F                     	;# 
    97  0081                     	;# 
    98  0085                     	;# 
    99  0086                     	;# 
   100  0087                     	;# 
   101  0088                     	;# 
   102  0089                     	;# 
   103  008C                     	;# 
   104  008D                     	;# 
   105  008E                     	;# 
   106  008F                     	;# 
   107  0090                     	;# 
   108  0091                     	;# 
   109  0092                     	;# 
   110  0093                     	;# 
   111  0093                     	;# 
   112  0093                     	;# 
   113  0094                     	;# 
   114  0095                     	;# 
   115  0096                     	;# 
   116  0097                     	;# 
   117  0098                     	;# 
   118  0099                     	;# 
   119  009A                     	;# 
   120  009B                     	;# 
   121  009C                     	;# 
   122  009D                     	;# 
   123  009E                     	;# 
   124  009F                     	;# 
   125  0105                     	;# 
   126  0107                     	;# 
   127  0108                     	;# 
   128  0109                     	;# 
   129  010C                     	;# 
   130  010C                     	;# 
   131  010D                     	;# 
   132  010E                     	;# 
   133  010F                     	;# 
   134  0185                     	;# 
   135  0187                     	;# 
   136  0188                     	;# 
   137  0189                     	;# 
   138  018C                     	;# 
   139  018D                     	;# 
   140  0000                     	;# 
   141  0001                     	;# 
   142  0002                     	;# 
   143  0003                     	;# 
   144  0004                     	;# 
   145  0005                     	;# 
   146  0006                     	;# 
   147  0007                     	;# 
   148  0008                     	;# 
   149  0009                     	;# 
   150  000A                     	;# 
   151  000B                     	;# 
   152  000C                     	;# 
   153  000D                     	;# 
   154  000E                     	;# 
   155  000E                     	;# 
   156  000F                     	;# 
   157  0010                     	;# 
   158  0011                     	;# 
   159  0012                     	;# 
   160  0013                     	;# 
   161  0014                     	;# 
   162  0015                     	;# 
   163  0015                     	;# 
   164  0016                     	;# 
   165  0017                     	;# 
   166  0018                     	;# 
   167  0019                     	;# 
   168  001A                     	;# 
   169  001B                     	;# 
   170  001B                     	;# 
   171  001C                     	;# 
   172  001D                     	;# 
   173  001E                     	;# 
   174  001F                     	;# 
   175  0081                     	;# 
   176  0085                     	;# 
   177  0086                     	;# 
   178  0087                     	;# 
   179  0088                     	;# 
   180  0089                     	;# 
   181  008C                     	;# 
   182  008D                     	;# 
   183  008E                     	;# 
   184  008F                     	;# 
   185  0090                     	;# 
   186  0091                     	;# 
   187  0092                     	;# 
   188  0093                     	;# 
   189  0093                     	;# 
   190  0093                     	;# 
   191  0094                     	;# 
   192  0095                     	;# 
   193  0096                     	;# 
   194  0097                     	;# 
   195  0098                     	;# 
   196  0099                     	;# 
   197  009A                     	;# 
   198  009B                     	;# 
   199  009C                     	;# 
   200  009D                     	;# 
   201  009E                     	;# 
   202  009F                     	;# 
   203  0105                     	;# 
   204  0107                     	;# 
   205  0108                     	;# 
   206  0109                     	;# 
   207  010C                     	;# 
   208  010C                     	;# 
   209  010D                     	;# 
   210  010E                     	;# 
   211  010F                     	;# 
   212  0185                     	;# 
   213  0187                     	;# 
   214  0188                     	;# 
   215  0189                     	;# 
   216  018C                     	;# 
   217  018D                     	;# 
   218  000B                     _INTCONbits	set	11
   219  0012                     _T2CONbits	set	18
   220  001B                     _CCPR2L	set	27
   221  0015                     _CCPR1L	set	21
   222  001D                     _CCP2CONbits	set	29
   223  0017                     _CCP1CONbits	set	23
   224  001D                     _CCP2CON	set	29
   225  0017                     _CCP1CON	set	23
   226  0007                     _PORTC	set	7
   227  0013                     _SSPBUF	set	19
   228  0014                     _SSPCONbits	set	20
   229  000C                     _PIR1bits	set	12
   230  008C                     _PIE1bits	set	140
   231  0093                     _SSPADD	set	147
   232  0092                     _PR2	set	146
   233  0087                     _TRISCbits	set	135
   234  0087                     _TRISC	set	135
   235  008F                     _OSCCONbits	set	143
   236  0094                     _SSPSTATbits	set	148
   237  0189                     _ANSELH	set	393
   238  0188                     _ANSEL	set	392
   239                           
   240                           	psect	cinit
   241  000F                     start_initialization:	
   242                           ; #config settings
   243                           
   244  000F                     __initialization:
   245                           
   246                           ; Clear objects allocated to COMMON
   247  000F  01FA               	clrf	__pbssCOMMON& (0+127)
   248                           
   249                           ; Clear objects allocated to BANK1
   250  0010  1683               	bsf	3,5	;RP0=1, select bank1
   251  0011  1303               	bcf	3,6	;RP1=0, select bank1
   252  0012  01B5               	clrf	__pbssBANK1& (0+127)
   253  0013  01B6               	clrf	(__pbssBANK1+1)& (0+127)
   254  0014  01B7               	clrf	(__pbssBANK1+2)& (0+127)
   255  0015  01B8               	clrf	(__pbssBANK1+3)& (0+127)
   256  0016  01B9               	clrf	(__pbssBANK1+4)& (0+127)
   257  0017  01BA               	clrf	(__pbssBANK1+5)& (0+127)
   258  0018  01BB               	clrf	(__pbssBANK1+6)& (0+127)
   259  0019  01BC               	clrf	(__pbssBANK1+7)& (0+127)
   260  001A  01BD               	clrf	(__pbssBANK1+8)& (0+127)
   261  001B                     end_of_initialization:	
   262                           ;End of C runtime variable initialization code
   263                           
   264  001B                     __end_of__initialization:
   265  001B  0183               	clrf	3
   266  001C  120A  158A  2C2E   	ljmp	_main	;jump to C main() function
   267                           
   268                           	psect	bssCOMMON
   269  007A                     __pbssCOMMON:
   270  007A                     _old_POT1:
   271  007A                     	ds	1
   272                           
   273                           	psect	bssBANK1
   274  00B5                     __pbssBANK1:
   275  00B5                     _CCP2:
   276  00B5                     	ds	2
   277  00B7                     _CCP1:
   278  00B7                     	ds	2
   279  00B9                     _old_dato:
   280  00B9                     	ds	1
   281  00BA                     _POT2:
   282  00BA                     	ds	1
   283  00BB                     _POT1:
   284  00BB                     	ds	1
   285  00BC                     _check:
   286  00BC                     	ds	1
   287  00BD                     _dato:
   288  00BD                     	ds	1
   289                           
   290                           	psect	cstackBANK1
   291  00A0                     __pcstackBANK1:
   292  00A0                     ___fladd@signs:
   293                           
   294                           ; 1 bytes @ 0x0
   295  00A0                     	ds	1
   296  00A1                     ___fladd@aexp:
   297                           
   298                           ; 1 bytes @ 0x1
   299  00A1                     	ds	1
   300  00A2                     ___fladd@bexp:
   301                           
   302                           ; 1 bytes @ 0x2
   303  00A2                     	ds	1
   304  00A3                     ___fladd@grs:
   305                           
   306                           ; 1 bytes @ 0x3
   307  00A3                     	ds	1
   308  00A4                     ?___fltol:
   309  00A4                     ___fltol@f1:	
   310                           ; 4 bytes @ 0x4
   311                           
   312                           
   313                           ; 4 bytes @ 0x4
   314  00A4                     	ds	4
   315  00A8                     ??___fltol:
   316                           
   317                           ; 1 bytes @ 0x8
   318  00A8                     	ds	5
   319  00AD                     ?_map:
   320  00AD                     map@x0:	
   321                           ; 2 bytes @ 0xD
   322                           
   323                           
   324                           ; 1 bytes @ 0xD
   325  00AD                     	ds	1
   326  00AE                     map@x1:
   327                           
   328                           ; 1 bytes @ 0xE
   329  00AE                     	ds	1
   330  00AF                     map@y0:
   331                           
   332                           ; 2 bytes @ 0xF
   333  00AF                     	ds	2
   334  00B1                     map@y1:
   335                           
   336                           ; 2 bytes @ 0x11
   337  00B1                     	ds	2
   338  00B3                     SERVO_1@val:
   339  00B3                     SERVO_2@val:	
   340                           ; 1 bytes @ 0x13
   341                           
   342                           
   343                           ; 1 bytes @ 0x13
   344  00B3                     	ds	1
   345  00B4                     ??_main:
   346                           
   347                           ; 1 bytes @ 0x14
   348  00B4                     	ds	1
   349                           
   350                           	psect	cstackCOMMON
   351  0070                     __pcstackCOMMON:
   352  0070                     ?_setup:
   353  0070                     ?_SERVO_1:	
   354                           ; 1 bytes @ 0x0
   355                           
   356  0070                     ?_SERVO_2:	
   357                           ; 1 bytes @ 0x0
   358                           
   359  0070                     ?_isr:	
   360                           ; 1 bytes @ 0x0
   361                           
   362  0070                     ??_isr:	
   363                           ; 1 bytes @ 0x0
   364                           
   365  0070                     ?_main:	
   366                           ; 1 bytes @ 0x0
   367                           
   368                           
   369                           ; 1 bytes @ 0x0
   370  0070                     	ds	3
   371  0073                     ??_setup:
   372  0073                     ?__Umul8_16:	
   373                           ; 1 bytes @ 0x3
   374                           
   375  0073                     ?___xxtofl:	
   376                           ; 2 bytes @ 0x3
   377                           
   378  0073                     __Umul8_16@multiplicand:	
   379                           ; 4 bytes @ 0x3
   380                           
   381  0073                     ___xxtofl@val:	
   382                           ; 1 bytes @ 0x3
   383                           
   384                           
   385                           ; 4 bytes @ 0x3
   386  0073                     	ds	2
   387  0075                     ??__Umul8_16:
   388                           
   389                           ; 1 bytes @ 0x5
   390  0075                     	ds	2
   391  0077                     ___fltol@sign1:
   392                           
   393                           ; 1 bytes @ 0x7
   394  0077                     	ds	1
   395  0078                     ___fltol@exp1:
   396                           
   397                           ; 1 bytes @ 0x8
   398  0078                     	ds	1
   399  0079                     ??_map:
   400  0079                     map@x:	
   401                           ; 1 bytes @ 0x9
   402                           
   403                           
   404                           ; 1 bytes @ 0x9
   405  0079                     	ds	1
   406                           
   407                           	psect	cstackBANK0
   408  0020                     __pcstackBANK0:
   409  0020                     ??___xxtofl:
   410  0020                     __Umul8_16@product:	
   411                           ; 1 bytes @ 0x0
   412                           
   413                           
   414                           ; 2 bytes @ 0x0
   415  0020                     	ds	2
   416  0022                     __Umul8_16@word_mpld:
   417                           
   418                           ; 2 bytes @ 0x2
   419  0022                     	ds	2
   420  0024                     __Umul8_16@multiplier:
   421  0024                     ___xxtofl@sign:	
   422                           ; 1 bytes @ 0x4
   423                           
   424                           
   425                           ; 1 bytes @ 0x4
   426  0024                     	ds	1
   427  0025                     ___xxtofl@exp:
   428                           
   429                           ; 1 bytes @ 0x5
   430  0025                     	ds	1
   431  0026                     ___xxtofl@arg:
   432                           
   433                           ; 4 bytes @ 0x6
   434  0026                     	ds	4
   435  002A                     ?___fldiv:
   436  002A                     ___fldiv@a:	
   437                           ; 4 bytes @ 0xA
   438                           
   439                           
   440                           ; 4 bytes @ 0xA
   441  002A                     	ds	4
   442  002E                     ___fldiv@b:
   443                           
   444                           ; 4 bytes @ 0xE
   445  002E                     	ds	4
   446  0032                     ??___fldiv:
   447                           
   448                           ; 1 bytes @ 0x12
   449  0032                     	ds	5
   450  0037                     ___fldiv@rem:
   451                           
   452                           ; 4 bytes @ 0x17
   453  0037                     	ds	4
   454  003B                     ___fldiv@sign:
   455                           
   456                           ; 1 bytes @ 0x1B
   457  003B                     	ds	1
   458  003C                     ___fldiv@new_exp:
   459                           
   460                           ; 2 bytes @ 0x1C
   461  003C                     	ds	2
   462  003E                     ___fldiv@grs:
   463                           
   464                           ; 4 bytes @ 0x1E
   465  003E                     	ds	4
   466  0042                     ___fldiv@bexp:
   467                           
   468                           ; 1 bytes @ 0x22
   469  0042                     	ds	1
   470  0043                     ___fldiv@aexp:
   471                           
   472                           ; 1 bytes @ 0x23
   473  0043                     	ds	1
   474  0044                     ?___flmul:
   475  0044                     ___flmul@b:	
   476                           ; 4 bytes @ 0x24
   477                           
   478                           
   479                           ; 4 bytes @ 0x24
   480  0044                     	ds	4
   481  0048                     ___flmul@a:
   482                           
   483                           ; 4 bytes @ 0x28
   484  0048                     	ds	4
   485  004C                     ??___flmul:
   486                           
   487                           ; 1 bytes @ 0x2C
   488  004C                     	ds	5
   489  0051                     ___flmul@sign:
   490                           
   491                           ; 1 bytes @ 0x31
   492  0051                     	ds	1
   493  0052                     ___flmul@aexp:
   494                           
   495                           ; 1 bytes @ 0x32
   496  0052                     	ds	1
   497  0053                     ___flmul@grs:
   498                           
   499                           ; 4 bytes @ 0x33
   500  0053                     	ds	4
   501  0057                     ___flmul@bexp:
   502                           
   503                           ; 1 bytes @ 0x37
   504  0057                     	ds	1
   505  0058                     ___flmul@prod:
   506                           
   507                           ; 4 bytes @ 0x38
   508  0058                     	ds	4
   509  005C                     ___flmul@temp:
   510                           
   511                           ; 2 bytes @ 0x3C
   512  005C                     	ds	2
   513  005E                     ?___fladd:
   514  005E                     ___fladd@b:	
   515                           ; 4 bytes @ 0x3E
   516                           
   517                           
   518                           ; 4 bytes @ 0x3E
   519  005E                     	ds	4
   520  0062                     ___fladd@a:
   521                           
   522                           ; 4 bytes @ 0x42
   523  0062                     	ds	4
   524  0066                     ??___fladd:
   525                           
   526                           ; 1 bytes @ 0x46
   527  0066                     	ds	8
   528  006E                     ??_SERVO_1:
   529  006E                     ??_SERVO_2:	
   530                           ; 1 bytes @ 0x4E
   531                           
   532                           
   533                           ; 1 bytes @ 0x4E
   534  006E                     	ds	2
   535                           
   536                           	psect	maintext
   537  0C2E                     __pmaintext:	
   538 ;;
   539 ;;Main: autosize = 0, tempsize = 1, incstack = 0, save=0
   540 ;;
   541 ;; *************** function _main *****************
   542 ;; Defined at:
   543 ;;		line 78 in file "main_S1.c"
   544 ;; Parameters:    Size  Location     Type
   545 ;;		None
   546 ;; Auto vars:     Size  Location     Type
   547 ;;		None
   548 ;; Return value:  Size  Location     Type
   549 ;;                  1    wreg      void 
   550 ;; Registers used:
   551 ;;		wreg, status,2, status,0, btemp+1, pclath, cstack
   552 ;; Tracked objects:
   553 ;;		On entry : B00/0
   554 ;;		On exit  : 0/0
   555 ;;		Unchanged: 0/0
   556 ;; Data sizes:     COMMON   BANK0   BANK1   BANK3   BANK2
   557 ;;      Params:         0       0       0       0       0
   558 ;;      Locals:         0       0       0       0       0
   559 ;;      Temps:          0       0       1       0       0
   560 ;;      Totals:         0       0       1       0       0
   561 ;;Total ram usage:        1 bytes
   562 ;; Hardware stack levels required when called: 5
   563 ;; This function calls:
   564 ;;		_SERVO_1
   565 ;;		_SERVO_2
   566 ;;		_setup
   567 ;; This function is called by:
   568 ;;		Startup code after reset
   569 ;; This function uses a non-reentrant model
   570 ;;
   571                           
   572  0C2E                     _main:	
   573                           ;psect for function _main
   574                           
   575  0C2E                     l2650:	
   576                           ;incstack = 0
   577                           ; Regs used in _main: [wreg+status,2+status,0+btemp+1+pclath+cstack]
   578                           
   579                           
   580                           ;main_S1.c: 79:     setup();
   581  0C2E  120A  158A  24D6  120A  158A  	fcall	_setup
   582  0C33                     l2652:
   583                           
   584                           ;main_S1.c: 82:         if(old_dato != dato){
   585  0C33  1683               	bsf	3,5	;RP0=1, select bank1
   586  0C34  1303               	bcf	3,6	;RP1=0, select bank1
   587  0C35  0839               	movf	_old_dato^(0+128),w
   588  0C36  063D               	xorwf	_dato^(0+128),w
   589  0C37  1903               	skipnz
   590  0C38  2C3A               	goto	u4381
   591  0C39  2C3B               	goto	u4380
   592  0C3A                     u4381:
   593  0C3A  2C33               	goto	l2652
   594  0C3B                     u4380:
   595  0C3B                     l2654:
   596                           
   597                           ;main_S1.c: 83:             check = dato & 0x01;
   598  0C3B  083D               	movf	_dato^(0+128),w
   599  0C3C  3901               	andlw	1
   600  0C3D  00B4               	movwf	??_main^(0+128)
   601  0C3E  0834               	movf	??_main^(0+128),w
   602  0C3F  00BC               	movwf	_check^(0+128)
   603  0C40                     l2656:
   604                           
   605                           ;main_S1.c: 85:             if(check == 0b0){
   606  0C40  083C               	movf	_check^(0+128),w
   607  0C41  1D03               	btfss	3,2
   608  0C42  2C44               	goto	u4391
   609  0C43  2C45               	goto	u4390
   610  0C44                     u4391:
   611  0C44  2C4C               	goto	l2660
   612  0C45                     u4390:
   613  0C45                     l2658:
   614                           
   615                           ;main_S1.c: 86:                 SERVO_1(POT1);
   616  0C45  3000               	movlw	0
   617  0C46  120A  158A  2497  120A  158A  	fcall	_SERVO_1
   618                           
   619                           ;main_S1.c: 87:             }else if(check == 0b1){
   620  0C4B  2C57               	goto	l2664
   621  0C4C                     l2660:
   622  0C4C  033C               	decf	_check^(0+128),w
   623  0C4D  1D03               	btfss	3,2
   624  0C4E  2C50               	goto	u4401
   625  0C4F  2C51               	goto	u4400
   626  0C50                     u4401:
   627  0C50  2C57               	goto	l2664
   628  0C51                     u4400:
   629  0C51                     l2662:
   630                           
   631                           ;main_S1.c: 88:                 SERVO_2(POT2);
   632  0C51  3000               	movlw	0
   633  0C52  120A  158A  2520  120A  158A  	fcall	_SERVO_2
   634  0C57                     l2664:
   635                           
   636                           ;main_S1.c: 90:             old_dato = dato;
   637  0C57  1683               	bsf	3,5	;RP0=1, select bank1
   638  0C58  1303               	bcf	3,6	;RP1=0, select bank1
   639  0C59  083D               	movf	_dato^(0+128),w
   640  0C5A  00B4               	movwf	??_main^(0+128)
   641  0C5B  0834               	movf	??_main^(0+128),w
   642  0C5C  00B9               	movwf	_old_dato^(0+128)
   643  0C5D  2C33               	goto	l2652
   644  0C5E  120A  118A  280C   	ljmp	start
   645  0C61                     __end_of_main:
   646                           
   647                           	psect	text1
   648  0CD6                     __ptext1:	
   649 ;; *************** function _setup *****************
   650 ;; Defined at:
   651 ;;		line 97 in file "main_S1.c"
   652 ;; Parameters:    Size  Location     Type
   653 ;;		None
   654 ;; Auto vars:     Size  Location     Type
   655 ;;		None
   656 ;; Return value:  Size  Location     Type
   657 ;;                  1    wreg      void 
   658 ;; Registers used:
   659 ;;		wreg, status,2, status,0
   660 ;; Tracked objects:
   661 ;;		On entry : 0/0
   662 ;;		On exit  : 0/0
   663 ;;		Unchanged: 0/0
   664 ;; Data sizes:     COMMON   BANK0   BANK1   BANK3   BANK2
   665 ;;      Params:         0       0       0       0       0
   666 ;;      Locals:         0       0       0       0       0
   667 ;;      Temps:          0       0       0       0       0
   668 ;;      Totals:         0       0       0       0       0
   669 ;;Total ram usage:        0 bytes
   670 ;; Hardware stack levels used: 1
   671 ;; Hardware stack levels required when called: 1
   672 ;; This function calls:
   673 ;;		Nothing
   674 ;; This function is called by:
   675 ;;		_main
   676 ;; This function uses a non-reentrant model
   677 ;;
   678                           
   679  0CD6                     _setup:	
   680                           ;psect for function _setup
   681                           
   682  0CD6                     l1954:	
   683                           ;incstack = 0
   684                           ; Regs used in _setup: [wreg+status,2+status,0]
   685                           
   686                           
   687                           ;main_S1.c: 99:     ANSEL = 0x00;
   688  0CD6  1683               	bsf	3,5	;RP0=1, select bank3
   689  0CD7  1703               	bsf	3,6	;RP1=1, select bank3
   690  0CD8  0188               	clrf	8	;volatile
   691                           
   692                           ;main_S1.c: 100:     ANSELH = 0x00;
   693  0CD9  0189               	clrf	9	;volatile
   694  0CDA                     l1956:
   695                           
   696                           ;main_S1.c: 102:     OSCCONbits.IRCF = 0b0100;
   697  0CDA  1683               	bsf	3,5	;RP0=1, select bank1
   698  0CDB  1303               	bcf	3,6	;RP1=0, select bank1
   699  0CDC  080F               	movf	15,w	;volatile
   700  0CDD  398F               	andlw	-113
   701  0CDE  3840               	iorlw	64
   702  0CDF  008F               	movwf	15	;volatile
   703  0CE0                     l1958:
   704                           
   705                           ;main_S1.c: 103:     OSCCONbits.SCS = 1;
   706  0CE0  140F               	bsf	15,0	;volatile
   707  0CE1                     l1960:
   708                           
   709                           ;main_S1.c: 105:     PORTC = 0x00;
   710  0CE1  1283               	bcf	3,5	;RP0=0, select bank0
   711  0CE2  1303               	bcf	3,6	;RP1=0, select bank0
   712  0CE3  0187               	clrf	7	;volatile
   713  0CE4                     l1962:
   714                           
   715                           ;main_S1.c: 106:     TRISC = 0b00011000;
   716  0CE4  3018               	movlw	24
   717  0CE5  1683               	bsf	3,5	;RP0=1, select bank1
   718  0CE6  1303               	bcf	3,6	;RP1=0, select bank1
   719  0CE7  0087               	movwf	7	;volatile
   720  0CE8                     l1964:
   721                           
   722                           ;main_S1.c: 109:     TRISCbits.TRISC2 = 1;
   723  0CE8  1507               	bsf	7,2	;volatile
   724  0CE9                     l1966:
   725                           
   726                           ;main_S1.c: 110:     TRISCbits.TRISC1 = 1;
   727  0CE9  1487               	bsf	7,1	;volatile
   728  0CEA                     l1968:
   729                           
   730                           ;main_S1.c: 111:     PR2 = 31;
   731  0CEA  301F               	movlw	31
   732  0CEB  0092               	movwf	18	;volatile
   733  0CEC                     l1970:
   734                           
   735                           ;main_S1.c: 114:     CCP1CON = 0;
   736  0CEC  1283               	bcf	3,5	;RP0=0, select bank0
   737  0CED  1303               	bcf	3,6	;RP1=0, select bank0
   738  0CEE  0197               	clrf	23	;volatile
   739  0CEF                     l1972:
   740                           
   741                           ;main_S1.c: 115:     CCP2CON = 0;
   742  0CEF  019D               	clrf	29	;volatile
   743                           
   744                           ;main_S1.c: 116:     CCP1CONbits.P1M = 0;
   745  0CF0  303F               	movlw	-193
   746  0CF1  0597               	andwf	23,f	;volatile
   747                           
   748                           ;main_S1.c: 117:     CCP1CONbits.CCP1M = 0b1100;
   749  0CF2  0817               	movf	23,w	;volatile
   750  0CF3  39F0               	andlw	-16
   751  0CF4  380C               	iorlw	12
   752  0CF5  0097               	movwf	23	;volatile
   753                           
   754                           ;main_S1.c: 118:     CCP2CONbits.CCP2M = 0b1100;
   755  0CF6  081D               	movf	29,w	;volatile
   756  0CF7  39F0               	andlw	-16
   757  0CF8  380C               	iorlw	12
   758  0CF9  009D               	movwf	29	;volatile
   759  0CFA                     l1974:
   760                           
   761                           ;main_S1.c: 120:     CCPR1L = 32>>2;
   762  0CFA  3008               	movlw	8
   763  0CFB  0095               	movwf	21	;volatile
   764  0CFC                     l1976:
   765                           
   766                           ;main_S1.c: 121:     CCP1CONbits.DC1B = 32 & 0b11;
   767  0CFC  30CF               	movlw	-49
   768  0CFD  0597               	andwf	23,f	;volatile
   769                           
   770                           ;main_S1.c: 123:     CCPR2L = 32>>2;
   771  0CFE  3008               	movlw	8
   772  0CFF  009B               	movwf	27	;volatile
   773  0D00                     l1978:
   774                           
   775                           ;main_S1.c: 124:     CCP2CONbits.DC2B0 = 32 & 0b01;
   776  0D00  121D               	bcf	29,4	;volatile
   777  0D01                     l1980:
   778                           
   779                           ;main_S1.c: 125:     CCP2CONbits.DC2B1 = (32 & 0b10)>>1;
   780  0D01  129D               	bcf	29,5	;volatile
   781  0D02                     l1982:
   782                           
   783                           ;main_S1.c: 127:     PIR1bits.TMR2IF = 0;
   784  0D02  108C               	bcf	12,1	;volatile
   785  0D03                     l1984:
   786                           
   787                           ;main_S1.c: 128:     T2CONbits.T2CKPS = 0b11;
   788  0D03  3003               	movlw	3
   789  0D04  0492               	iorwf	18,f	;volatile
   790  0D05                     l1986:
   791                           
   792                           ;main_S1.c: 129:     T2CONbits.TMR2ON = 1;
   793  0D05  1512               	bsf	18,2	;volatile
   794  0D06                     l94:	
   795                           ;main_S1.c: 130:     while(!PIR1bits.TMR2IF);
   796                           
   797  0D06  1C8C               	btfss	12,1	;volatile
   798  0D07  2D09               	goto	u2891
   799  0D08  2D0A               	goto	u2890
   800  0D09                     u2891:
   801  0D09  2D06               	goto	l94
   802  0D0A                     u2890:
   803  0D0A                     l96:
   804                           
   805                           ;main_S1.c: 131:     PIR1bits.TMR2IF = 0;
   806  0D0A  108C               	bcf	12,1	;volatile
   807                           
   808                           ;main_S1.c: 133:     TRISCbits.TRISC2 = 0;
   809  0D0B  1683               	bsf	3,5	;RP0=1, select bank1
   810  0D0C  1303               	bcf	3,6	;RP1=0, select bank1
   811  0D0D  1107               	bcf	7,2	;volatile
   812                           
   813                           ;main_S1.c: 134:     TRISCbits.TRISC1 = 0;
   814  0D0E  1087               	bcf	7,1	;volatile
   815  0D0F                     l1988:
   816                           
   817                           ;main_S1.c: 137:     SSPADD = 0x10;
   818  0D0F  3010               	movlw	16
   819  0D10  0093               	movwf	19	;volatile
   820  0D11                     l1990:
   821                           
   822                           ;main_S1.c: 138:     SSPSTATbits.SMP = 1;
   823  0D11  1794               	bsf	20,7	;volatile
   824  0D12                     l1992:
   825                           
   826                           ;main_S1.c: 139:     SSPCONbits.SSPM = 0b0110;
   827  0D12  1283               	bcf	3,5	;RP0=0, select bank0
   828  0D13  1303               	bcf	3,6	;RP1=0, select bank0
   829  0D14  0814               	movf	20,w	;volatile
   830  0D15  39F0               	andlw	-16
   831  0D16  3806               	iorlw	6
   832  0D17  0094               	movwf	20	;volatile
   833  0D18                     l1994:
   834                           
   835                           ;main_S1.c: 140:     SSPCONbits.SSPEN = 1;
   836  0D18  1694               	bsf	20,5	;volatile
   837  0D19                     l1996:
   838                           
   839                           ;main_S1.c: 143:     PIR1bits.SSPIF = 0;
   840  0D19  118C               	bcf	12,3	;volatile
   841  0D1A                     l1998:
   842                           
   843                           ;main_S1.c: 144:     PIE1bits.SSPIE = 1;
   844  0D1A  1683               	bsf	3,5	;RP0=1, select bank1
   845  0D1B  1303               	bcf	3,6	;RP1=0, select bank1
   846  0D1C  158C               	bsf	12,3	;volatile
   847  0D1D                     l2000:
   848                           
   849                           ;main_S1.c: 145:     INTCONbits.PEIE = 1;
   850  0D1D  170B               	bsf	11,6	;volatile
   851  0D1E                     l2002:
   852                           
   853                           ;main_S1.c: 146:     INTCONbits.GIE = 1;
   854  0D1E  178B               	bsf	11,7	;volatile
   855  0D1F                     l97:
   856  0D1F  0008               	return
   857  0D20                     __end_of_setup:
   858                           
   859                           	psect	text2
   860  0D20                     __ptext2:	
   861 ;; *************** function _SERVO_2 *****************
   862 ;; Defined at:
   863 ;;		line 156 in file "main_S1.c"
   864 ;; Parameters:    Size  Location     Type
   865 ;;  val             1    wreg     unsigned char 
   866 ;; Auto vars:     Size  Location     Type
   867 ;;  val             1   19[BANK1 ] unsigned char 
   868 ;; Return value:  Size  Location     Type
   869 ;;                  1    wreg      void 
   870 ;; Registers used:
   871 ;;		wreg, status,2, status,0, btemp+1, pclath, cstack
   872 ;; Tracked objects:
   873 ;;		On entry : 0/0
   874 ;;		On exit  : 0/0
   875 ;;		Unchanged: 0/0
   876 ;; Data sizes:     COMMON   BANK0   BANK1   BANK3   BANK2
   877 ;;      Params:         0       0       0       0       0
   878 ;;      Locals:         0       0       1       0       0
   879 ;;      Temps:          0       2       0       0       0
   880 ;;      Totals:         0       2       1       0       0
   881 ;;Total ram usage:        3 bytes
   882 ;; Hardware stack levels used: 1
   883 ;; Hardware stack levels required when called: 4
   884 ;; This function calls:
   885 ;;		_map
   886 ;; This function is called by:
   887 ;;		_main
   888 ;; This function uses a non-reentrant model
   889 ;;
   890                           
   891  0D20                     _SERVO_2:	
   892                           ;psect for function _SERVO_2
   893                           
   894                           
   895                           ;incstack = 0
   896                           ; Regs used in _SERVO_2: [wreg+status,2+status,0+btemp+1+pclath+cstack]
   897                           ;SERVO_2@val stored from wreg
   898  0D20  1683               	bsf	3,5	;RP0=1, select bank1
   899  0D21  1303               	bcf	3,6	;RP1=0, select bank1
   900  0D22  00B3               	movwf	SERVO_2@val^(0+128)
   901  0D23                     l2642:
   902                           
   903                           ;main_S1.c: 157:     CCP2 = map(val, 0, 127, 0, 125);
   904  0D23  01AD               	clrf	map@x0^(0+128)
   905  0D24  307F               	movlw	127
   906  0D25  1283               	bcf	3,5	;RP0=0, select bank0
   907  0D26  1303               	bcf	3,6	;RP1=0, select bank0
   908  0D27  00EE               	movwf	??_SERVO_2
   909  0D28  086E               	movf	??_SERVO_2,w
   910  0D29  1683               	bsf	3,5	;RP0=1, select bank1
   911  0D2A  1303               	bcf	3,6	;RP1=0, select bank1
   912  0D2B  00AE               	movwf	map@x1^(0+128)
   913  0D2C  3000               	movlw	0
   914  0D2D  00AF               	movwf	map@y0^(0+128)
   915  0D2E  00B0               	movwf	(map@y0+1)^(0+128)
   916  0D2F  307D               	movlw	125
   917  0D30  00B1               	movwf	map@y1^(0+128)
   918  0D31  3000               	movlw	0
   919  0D32  00B2               	movwf	(map@y1^(0+128)+1)
   920  0D33  0833               	movf	SERVO_2@val^(0+128),w
   921  0D34  120A  158A  256D  120A  158A  	fcall	_map
   922  0D39  1683               	bsf	3,5	;RP0=1, select bank1
   923  0D3A  1303               	bcf	3,6	;RP1=0, select bank1
   924  0D3B  082E               	movf	(?_map+1)^(0+128),w
   925  0D3C  00B6               	movwf	(_CCP2+1)^(0+128)
   926  0D3D  082D               	movf	?_map^(0+128),w
   927  0D3E  00B5               	movwf	_CCP2^(0+128)
   928  0D3F                     l2644:
   929                           
   930                           ;main_S1.c: 158:     CCPR2L = (uint8_t)(CCP2>>2);
   931  0D3F  0836               	movf	(_CCP2+1)^(0+128),w
   932  0D40  1283               	bcf	3,5	;RP0=0, select bank0
   933  0D41  1303               	bcf	3,6	;RP1=0, select bank0
   934  0D42  00EF               	movwf	??_SERVO_2+1
   935  0D43  1683               	bsf	3,5	;RP0=1, select bank1
   936  0D44  1303               	bcf	3,6	;RP1=0, select bank1
   937  0D45  0835               	movf	_CCP2^(0+128),w
   938  0D46  1283               	bcf	3,5	;RP0=0, select bank0
   939  0D47  1303               	bcf	3,6	;RP1=0, select bank0
   940  0D48  00EE               	movwf	??_SERVO_2
   941  0D49  1003               	clrc
   942  0D4A  0CEF               	rrf	??_SERVO_2+1,f
   943  0D4B  0CEE               	rrf	??_SERVO_2,f
   944  0D4C  1003               	clrc
   945  0D4D  0CEF               	rrf	??_SERVO_2+1,f
   946  0D4E  0CEE               	rrf	??_SERVO_2,f
   947  0D4F  086E               	movf	??_SERVO_2,w
   948  0D50  009B               	movwf	27	;volatile
   949  0D51                     l2646:
   950                           
   951                           ;main_S1.c: 159:     CCP2CONbits.DC2B0 = CCP2 & 0b01;
   952  0D51  1683               	bsf	3,5	;RP0=1, select bank1
   953  0D52  1303               	bcf	3,6	;RP1=0, select bank1
   954  0D53  0835               	movf	_CCP2^(0+128),w
   955  0D54  3901               	andlw	1
   956  0D55  1283               	bcf	3,5	;RP0=0, select bank0
   957  0D56  1303               	bcf	3,6	;RP1=0, select bank0
   958  0D57  00EE               	movwf	??_SERVO_2
   959  0D58  0EEE               	swapf	??_SERVO_2,f
   960  0D59  081D               	movf	29,w	;volatile
   961  0D5A  066E               	xorwf	??_SERVO_2,w
   962  0D5B  39EF               	andlw	-17
   963  0D5C  066E               	xorwf	??_SERVO_2,w
   964  0D5D  009D               	movwf	29	;volatile
   965  0D5E                     l2648:
   966                           
   967                           ;main_S1.c: 160:     CCP2CONbits.DC2B1 = CCP2 & 0b10;
   968  0D5E  1683               	bsf	3,5	;RP0=1, select bank1
   969  0D5F  1303               	bcf	3,6	;RP1=0, select bank1
   970  0D60  0835               	movf	_CCP2^(0+128),w
   971  0D61  3902               	andlw	2
   972  0D62  1283               	bcf	3,5	;RP0=0, select bank0
   973  0D63  1303               	bcf	3,6	;RP1=0, select bank0
   974  0D64  00EE               	movwf	??_SERVO_2
   975  0D65  0EEE               	swapf	??_SERVO_2,f
   976  0D66  0DEE               	rlf	??_SERVO_2,f
   977  0D67  081D               	movf	29,w	;volatile
   978  0D68  066E               	xorwf	??_SERVO_2,w
   979  0D69  39DF               	andlw	-33
   980  0D6A  066E               	xorwf	??_SERVO_2,w
   981  0D6B  009D               	movwf	29	;volatile
   982  0D6C                     l103:
   983  0D6C  0008               	return
   984  0D6D                     __end_of_SERVO_2:
   985                           
   986                           	psect	text3
   987  0C97                     __ptext3:	
   988 ;; *************** function _SERVO_1 *****************
   989 ;; Defined at:
   990 ;;		line 150 in file "main_S1.c"
   991 ;; Parameters:    Size  Location     Type
   992 ;;  val             1    wreg     unsigned char 
   993 ;; Auto vars:     Size  Location     Type
   994 ;;  val             1   19[BANK1 ] unsigned char 
   995 ;; Return value:  Size  Location     Type
   996 ;;                  1    wreg      void 
   997 ;; Registers used:
   998 ;;		wreg, status,2, status,0, btemp+1, pclath, cstack
   999 ;; Tracked objects:
  1000 ;;		On entry : 0/0
  1001 ;;		On exit  : 0/0
  1002 ;;		Unchanged: 0/0
  1003 ;; Data sizes:     COMMON   BANK0   BANK1   BANK3   BANK2
  1004 ;;      Params:         0       0       0       0       0
  1005 ;;      Locals:         0       0       1       0       0
  1006 ;;      Temps:          0       2       0       0       0
  1007 ;;      Totals:         0       2       1       0       0
  1008 ;;Total ram usage:        3 bytes
  1009 ;; Hardware stack levels used: 1
  1010 ;; Hardware stack levels required when called: 4
  1011 ;; This function calls:
  1012 ;;		_map
  1013 ;; This function is called by:
  1014 ;;		_main
  1015 ;; This function uses a non-reentrant model
  1016 ;;
  1017                           
  1018  0C97                     _SERVO_1:	
  1019                           ;psect for function _SERVO_1
  1020                           
  1021                           
  1022                           ;incstack = 0
  1023                           ; Regs used in _SERVO_1: [wreg+status,2+status,0+btemp+1+pclath+cstack]
  1024                           ;SERVO_1@val stored from wreg
  1025  0C97  1683               	bsf	3,5	;RP0=1, select bank1
  1026  0C98  1303               	bcf	3,6	;RP1=0, select bank1
  1027  0C99  00B3               	movwf	SERVO_1@val^(0+128)
  1028  0C9A                     l2636:
  1029                           
  1030                           ;main_S1.c: 151:     CCP1 = map(val, 0, 127, 0, 125);
  1031  0C9A  01AD               	clrf	map@x0^(0+128)
  1032  0C9B  307F               	movlw	127
  1033  0C9C  1283               	bcf	3,5	;RP0=0, select bank0
  1034  0C9D  1303               	bcf	3,6	;RP1=0, select bank0
  1035  0C9E  00EE               	movwf	??_SERVO_1
  1036  0C9F  086E               	movf	??_SERVO_1,w
  1037  0CA0  1683               	bsf	3,5	;RP0=1, select bank1
  1038  0CA1  1303               	bcf	3,6	;RP1=0, select bank1
  1039  0CA2  00AE               	movwf	map@x1^(0+128)
  1040  0CA3  3000               	movlw	0
  1041  0CA4  00AF               	movwf	map@y0^(0+128)
  1042  0CA5  00B0               	movwf	(map@y0+1)^(0+128)
  1043  0CA6  307D               	movlw	125
  1044  0CA7  00B1               	movwf	map@y1^(0+128)
  1045  0CA8  3000               	movlw	0
  1046  0CA9  00B2               	movwf	(map@y1^(0+128)+1)
  1047  0CAA  0833               	movf	SERVO_1@val^(0+128),w
  1048  0CAB  120A  158A  256D  120A  158A  	fcall	_map
  1049  0CB0  1683               	bsf	3,5	;RP0=1, select bank1
  1050  0CB1  1303               	bcf	3,6	;RP1=0, select bank1
  1051  0CB2  082E               	movf	(?_map+1)^(0+128),w
  1052  0CB3  00B8               	movwf	(_CCP1+1)^(0+128)
  1053  0CB4  082D               	movf	?_map^(0+128),w
  1054  0CB5  00B7               	movwf	_CCP1^(0+128)
  1055  0CB6                     l2638:
  1056                           
  1057                           ;main_S1.c: 152:     CCPR1L = (uint8_t)(CCP1>>2);
  1058  0CB6  0838               	movf	(_CCP1+1)^(0+128),w
  1059  0CB7  1283               	bcf	3,5	;RP0=0, select bank0
  1060  0CB8  1303               	bcf	3,6	;RP1=0, select bank0
  1061  0CB9  00EF               	movwf	??_SERVO_1+1
  1062  0CBA  1683               	bsf	3,5	;RP0=1, select bank1
  1063  0CBB  1303               	bcf	3,6	;RP1=0, select bank1
  1064  0CBC  0837               	movf	_CCP1^(0+128),w
  1065  0CBD  1283               	bcf	3,5	;RP0=0, select bank0
  1066  0CBE  1303               	bcf	3,6	;RP1=0, select bank0
  1067  0CBF  00EE               	movwf	??_SERVO_1
  1068  0CC0  1003               	clrc
  1069  0CC1  0CEF               	rrf	??_SERVO_1+1,f
  1070  0CC2  0CEE               	rrf	??_SERVO_1,f
  1071  0CC3  1003               	clrc
  1072  0CC4  0CEF               	rrf	??_SERVO_1+1,f
  1073  0CC5  0CEE               	rrf	??_SERVO_1,f
  1074  0CC6  086E               	movf	??_SERVO_1,w
  1075  0CC7  0095               	movwf	21	;volatile
  1076  0CC8                     l2640:
  1077                           
  1078                           ;main_S1.c: 153:     CCP1CONbits.DC1B = CCP1 & 0b11;
  1079  0CC8  1683               	bsf	3,5	;RP0=1, select bank1
  1080  0CC9  1303               	bcf	3,6	;RP1=0, select bank1
  1081  0CCA  0837               	movf	_CCP1^(0+128),w
  1082  0CCB  3903               	andlw	3
  1083  0CCC  1283               	bcf	3,5	;RP0=0, select bank0
  1084  0CCD  1303               	bcf	3,6	;RP1=0, select bank0
  1085  0CCE  00EE               	movwf	??_SERVO_1
  1086  0CCF  0EEE               	swapf	??_SERVO_1,f
  1087  0CD0  0817               	movf	23,w	;volatile
  1088  0CD1  066E               	xorwf	??_SERVO_1,w
  1089  0CD2  39CF               	andlw	-49
  1090  0CD3  066E               	xorwf	??_SERVO_1,w
  1091  0CD4  0097               	movwf	23	;volatile
  1092  0CD5                     l100:
  1093  0CD5  0008               	return
  1094  0CD6                     __end_of_SERVO_1:
  1095                           
  1096                           	psect	text4
  1097  0D6D                     __ptext4:	
  1098 ;; *************** function _map *****************
  1099 ;; Defined at:
  1100 ;;		line 164 in file "main_S1.c"
  1101 ;; Parameters:    Size  Location     Type
  1102 ;;  x               1    wreg     unsigned char 
  1103 ;;  x0              1   13[BANK1 ] unsigned char 
  1104 ;;  x1              1   14[BANK1 ] unsigned char 
  1105 ;;  y0              2   15[BANK1 ] unsigned short 
  1106 ;;  y1              2   17[BANK1 ] unsigned short 
  1107 ;; Auto vars:     Size  Location     Type
  1108 ;;  x               1    9[COMMON] unsigned char 
  1109 ;; Return value:  Size  Location     Type
  1110 ;;                  2   13[BANK1 ] unsigned short 
  1111 ;; Registers used:
  1112 ;;		wreg, status,2, status,0, btemp+1, pclath, cstack
  1113 ;; Tracked objects:
  1114 ;;		On entry : 0/0
  1115 ;;		On exit  : 0/0
  1116 ;;		Unchanged: 0/0
  1117 ;; Data sizes:     COMMON   BANK0   BANK1   BANK3   BANK2
  1118 ;;      Params:         0       0       6       0       0
  1119 ;;      Locals:         1       0       0       0       0
  1120 ;;      Temps:          0       0       0       0       0
  1121 ;;      Totals:         1       0       6       0       0
  1122 ;;Total ram usage:        7 bytes
  1123 ;; Hardware stack levels used: 1
  1124 ;; Hardware stack levels required when called: 3
  1125 ;; This function calls:
  1126 ;;		___fladd
  1127 ;;		___fldiv
  1128 ;;		___flmul
  1129 ;;		___fltol
  1130 ;;		___xxtofl
  1131 ;; This function is called by:
  1132 ;;		_SERVO_1
  1133 ;;		_SERVO_2
  1134 ;; This function uses a non-reentrant model
  1135 ;;
  1136                           
  1137  0D6D                     _map:	
  1138                           ;psect for function _map
  1139                           
  1140                           
  1141                           ;incstack = 0
  1142                           ; Regs used in _map: [wreg+status,2+status,0+btemp+1+pclath+cstack]
  1143                           ;map@x stored from wreg
  1144  0D6D  00F9               	movwf	map@x
  1145  0D6E                     l2632:
  1146                           
  1147                           ;main_S1.c: 164: unsigned short map(uint8_t x, uint8_t x0, uint8_t x1,;main_S1.c: 165:  
      +                                     unsigned short y0, unsigned short y1){;main_S1.c: 166:     return (unsigned s
      +                          hort)(y0+((float)(y1-y0)/(x1-x0))*(x-x0));
  1148  0D6E  1683               	bsf	3,5	;RP0=1, select bank1
  1149  0D6F  1303               	bcf	3,6	;RP1=0, select bank1
  1150  0D70  082F               	movf	map@y0^(0+128),w
  1151  0D71  00F3               	movwf	___xxtofl@val
  1152  0D72  0830               	movf	(map@y0+1)^(0+128),w
  1153  0D73  00F4               	movwf	___xxtofl@val+1
  1154  0D74  01F5               	clrf	___xxtofl@val+2
  1155  0D75  01F6               	clrf	___xxtofl@val+3
  1156  0D76  3000               	movlw	0
  1157  0D77  120A  118A  26C0  120A  158A  	fcall	___xxtofl
  1158  0D7C  0876               	movf	?___xxtofl+3,w
  1159  0D7D  1283               	bcf	3,5	;RP0=0, select bank0
  1160  0D7E  1303               	bcf	3,6	;RP1=0, select bank0
  1161  0D7F  00E5               	movwf	___fladd@a+3
  1162  0D80  0875               	movf	?___xxtofl+2,w
  1163  0D81  00E4               	movwf	___fladd@a+2
  1164  0D82  0874               	movf	?___xxtofl+1,w
  1165  0D83  00E3               	movwf	___fladd@a+1
  1166  0D84  0873               	movf	?___xxtofl,w
  1167  0D85  00E2               	movwf	___fladd@a
  1168  0D86  1683               	bsf	3,5	;RP0=1, select bank1
  1169  0D87  1303               	bcf	3,6	;RP1=0, select bank1
  1170  0D88  082F               	movf	map@y0^(0+128),w
  1171  0D89  0231               	subwf	map@y1^(0+128),w
  1172  0D8A  00F3               	movwf	___xxtofl@val
  1173  0D8B  0830               	movf	(map@y0+1)^(0+128),w
  1174  0D8C  1C03               	skipc
  1175  0D8D  0A30               	incf	(map@y0+1)^(0+128),w
  1176  0D8E  0232               	subwf	(map@y1+1)^(0+128),w
  1177  0D8F  00F4               	movwf	___xxtofl@val+1
  1178  0D90  01F5               	clrf	___xxtofl@val+2
  1179  0D91  01F6               	clrf	___xxtofl@val+3
  1180  0D92  3000               	movlw	0
  1181  0D93  120A  118A  26C0  120A  158A  	fcall	___xxtofl
  1182  0D98  0876               	movf	?___xxtofl+3,w
  1183  0D99  1283               	bcf	3,5	;RP0=0, select bank0
  1184  0D9A  1303               	bcf	3,6	;RP1=0, select bank0
  1185  0D9B  00B1               	movwf	___fldiv@b+3
  1186  0D9C  0875               	movf	?___xxtofl+2,w
  1187  0D9D  00B0               	movwf	___fldiv@b+2
  1188  0D9E  0874               	movf	?___xxtofl+1,w
  1189  0D9F  00AF               	movwf	___fldiv@b+1
  1190  0DA0  0873               	movf	?___xxtofl,w
  1191  0DA1  00AE               	movwf	___fldiv@b
  1192  0DA2  1683               	bsf	3,5	;RP0=1, select bank1
  1193  0DA3  1303               	bcf	3,6	;RP1=0, select bank1
  1194  0DA4  082D               	movf	map@x0^(0+128),w
  1195  0DA5  022E               	subwf	map@x1^(0+128),w
  1196  0DA6  00F3               	movwf	___xxtofl@val
  1197  0DA7  01F4               	clrf	___xxtofl@val+1
  1198  0DA8  1C03               	skipc
  1199  0DA9  03F4               	decf	___xxtofl@val+1,f
  1200  0DAA  01F5               	clrf	___xxtofl@val+2
  1201  0DAB  1BF4               	btfsc	___xxtofl@val+1,7
  1202  0DAC  03F5               	decf	___xxtofl@val+2,f
  1203  0DAD  0875               	movf	___xxtofl@val+2,w
  1204  0DAE  00F6               	movwf	___xxtofl@val+3
  1205  0DAF  3001               	movlw	1
  1206  0DB0  120A  118A  26C0  120A  158A  	fcall	___xxtofl
  1207  0DB5  0876               	movf	?___xxtofl+3,w
  1208  0DB6  1283               	bcf	3,5	;RP0=0, select bank0
  1209  0DB7  1303               	bcf	3,6	;RP1=0, select bank0
  1210  0DB8  00AD               	movwf	___fldiv@a+3
  1211  0DB9  0875               	movf	?___xxtofl+2,w
  1212  0DBA  00AC               	movwf	___fldiv@a+2
  1213  0DBB  0874               	movf	?___xxtofl+1,w
  1214  0DBC  00AB               	movwf	___fldiv@a+1
  1215  0DBD  0873               	movf	?___xxtofl,w
  1216  0DBE  00AA               	movwf	___fldiv@a
  1217  0DBF  120A  158A  2623  120A  158A  	fcall	___fldiv
  1218  0DC4  1283               	bcf	3,5	;RP0=0, select bank0
  1219  0DC5  1303               	bcf	3,6	;RP1=0, select bank0
  1220  0DC6  082D               	movf	?___fldiv+3,w
  1221  0DC7  00CB               	movwf	___flmul@a+3
  1222  0DC8  082C               	movf	?___fldiv+2,w
  1223  0DC9  00CA               	movwf	___flmul@a+2
  1224  0DCA  082B               	movf	?___fldiv+1,w
  1225  0DCB  00C9               	movwf	___flmul@a+1
  1226  0DCC  082A               	movf	?___fldiv,w
  1227  0DCD  00C8               	movwf	___flmul@a
  1228  0DCE  1683               	bsf	3,5	;RP0=1, select bank1
  1229  0DCF  1303               	bcf	3,6	;RP1=0, select bank1
  1230  0DD0  082D               	movf	map@x0^(0+128),w
  1231  0DD1  0279               	subwf	map@x,w
  1232  0DD2  00F3               	movwf	___xxtofl@val
  1233  0DD3  01F4               	clrf	___xxtofl@val+1
  1234  0DD4  1C03               	skipc
  1235  0DD5  03F4               	decf	___xxtofl@val+1,f
  1236  0DD6  01F5               	clrf	___xxtofl@val+2
  1237  0DD7  1BF4               	btfsc	___xxtofl@val+1,7
  1238  0DD8  03F5               	decf	___xxtofl@val+2,f
  1239  0DD9  0875               	movf	___xxtofl@val+2,w
  1240  0DDA  00F6               	movwf	___xxtofl@val+3
  1241  0DDB  3001               	movlw	1
  1242  0DDC  120A  118A  26C0  120A  158A  	fcall	___xxtofl
  1243  0DE1  0876               	movf	?___xxtofl+3,w
  1244  0DE2  1283               	bcf	3,5	;RP0=0, select bank0
  1245  0DE3  1303               	bcf	3,6	;RP1=0, select bank0
  1246  0DE4  00C7               	movwf	___flmul@b+3
  1247  0DE5  0875               	movf	?___xxtofl+2,w
  1248  0DE6  00C6               	movwf	___flmul@b+2
  1249  0DE7  0874               	movf	?___xxtofl+1,w
  1250  0DE8  00C5               	movwf	___flmul@b+1
  1251  0DE9  0873               	movf	?___xxtofl,w
  1252  0DEA  00C4               	movwf	___flmul@b
  1253  0DEB  120A  118A  201F  120A  158A  	fcall	___flmul
  1254  0DF0  1283               	bcf	3,5	;RP0=0, select bank0
  1255  0DF1  1303               	bcf	3,6	;RP1=0, select bank0
  1256  0DF2  0847               	movf	?___flmul+3,w
  1257  0DF3  00E1               	movwf	___fladd@b+3
  1258  0DF4  0846               	movf	?___flmul+2,w
  1259  0DF5  00E0               	movwf	___fladd@b+2
  1260  0DF6  0845               	movf	?___flmul+1,w
  1261  0DF7  00DF               	movwf	___fladd@b+1
  1262  0DF8  0844               	movf	?___flmul,w
  1263  0DF9  00DE               	movwf	___fladd@b
  1264  0DFA  120A  118A  2380  120A  158A  	fcall	___fladd
  1265  0DFF  1283               	bcf	3,5	;RP0=0, select bank0
  1266  0E00  1303               	bcf	3,6	;RP1=0, select bank0
  1267  0E01  0861               	movf	?___fladd+3,w
  1268  0E02  1683               	bsf	3,5	;RP0=1, select bank1
  1269  0E03  1303               	bcf	3,6	;RP1=0, select bank1
  1270  0E04  00A7               	movwf	(___fltol@f1+3)^(0+128)
  1271  0E05  1283               	bcf	3,5	;RP0=0, select bank0
  1272  0E06  1303               	bcf	3,6	;RP1=0, select bank0
  1273  0E07  0860               	movf	?___fladd+2,w
  1274  0E08  1683               	bsf	3,5	;RP0=1, select bank1
  1275  0E09  1303               	bcf	3,6	;RP1=0, select bank1
  1276  0E0A  00A6               	movwf	(___fltol@f1+2)^(0+128)
  1277  0E0B  1283               	bcf	3,5	;RP0=0, select bank0
  1278  0E0C  1303               	bcf	3,6	;RP1=0, select bank0
  1279  0E0D  085F               	movf	?___fladd+1,w
  1280  0E0E  1683               	bsf	3,5	;RP0=1, select bank1
  1281  0E0F  1303               	bcf	3,6	;RP1=0, select bank1
  1282  0E10  00A5               	movwf	(___fltol@f1+1)^(0+128)
  1283  0E11  1283               	bcf	3,5	;RP0=0, select bank0
  1284  0E12  1303               	bcf	3,6	;RP1=0, select bank0
  1285  0E13  085E               	movf	?___fladd,w
  1286  0E14  1683               	bsf	3,5	;RP0=1, select bank1
  1287  0E15  1303               	bcf	3,6	;RP1=0, select bank1
  1288  0E16  00A4               	movwf	___fltol@f1^(0+128)
  1289  0E17  120A  118A  277C  120A  158A  	fcall	___fltol
  1290  0E1C  1683               	bsf	3,5	;RP0=1, select bank1
  1291  0E1D  1303               	bcf	3,6	;RP1=0, select bank1
  1292  0E1E  0825               	movf	(?___fltol+1)^(0+128),w
  1293  0E1F  00AE               	movwf	(?_map+1)^(0+128)
  1294  0E20  0824               	movf	?___fltol^(0+128),w
  1295  0E21  00AD               	movwf	?_map^(0+128)
  1296  0E22                     l106:
  1297  0E22  0008               	return
  1298  0E23                     __end_of_map:
  1299                           
  1300                           	psect	text5
  1301  06C0                     __ptext5:	
  1302 ;; *************** function ___xxtofl *****************
  1303 ;; Defined at:
  1304 ;;		line 10 in file "C:\Program Files\Microchip\xc8\v2.35\pic\sources\c90\common\xxtofl.c"
  1305 ;; Parameters:    Size  Location     Type
  1306 ;;  sign            1    wreg     unsigned char 
  1307 ;;  val             4    3[COMMON] long 
  1308 ;; Auto vars:     Size  Location     Type
  1309 ;;  sign            1    4[BANK0 ] unsigned char 
  1310 ;;  arg             4    6[BANK0 ] unsigned long 
  1311 ;;  exp             1    5[BANK0 ] unsigned char 
  1312 ;; Return value:  Size  Location     Type
  1313 ;;                  4    3[COMMON] unsigned char 
  1314 ;; Registers used:
  1315 ;;		wreg, status,2, status,0
  1316 ;; Tracked objects:
  1317 ;;		On entry : 0/0
  1318 ;;		On exit  : 0/0
  1319 ;;		Unchanged: 0/0
  1320 ;; Data sizes:     COMMON   BANK0   BANK1   BANK3   BANK2
  1321 ;;      Params:         4       0       0       0       0
  1322 ;;      Locals:         0       6       0       0       0
  1323 ;;      Temps:          0       4       0       0       0
  1324 ;;      Totals:         4      10       0       0       0
  1325 ;;Total ram usage:       14 bytes
  1326 ;; Hardware stack levels used: 1
  1327 ;; Hardware stack levels required when called: 1
  1328 ;; This function calls:
  1329 ;;		Nothing
  1330 ;; This function is called by:
  1331 ;;		_map
  1332 ;; This function uses a non-reentrant model
  1333 ;;
  1334                           
  1335  06C0                     ___xxtofl:	
  1336                           ;psect for function ___xxtofl
  1337                           
  1338                           
  1339                           ;incstack = 0
  1340                           ; Regs used in ___xxtofl: [wreg+status,2+status,0]
  1341                           ;___xxtofl@sign stored from wreg
  1342  06C0  1283               	bcf	3,5	;RP0=0, select bank0
  1343  06C1  1303               	bcf	3,6	;RP1=0, select bank0
  1344  06C2  00A4               	movwf	___xxtofl@sign
  1345  06C3                     l2588:
  1346  06C3  0824               	movf	___xxtofl@sign,w
  1347  06C4  1903               	btfsc	3,2
  1348  06C5  2EC7               	goto	u4241
  1349  06C6  2EC8               	goto	u4240
  1350  06C7                     u4241:
  1351  06C7  2EDC               	goto	l2594
  1352  06C8                     u4240:
  1353  06C8                     l2590:
  1354  06C8  1FF6               	btfss	___xxtofl@val+3,7
  1355  06C9  2ECB               	goto	u4251
  1356  06CA  2ECC               	goto	u4250
  1357  06CB                     u4251:
  1358  06CB  2EDC               	goto	l2594
  1359  06CC                     u4250:
  1360  06CC                     l2592:
  1361  06CC  0973               	comf	___xxtofl@val,w
  1362  06CD  00A6               	movwf	___xxtofl@arg
  1363  06CE  0974               	comf	___xxtofl@val+1,w
  1364  06CF  00A7               	movwf	___xxtofl@arg+1
  1365  06D0  0975               	comf	___xxtofl@val+2,w
  1366  06D1  00A8               	movwf	___xxtofl@arg+2
  1367  06D2  0976               	comf	___xxtofl@val+3,w
  1368  06D3  00A9               	movwf	___xxtofl@arg+3
  1369  06D4  0AA6               	incf	___xxtofl@arg,f
  1370  06D5  1903               	skipnz
  1371  06D6  0AA7               	incf	___xxtofl@arg+1,f
  1372  06D7  1903               	skipnz
  1373  06D8  0AA8               	incf	___xxtofl@arg+2,f
  1374  06D9  1903               	skipnz
  1375  06DA  0AA9               	incf	___xxtofl@arg+3,f
  1376  06DB  2EE4               	goto	l625
  1377  06DC                     l2594:
  1378  06DC  0876               	movf	___xxtofl@val+3,w
  1379  06DD  00A9               	movwf	___xxtofl@arg+3
  1380  06DE  0875               	movf	___xxtofl@val+2,w
  1381  06DF  00A8               	movwf	___xxtofl@arg+2
  1382  06E0  0874               	movf	___xxtofl@val+1,w
  1383  06E1  00A7               	movwf	___xxtofl@arg+1
  1384  06E2  0873               	movf	___xxtofl@val,w
  1385  06E3  00A6               	movwf	___xxtofl@arg
  1386  06E4                     l625:
  1387  06E4  0876               	movf	___xxtofl@val+3,w
  1388  06E5  0475               	iorwf	___xxtofl@val+2,w
  1389  06E6  0474               	iorwf	___xxtofl@val+1,w
  1390  06E7  0473               	iorwf	___xxtofl@val,w
  1391  06E8  1D03               	skipz
  1392  06E9  2EEB               	goto	u4261
  1393  06EA  2EEC               	goto	u4260
  1394  06EB                     u4261:
  1395  06EB  2EF5               	goto	l2600
  1396  06EC                     u4260:
  1397  06EC                     l2596:
  1398  06EC  3000               	movlw	0
  1399  06ED  00F6               	movwf	?___xxtofl+3
  1400  06EE  3000               	movlw	0
  1401  06EF  00F5               	movwf	?___xxtofl+2
  1402  06F0  3000               	movlw	0
  1403  06F1  00F4               	movwf	?___xxtofl+1
  1404  06F2  3000               	movlw	0
  1405  06F3  00F3               	movwf	?___xxtofl
  1406  06F4  2F7B               	goto	l627
  1407  06F5                     l2600:
  1408  06F5  3096               	movlw	150
  1409  06F6  00A0               	movwf	??___xxtofl
  1410  06F7  0820               	movf	??___xxtofl,w
  1411  06F8  00A5               	movwf	___xxtofl@exp
  1412  06F9  2F07               	goto	l2604
  1413  06FA                     l2602:
  1414  06FA  3001               	movlw	1
  1415  06FB  00A0               	movwf	??___xxtofl
  1416  06FC  0820               	movf	??___xxtofl,w
  1417  06FD  07A5               	addwf	___xxtofl@exp,f
  1418  06FE  3001               	movlw	1
  1419  06FF                     u4275:
  1420  06FF  1003               	clrc
  1421  0700  0CA9               	rrf	___xxtofl@arg+3,f
  1422  0701  0CA8               	rrf	___xxtofl@arg+2,f
  1423  0702  0CA7               	rrf	___xxtofl@arg+1,f
  1424  0703  0CA6               	rrf	___xxtofl@arg,f
  1425  0704  3EFF               	addlw	-1
  1426  0705  1D03               	skipz
  1427  0706  2EFF               	goto	u4275
  1428  0707                     l2604:
  1429  0707  30FE               	movlw	254
  1430  0708  0529               	andwf	___xxtofl@arg+3,w
  1431  0709  1D03               	btfss	3,2
  1432  070A  2F0C               	goto	u4281
  1433  070B  2F0D               	goto	u4280
  1434  070C                     u4281:
  1435  070C  2EFA               	goto	l2602
  1436  070D                     u4280:
  1437  070D  2F29               	goto	l631
  1438  070E                     l2606:
  1439  070E  3001               	movlw	1
  1440  070F  00A0               	movwf	??___xxtofl
  1441  0710  0820               	movf	??___xxtofl,w
  1442  0711  07A5               	addwf	___xxtofl@exp,f
  1443  0712                     l2608:
  1444  0712  3001               	movlw	1
  1445  0713  07A6               	addwf	___xxtofl@arg,f
  1446  0714  3000               	movlw	0
  1447  0715  1803               	skipnc
  1448  0716  3001               	movlw	1
  1449  0717  07A7               	addwf	___xxtofl@arg+1,f
  1450  0718  3000               	movlw	0
  1451  0719  1803               	skipnc
  1452  071A  3001               	movlw	1
  1453  071B  07A8               	addwf	___xxtofl@arg+2,f
  1454  071C  3000               	movlw	0
  1455  071D  1803               	skipnc
  1456  071E  3001               	movlw	1
  1457  071F  07A9               	addwf	___xxtofl@arg+3,f
  1458  0720                     l2610:
  1459  0720  3001               	movlw	1
  1460  0721                     u4295:
  1461  0721  1003               	clrc
  1462  0722  0CA9               	rrf	___xxtofl@arg+3,f
  1463  0723  0CA8               	rrf	___xxtofl@arg+2,f
  1464  0724  0CA7               	rrf	___xxtofl@arg+1,f
  1465  0725  0CA6               	rrf	___xxtofl@arg,f
  1466  0726  3EFF               	addlw	-1
  1467  0727  1D03               	skipz
  1468  0728  2F21               	goto	u4295
  1469  0729                     l631:
  1470  0729  30FF               	movlw	255
  1471  072A  0529               	andwf	___xxtofl@arg+3,w
  1472  072B  1D03               	btfss	3,2
  1473  072C  2F2E               	goto	u4301
  1474  072D  2F2F               	goto	u4300
  1475  072E                     u4301:
  1476  072E  2F0E               	goto	l2606
  1477  072F                     u4300:
  1478  072F  2F3B               	goto	l2614
  1479  0730                     l2612:
  1480  0730  3001               	movlw	1
  1481  0731  02A5               	subwf	___xxtofl@exp,f
  1482  0732  3001               	movlw	1
  1483  0733  00A0               	movwf	??___xxtofl
  1484  0734                     u4315:
  1485  0734  1003               	clrc
  1486  0735  0DA6               	rlf	___xxtofl@arg,f
  1487  0736  0DA7               	rlf	___xxtofl@arg+1,f
  1488  0737  0DA8               	rlf	___xxtofl@arg+2,f
  1489  0738  0DA9               	rlf	___xxtofl@arg+3,f
  1490  0739  0BA0               	decfsz	??___xxtofl,f
  1491  073A  2F34               	goto	u4315
  1492  073B                     l2614:
  1493  073B  1BA8               	btfsc	___xxtofl@arg+2,7
  1494  073C  2F3E               	goto	u4321
  1495  073D  2F3F               	goto	u4320
  1496  073E                     u4321:
  1497  073E  2F45               	goto	l638
  1498  073F                     u4320:
  1499  073F                     l2616:
  1500  073F  3002               	movlw	2
  1501  0740  0225               	subwf	___xxtofl@exp,w
  1502  0741  1803               	skipnc
  1503  0742  2F44               	goto	u4331
  1504  0743  2F45               	goto	u4330
  1505  0744                     u4331:
  1506  0744  2F30               	goto	l2612
  1507  0745                     u4330:
  1508  0745                     l638:
  1509  0745  1825               	btfsc	___xxtofl@exp,0
  1510  0746  2F48               	goto	u4341
  1511  0747  2F49               	goto	u4340
  1512  0748                     u4341:
  1513  0748  2F51               	goto	l639
  1514  0749                     u4340:
  1515  0749                     l2618:
  1516  0749  30FF               	movlw	255
  1517  074A  05A6               	andwf	___xxtofl@arg,f
  1518  074B  30FF               	movlw	255
  1519  074C  05A7               	andwf	___xxtofl@arg+1,f
  1520  074D  307F               	movlw	127
  1521  074E  05A8               	andwf	___xxtofl@arg+2,f
  1522  074F  30FF               	movlw	255
  1523  0750  05A9               	andwf	___xxtofl@arg+3,f
  1524  0751                     l639:
  1525  0751  1003               	clrc
  1526  0752  0CA5               	rrf	___xxtofl@exp,f
  1527  0753                     l2620:
  1528  0753  0825               	movf	___xxtofl@exp,w
  1529  0754  00A0               	movwf	??___xxtofl
  1530  0755  01A1               	clrf	??___xxtofl+1
  1531  0756  01A2               	clrf	??___xxtofl+2
  1532  0757  01A3               	clrf	??___xxtofl+3
  1533  0758  3018               	movlw	24
  1534  0759                     u4355:
  1535  0759  1003               	clrc
  1536  075A  0DA0               	rlf	??___xxtofl,f
  1537  075B  0DA1               	rlf	??___xxtofl+1,f
  1538  075C  0DA2               	rlf	??___xxtofl+2,f
  1539  075D  0DA3               	rlf	??___xxtofl+3,f
  1540  075E                     u4350:
  1541  075E  3EFF               	addlw	-1
  1542  075F  1D03               	skipz
  1543  0760  2F59               	goto	u4355
  1544  0761  0820               	movf	??___xxtofl,w
  1545  0762  04A6               	iorwf	___xxtofl@arg,f
  1546  0763  0821               	movf	??___xxtofl+1,w
  1547  0764  04A7               	iorwf	___xxtofl@arg+1,f
  1548  0765  0822               	movf	??___xxtofl+2,w
  1549  0766  04A8               	iorwf	___xxtofl@arg+2,f
  1550  0767  0823               	movf	??___xxtofl+3,w
  1551  0768  04A9               	iorwf	___xxtofl@arg+3,f
  1552  0769                     l2622:
  1553  0769  0824               	movf	___xxtofl@sign,w
  1554  076A  1903               	btfsc	3,2
  1555  076B  2F6D               	goto	u4361
  1556  076C  2F6E               	goto	u4360
  1557  076D                     u4361:
  1558  076D  2F73               	goto	l2628
  1559  076E                     u4360:
  1560  076E                     l2624:
  1561  076E  1FF6               	btfss	___xxtofl@val+3,7
  1562  076F  2F71               	goto	u4371
  1563  0770  2F72               	goto	u4370
  1564  0771                     u4371:
  1565  0771  2F73               	goto	l2628
  1566  0772                     u4370:
  1567  0772                     l2626:
  1568  0772  17A9               	bsf	___xxtofl@arg+3,7
  1569  0773                     l2628:
  1570  0773  0829               	movf	___xxtofl@arg+3,w
  1571  0774  00F6               	movwf	?___xxtofl+3
  1572  0775  0828               	movf	___xxtofl@arg+2,w
  1573  0776  00F5               	movwf	?___xxtofl+2
  1574  0777  0827               	movf	___xxtofl@arg+1,w
  1575  0778  00F4               	movwf	?___xxtofl+1
  1576  0779  0826               	movf	___xxtofl@arg,w
  1577  077A  00F3               	movwf	?___xxtofl
  1578  077B                     l627:
  1579  077B  0008               	return
  1580  077C                     __end_of___xxtofl:
  1581                           
  1582                           	psect	text6
  1583  077C                     __ptext6:	
  1584 ;; *************** function ___fltol *****************
  1585 ;; Defined at:
  1586 ;;		line 43 in file "C:\Program Files\Microchip\xc8\v2.35\pic\sources\c90\common\fltol.c"
  1587 ;; Parameters:    Size  Location     Type
  1588 ;;  f1              4    4[BANK1 ] unsigned char 
  1589 ;; Auto vars:     Size  Location     Type
  1590 ;;  exp1            1    8[COMMON] unsigned char 
  1591 ;;  sign1           1    7[COMMON] unsigned char 
  1592 ;; Return value:  Size  Location     Type
  1593 ;;                  4    4[BANK1 ] long 
  1594 ;; Registers used:
  1595 ;;		wreg, status,2, status,0
  1596 ;; Tracked objects:
  1597 ;;		On entry : 0/0
  1598 ;;		On exit  : 0/0
  1599 ;;		Unchanged: 0/0
  1600 ;; Data sizes:     COMMON   BANK0   BANK1   BANK3   BANK2
  1601 ;;      Params:         0       0       4       0       0
  1602 ;;      Locals:         2       0       0       0       0
  1603 ;;      Temps:          0       0       5       0       0
  1604 ;;      Totals:         2       0       9       0       0
  1605 ;;Total ram usage:       11 bytes
  1606 ;; Hardware stack levels used: 1
  1607 ;; Hardware stack levels required when called: 1
  1608 ;; This function calls:
  1609 ;;		Nothing
  1610 ;; This function is called by:
  1611 ;;		_map
  1612 ;; This function uses a non-reentrant model
  1613 ;;
  1614                           
  1615  077C                     ___fltol:	
  1616                           ;psect for function ___fltol
  1617                           
  1618  077C                     l2076:	
  1619                           ;incstack = 0
  1620                           ; Regs used in ___fltol: [wreg+status,2+status,0]
  1621                           
  1622  077C  1003               	clrc
  1623  077D  1683               	bsf	3,5	;RP0=1, select bank1
  1624  077E  1303               	bcf	3,6	;RP1=0, select bank1
  1625  077F  0D26               	rlf	(___fltol@f1+2)^(0+128),w
  1626  0780  0D27               	rlf	(___fltol@f1+3)^(0+128),w
  1627  0781  00A8               	movwf	??___fltol^(0+128)
  1628  0782  0828               	movf	??___fltol^(0+128),w
  1629  0783  00F8               	movwf	___fltol@exp1
  1630  0784  0878               	movf	___fltol@exp1,w
  1631  0785  1D03               	btfss	3,2
  1632  0786  2F88               	goto	u3021
  1633  0787  2F89               	goto	u3020
  1634  0788                     u3021:
  1635  0788  2F92               	goto	l2082
  1636  0789                     u3020:
  1637  0789                     l2078:
  1638  0789  3000               	movlw	0
  1639  078A  00A7               	movwf	(?___fltol+3)^(0+128)
  1640  078B  3000               	movlw	0
  1641  078C  00A6               	movwf	(?___fltol+2)^(0+128)
  1642  078D  3000               	movlw	0
  1643  078E  00A5               	movwf	(?___fltol+1)^(0+128)
  1644  078F  3000               	movlw	0
  1645  0790  00A4               	movwf	?___fltol^(0+128)
  1646  0791  2FF7               	goto	l378
  1647  0792                     l2082:
  1648  0792  0824               	movf	___fltol@f1^(0+128),w
  1649  0793  00A8               	movwf	??___fltol^(0+128)
  1650  0794  0825               	movf	(___fltol@f1+1)^(0+128),w
  1651  0795  00A9               	movwf	(??___fltol^(0+128)+1)
  1652  0796  0826               	movf	(___fltol@f1+2)^(0+128),w
  1653  0797  00AA               	movwf	(??___fltol^(0+128)+2)
  1654  0798  0827               	movf	(___fltol@f1+3)^(0+128),w
  1655  0799  00AB               	movwf	(??___fltol^(0+128)+3)
  1656  079A  301F               	movlw	31
  1657  079B                     u3035:
  1658  079B  1003               	clrc
  1659  079C  0CAB               	rrf	(??___fltol^(0+128)+3),f
  1660  079D  0CAA               	rrf	(??___fltol^(0+128)+2),f
  1661  079E  0CA9               	rrf	(??___fltol^(0+128)+1),f
  1662  079F  0CA8               	rrf	??___fltol^(0+128),f
  1663  07A0                     u3030:
  1664  07A0  3EFF               	addlw	-1
  1665  07A1  1D03               	skipz
  1666  07A2  2F9B               	goto	u3035
  1667  07A3  0828               	movf	??___fltol^(0+128),w
  1668  07A4  00AC               	movwf	(??___fltol+4)^(0+128)
  1669  07A5  082C               	movf	(??___fltol+4)^(0+128),w
  1670  07A6  00F7               	movwf	___fltol@sign1
  1671  07A7                     l2084:
  1672  07A7  17A6               	bsf	(___fltol@f1^(0+128)+2),7
  1673  07A8                     l2086:
  1674  07A8  30FF               	movlw	255
  1675  07A9  05A4               	andwf	___fltol@f1^(0+128),f
  1676  07AA  30FF               	movlw	255
  1677  07AB  05A5               	andwf	(___fltol@f1+1)^(0+128),f
  1678  07AC  30FF               	movlw	255
  1679  07AD  05A6               	andwf	(___fltol@f1+2)^(0+128),f
  1680  07AE  3000               	movlw	0
  1681  07AF  05A7               	andwf	(___fltol@f1+3)^(0+128),f
  1682  07B0                     l2088:
  1683  07B0  3096               	movlw	150
  1684  07B1  02F8               	subwf	___fltol@exp1,f
  1685  07B2                     l2090:
  1686  07B2  1FF8               	btfss	___fltol@exp1,7
  1687  07B3  2FB5               	goto	u3041
  1688  07B4  2FB6               	goto	u3040
  1689  07B5                     u3041:
  1690  07B5  2FD0               	goto	l2100
  1691  07B6                     u3040:
  1692  07B6                     l2092:
  1693  07B6  0878               	movf	___fltol@exp1,w
  1694  07B7  3A80               	xorlw	128
  1695  07B8  3E97               	addlw	151
  1696  07B9  1803               	skipnc
  1697  07BA  2FBC               	goto	u3051
  1698  07BB  2FBD               	goto	u3050
  1699  07BC                     u3051:
  1700  07BC  2FBE               	goto	l2098
  1701  07BD                     u3050:
  1702  07BD  2F89               	goto	l2078
  1703  07BE                     l2098:
  1704  07BE  3001               	movlw	1
  1705  07BF                     u3065:
  1706  07BF  1003               	clrc
  1707  07C0  0CA7               	rrf	(___fltol@f1+3)^(0+128),f
  1708  07C1  0CA6               	rrf	(___fltol@f1+2)^(0+128),f
  1709  07C2  0CA5               	rrf	(___fltol@f1+1)^(0+128),f
  1710  07C3  0CA4               	rrf	___fltol@f1^(0+128),f
  1711  07C4  3EFF               	addlw	-1
  1712  07C5  1D03               	skipz
  1713  07C6  2FBF               	goto	u3065
  1714  07C7  3001               	movlw	1
  1715  07C8  00A8               	movwf	??___fltol^(0+128)
  1716  07C9  0828               	movf	??___fltol^(0+128),w
  1717  07CA  07F8               	addwf	___fltol@exp1,f
  1718  07CB  1D03               	btfss	3,2
  1719  07CC  2FCE               	goto	u3071
  1720  07CD  2FCF               	goto	u3070
  1721  07CE                     u3071:
  1722  07CE  2FBE               	goto	l2098
  1723  07CF                     u3070:
  1724  07CF  2FE7               	goto	l2108
  1725  07D0                     l2100:
  1726  07D0  3020               	movlw	32
  1727  07D1  0278               	subwf	___fltol@exp1,w
  1728  07D2  1C03               	skipc
  1729  07D3  2FD5               	goto	u3081
  1730  07D4  2FD6               	goto	u3080
  1731  07D5                     u3081:
  1732  07D5  2FE2               	goto	l385
  1733  07D6                     u3080:
  1734  07D6  2F89               	goto	l2078
  1735  07D7                     l2106:
  1736  07D7  3001               	movlw	1
  1737  07D8  00A8               	movwf	??___fltol^(0+128)
  1738  07D9                     u3095:
  1739  07D9  1003               	clrc
  1740  07DA  0DA4               	rlf	___fltol@f1^(0+128),f
  1741  07DB  0DA5               	rlf	(___fltol@f1+1)^(0+128),f
  1742  07DC  0DA6               	rlf	(___fltol@f1+2)^(0+128),f
  1743  07DD  0DA7               	rlf	(___fltol@f1+3)^(0+128),f
  1744  07DE  0BA8               	decfsz	??___fltol^(0+128),f
  1745  07DF  2FD9               	goto	u3095
  1746  07E0  3001               	movlw	1
  1747  07E1  02F8               	subwf	___fltol@exp1,f
  1748  07E2                     l385:
  1749  07E2  0878               	movf	___fltol@exp1,w
  1750  07E3  1D03               	btfss	3,2
  1751  07E4  2FE6               	goto	u3101
  1752  07E5  2FE7               	goto	u3100
  1753  07E6                     u3101:
  1754  07E6  2FD7               	goto	l2106
  1755  07E7                     u3100:
  1756  07E7                     l2108:
  1757  07E7  0877               	movf	___fltol@sign1,w
  1758  07E8  1903               	btfsc	3,2
  1759  07E9  2FEB               	goto	u3111
  1760  07EA  2FEC               	goto	u3110
  1761  07EB                     u3111:
  1762  07EB  2FF7               	goto	l388
  1763  07EC                     u3110:
  1764  07EC                     l2110:
  1765  07EC  09A4               	comf	___fltol@f1^(0+128),f
  1766  07ED  09A5               	comf	(___fltol@f1+1)^(0+128),f
  1767  07EE  09A6               	comf	(___fltol@f1+2)^(0+128),f
  1768  07EF  09A7               	comf	(___fltol@f1+3)^(0+128),f
  1769  07F0  0AA4               	incf	___fltol@f1^(0+128),f
  1770  07F1  1903               	skipnz
  1771  07F2  0AA5               	incf	(___fltol@f1+1)^(0+128),f
  1772  07F3  1903               	skipnz
  1773  07F4  0AA6               	incf	(___fltol@f1+2)^(0+128),f
  1774  07F5  1903               	skipnz
  1775  07F6  0AA7               	incf	(___fltol@f1+3)^(0+128),f
  1776  07F7                     l388:
  1777  07F7                     l378:
  1778  07F7  0008               	return
  1779  07F8                     __end_of___fltol:
  1780                           
  1781                           	psect	text7
  1782  001F                     __ptext7:	
  1783 ;; *************** function ___flmul *****************
  1784 ;; Defined at:
  1785 ;;		line 8 in file "C:\Program Files\Microchip\xc8\v2.35\pic\sources\c90\common\sprcmul.c"
  1786 ;; Parameters:    Size  Location     Type
  1787 ;;  b               4   36[BANK0 ] long 
  1788 ;;  a               4   40[BANK0 ] long 
  1789 ;; Auto vars:     Size  Location     Type
  1790 ;;  prod            4   56[BANK0 ] struct .
  1791 ;;  grs             4   51[BANK0 ] unsigned long 
  1792 ;;  temp            2   60[BANK0 ] struct .
  1793 ;;  bexp            1   55[BANK0 ] unsigned char 
  1794 ;;  aexp            1   50[BANK0 ] unsigned char 
  1795 ;;  sign            1   49[BANK0 ] unsigned char 
  1796 ;; Return value:  Size  Location     Type
  1797 ;;                  4   36[BANK0 ] unsigned char 
  1798 ;; Registers used:
  1799 ;;		wreg, status,2, status,0, btemp+1, pclath, cstack
  1800 ;; Tracked objects:
  1801 ;;		On entry : 0/0
  1802 ;;		On exit  : 0/0
  1803 ;;		Unchanged: 0/0
  1804 ;; Data sizes:     COMMON   BANK0   BANK1   BANK3   BANK2
  1805 ;;      Params:         0       8       0       0       0
  1806 ;;      Locals:         0      13       0       0       0
  1807 ;;      Temps:          0       5       0       0       0
  1808 ;;      Totals:         0      26       0       0       0
  1809 ;;Total ram usage:       26 bytes
  1810 ;; Hardware stack levels used: 1
  1811 ;; Hardware stack levels required when called: 2
  1812 ;; This function calls:
  1813 ;;		__Umul8_16
  1814 ;; This function is called by:
  1815 ;;		_map
  1816 ;; This function uses a non-reentrant model
  1817 ;;
  1818                           
  1819  001F                     ___flmul:	
  1820                           ;psect for function ___flmul
  1821                           
  1822  001F                     l2448:	
  1823                           ;incstack = 0
  1824                           ; Regs used in ___flmul: [wreg+status,2+status,0+btemp+1+pclath+cstack]
  1825                           
  1826  001F  1283               	bcf	3,5	;RP0=0, select bank0
  1827  0020  1303               	bcf	3,6	;RP1=0, select bank0
  1828  0021  0847               	movf	___flmul@b+3,w
  1829  0022  3980               	andlw	128
  1830  0023  00CC               	movwf	??___flmul
  1831  0024  084C               	movf	??___flmul,w
  1832  0025  00D1               	movwf	___flmul@sign
  1833  0026                     l2450:
  1834  0026  0847               	movf	___flmul@b+3,w
  1835  0027  00CC               	movwf	??___flmul
  1836  0028  074C               	addwf	??___flmul,w
  1837  0029  00CD               	movwf	??___flmul+1
  1838  002A  084D               	movf	??___flmul+1,w
  1839  002B  00D7               	movwf	___flmul@bexp
  1840  002C                     l2452:
  1841  002C  1FC6               	btfss	___flmul@b+2,7
  1842  002D  282F               	goto	u3871
  1843  002E  2830               	goto	u3870
  1844  002F                     u3871:
  1845  002F  2831               	goto	l2456
  1846  0030                     u3870:
  1847  0030                     l2454:
  1848  0030  1457               	bsf	___flmul@bexp,0
  1849  0031                     l2456:
  1850  0031  0857               	movf	___flmul@bexp,w
  1851  0032  1903               	btfsc	3,2
  1852  0033  2835               	goto	u3881
  1853  0034  2836               	goto	u3880
  1854  0035                     u3881:
  1855  0035  2845               	goto	l2464
  1856  0036                     u3880:
  1857  0036                     l2458:
  1858  0036  0A57               	incf	___flmul@bexp,w
  1859  0037  1D03               	btfss	3,2
  1860  0038  283A               	goto	u3891
  1861  0039  283B               	goto	u3890
  1862  003A                     u3891:
  1863  003A  2843               	goto	l2462
  1864  003B                     u3890:
  1865  003B                     l2460:
  1866  003B  3000               	movlw	0
  1867  003C  00C7               	movwf	___flmul@b+3
  1868  003D  3000               	movlw	0
  1869  003E  00C6               	movwf	___flmul@b+2
  1870  003F  3000               	movlw	0
  1871  0040  00C5               	movwf	___flmul@b+1
  1872  0041  3000               	movlw	0
  1873  0042  00C4               	movwf	___flmul@b
  1874  0043                     l2462:
  1875  0043  17C6               	bsf	___flmul@b+2,7
  1876  0044  284D               	goto	l2466
  1877  0045                     l2464:
  1878  0045  3000               	movlw	0
  1879  0046  00C7               	movwf	___flmul@b+3
  1880  0047  3000               	movlw	0
  1881  0048  00C6               	movwf	___flmul@b+2
  1882  0049  3000               	movlw	0
  1883  004A  00C5               	movwf	___flmul@b+1
  1884  004B  3000               	movlw	0
  1885  004C  00C4               	movwf	___flmul@b
  1886  004D                     l2466:
  1887  004D  084B               	movf	___flmul@a+3,w
  1888  004E  3980               	andlw	128
  1889  004F  00CC               	movwf	??___flmul
  1890  0050  084C               	movf	??___flmul,w
  1891  0051  06D1               	xorwf	___flmul@sign,f
  1892  0052                     l2468:
  1893  0052  084B               	movf	___flmul@a+3,w
  1894  0053  00CC               	movwf	??___flmul
  1895  0054  074C               	addwf	??___flmul,w
  1896  0055  00CD               	movwf	??___flmul+1
  1897  0056  084D               	movf	??___flmul+1,w
  1898  0057  00D2               	movwf	___flmul@aexp
  1899  0058                     l2470:
  1900  0058  1FCA               	btfss	___flmul@a+2,7
  1901  0059  285B               	goto	u3901
  1902  005A  285C               	goto	u3900
  1903  005B                     u3901:
  1904  005B  285D               	goto	l2474
  1905  005C                     u3900:
  1906  005C                     l2472:
  1907  005C  1452               	bsf	___flmul@aexp,0
  1908  005D                     l2474:
  1909  005D  0852               	movf	___flmul@aexp,w
  1910  005E  1903               	btfsc	3,2
  1911  005F  2861               	goto	u3911
  1912  0060  2862               	goto	u3910
  1913  0061                     u3911:
  1914  0061  2871               	goto	l2482
  1915  0062                     u3910:
  1916  0062                     l2476:
  1917  0062  0A52               	incf	___flmul@aexp,w
  1918  0063  1D03               	btfss	3,2
  1919  0064  2866               	goto	u3921
  1920  0065  2867               	goto	u3920
  1921  0066                     u3921:
  1922  0066  286F               	goto	l2480
  1923  0067                     u3920:
  1924  0067                     l2478:
  1925  0067  3000               	movlw	0
  1926  0068  00CB               	movwf	___flmul@a+3
  1927  0069  3000               	movlw	0
  1928  006A  00CA               	movwf	___flmul@a+2
  1929  006B  3000               	movlw	0
  1930  006C  00C9               	movwf	___flmul@a+1
  1931  006D  3000               	movlw	0
  1932  006E  00C8               	movwf	___flmul@a
  1933  006F                     l2480:
  1934  006F  17CA               	bsf	___flmul@a+2,7
  1935  0070  2879               	goto	l2484
  1936  0071                     l2482:
  1937  0071  3000               	movlw	0
  1938  0072  00CB               	movwf	___flmul@a+3
  1939  0073  3000               	movlw	0
  1940  0074  00CA               	movwf	___flmul@a+2
  1941  0075  3000               	movlw	0
  1942  0076  00C9               	movwf	___flmul@a+1
  1943  0077  3000               	movlw	0
  1944  0078  00C8               	movwf	___flmul@a
  1945  0079                     l2484:
  1946  0079  0852               	movf	___flmul@aexp,w
  1947  007A  1903               	btfsc	3,2
  1948  007B  287D               	goto	u3931
  1949  007C  287E               	goto	u3930
  1950  007D                     u3931:
  1951  007D  2883               	goto	l2488
  1952  007E                     u3930:
  1953  007E                     l2486:
  1954  007E  0857               	movf	___flmul@bexp,w
  1955  007F  1D03               	btfss	3,2
  1956  0080  2882               	goto	u3941
  1957  0081  2883               	goto	u3940
  1958  0082                     u3941:
  1959  0082  288C               	goto	l2492
  1960  0083                     u3940:
  1961  0083                     l2488:
  1962  0083  3000               	movlw	0
  1963  0084  00C7               	movwf	?___flmul+3
  1964  0085  3000               	movlw	0
  1965  0086  00C6               	movwf	?___flmul+2
  1966  0087  3000               	movlw	0
  1967  0088  00C5               	movwf	?___flmul+1
  1968  0089  3000               	movlw	0
  1969  008A  00C4               	movwf	?___flmul
  1970  008B  2B7F               	goto	l581
  1971  008C                     l2492:
  1972  008C  0844               	movf	___flmul@b,w
  1973  008D  00CC               	movwf	??___flmul
  1974  008E  084C               	movf	??___flmul,w
  1975  008F  00F3               	movwf	__Umul8_16@multiplicand
  1976  0090  084A               	movf	___flmul@a+2,w
  1977  0091  120A  158A  2405  120A  118A  	fcall	__Umul8_16
  1978  0096  0874               	movf	?__Umul8_16+1,w
  1979  0097  1283               	bcf	3,5	;RP0=0, select bank0
  1980  0098  1303               	bcf	3,6	;RP1=0, select bank0
  1981  0099  00DD               	movwf	___flmul@temp+1
  1982  009A  0873               	movf	?__Umul8_16,w
  1983  009B  00DC               	movwf	___flmul@temp
  1984  009C                     l2494:
  1985  009C  085C               	movf	___flmul@temp,w
  1986  009D  00CC               	movwf	??___flmul
  1987  009E  01CD               	clrf	??___flmul+1
  1988  009F  01CE               	clrf	??___flmul+2
  1989  00A0  01CF               	clrf	??___flmul+3
  1990  00A1  084F               	movf	??___flmul+3,w
  1991  00A2  00D6               	movwf	___flmul@grs+3
  1992  00A3  084E               	movf	??___flmul+2,w
  1993  00A4  00D5               	movwf	___flmul@grs+2
  1994  00A5  084D               	movf	??___flmul+1,w
  1995  00A6  00D4               	movwf	___flmul@grs+1
  1996  00A7  084C               	movf	??___flmul,w
  1997  00A8  00D3               	movwf	___flmul@grs
  1998  00A9                     l2496:
  1999  00A9  085D               	movf	___flmul@temp+1,w
  2000  00AA  00CC               	movwf	??___flmul
  2001  00AB  01CD               	clrf	??___flmul+1
  2002  00AC  01CE               	clrf	??___flmul+2
  2003  00AD  01CF               	clrf	??___flmul+3
  2004  00AE  084F               	movf	??___flmul+3,w
  2005  00AF  00DB               	movwf	___flmul@prod+3
  2006  00B0  084E               	movf	??___flmul+2,w
  2007  00B1  00DA               	movwf	___flmul@prod+2
  2008  00B2  084D               	movf	??___flmul+1,w
  2009  00B3  00D9               	movwf	___flmul@prod+1
  2010  00B4  084C               	movf	??___flmul,w
  2011  00B5  00D8               	movwf	___flmul@prod
  2012  00B6  0845               	movf	___flmul@b+1,w
  2013  00B7  00CC               	movwf	??___flmul
  2014  00B8  084C               	movf	??___flmul,w
  2015  00B9  00F3               	movwf	__Umul8_16@multiplicand
  2016  00BA  0849               	movf	___flmul@a+1,w
  2017  00BB  120A  158A  2405  120A  118A  	fcall	__Umul8_16
  2018  00C0  0874               	movf	?__Umul8_16+1,w
  2019  00C1  1283               	bcf	3,5	;RP0=0, select bank0
  2020  00C2  1303               	bcf	3,6	;RP1=0, select bank0
  2021  00C3  00DD               	movwf	___flmul@temp+1
  2022  00C4  0873               	movf	?__Umul8_16,w
  2023  00C5  00DC               	movwf	___flmul@temp
  2024  00C6                     l2498:
  2025  00C6  085C               	movf	___flmul@temp,w
  2026  00C7  00CC               	movwf	??___flmul
  2027  00C8  01CD               	clrf	??___flmul+1
  2028  00C9  01CE               	clrf	??___flmul+2
  2029  00CA  01CF               	clrf	??___flmul+3
  2030  00CB  084C               	movf	??___flmul,w
  2031  00CC  07D3               	addwf	___flmul@grs,f
  2032  00CD  084D               	movf	??___flmul+1,w
  2033  00CE  1103               	clrz
  2034  00CF  1803               	skipnc
  2035  00D0  3E01               	addlw	1
  2036  00D1  1903               	skipnz
  2037  00D2  28D4               	goto	u3951
  2038  00D3  07D4               	addwf	___flmul@grs+1,f
  2039  00D4                     u3951:
  2040  00D4  084E               	movf	??___flmul+2,w
  2041  00D5  1103               	clrz
  2042  00D6  1803               	skipnc
  2043  00D7  3E01               	addlw	1
  2044  00D8  1903               	skipnz
  2045  00D9  28DB               	goto	u3952
  2046  00DA  07D5               	addwf	___flmul@grs+2,f
  2047  00DB                     u3952:
  2048  00DB  084F               	movf	??___flmul+3,w
  2049  00DC  1103               	clrz
  2050  00DD  1803               	skipnc
  2051  00DE  3E01               	addlw	1
  2052  00DF  1903               	skipnz
  2053  00E0  28E2               	goto	u3953
  2054  00E1  07D6               	addwf	___flmul@grs+3,f
  2055  00E2                     u3953:
  2056  00E2                     l2500:
  2057  00E2  085D               	movf	___flmul@temp+1,w
  2058  00E3  00CC               	movwf	??___flmul
  2059  00E4  01CD               	clrf	??___flmul+1
  2060  00E5  01CE               	clrf	??___flmul+2
  2061  00E6  01CF               	clrf	??___flmul+3
  2062  00E7  084C               	movf	??___flmul,w
  2063  00E8  07D8               	addwf	___flmul@prod,f
  2064  00E9  084D               	movf	??___flmul+1,w
  2065  00EA  1103               	clrz
  2066  00EB  1803               	skipnc
  2067  00EC  3E01               	addlw	1
  2068  00ED  1903               	skipnz
  2069  00EE  28F0               	goto	u3961
  2070  00EF  07D9               	addwf	___flmul@prod+1,f
  2071  00F0                     u3961:
  2072  00F0  084E               	movf	??___flmul+2,w
  2073  00F1  1103               	clrz
  2074  00F2  1803               	skipnc
  2075  00F3  3E01               	addlw	1
  2076  00F4  1903               	skipnz
  2077  00F5  28F7               	goto	u3962
  2078  00F6  07DA               	addwf	___flmul@prod+2,f
  2079  00F7                     u3962:
  2080  00F7  084F               	movf	??___flmul+3,w
  2081  00F8  1103               	clrz
  2082  00F9  1803               	skipnc
  2083  00FA  3E01               	addlw	1
  2084  00FB  1903               	skipnz
  2085  00FC  28FE               	goto	u3963
  2086  00FD  07DB               	addwf	___flmul@prod+3,f
  2087  00FE                     u3963:
  2088  00FE  0846               	movf	___flmul@b+2,w
  2089  00FF  00CC               	movwf	??___flmul
  2090  0100  084C               	movf	??___flmul,w
  2091  0101  00F3               	movwf	__Umul8_16@multiplicand
  2092  0102  0848               	movf	___flmul@a,w
  2093  0103  120A  158A  2405  120A  118A  	fcall	__Umul8_16
  2094  0108  0874               	movf	?__Umul8_16+1,w
  2095  0109  1283               	bcf	3,5	;RP0=0, select bank0
  2096  010A  1303               	bcf	3,6	;RP1=0, select bank0
  2097  010B  00DD               	movwf	___flmul@temp+1
  2098  010C  0873               	movf	?__Umul8_16,w
  2099  010D  00DC               	movwf	___flmul@temp
  2100  010E                     l2502:
  2101  010E  085C               	movf	___flmul@temp,w
  2102  010F  00CC               	movwf	??___flmul
  2103  0110  01CD               	clrf	??___flmul+1
  2104  0111  01CE               	clrf	??___flmul+2
  2105  0112  01CF               	clrf	??___flmul+3
  2106  0113  084C               	movf	??___flmul,w
  2107  0114  07D3               	addwf	___flmul@grs,f
  2108  0115  084D               	movf	??___flmul+1,w
  2109  0116  1103               	clrz
  2110  0117  1803               	skipnc
  2111  0118  3E01               	addlw	1
  2112  0119  1903               	skipnz
  2113  011A  291C               	goto	u3971
  2114  011B  07D4               	addwf	___flmul@grs+1,f
  2115  011C                     u3971:
  2116  011C  084E               	movf	??___flmul+2,w
  2117  011D  1103               	clrz
  2118  011E  1803               	skipnc
  2119  011F  3E01               	addlw	1
  2120  0120  1903               	skipnz
  2121  0121  2923               	goto	u3972
  2122  0122  07D5               	addwf	___flmul@grs+2,f
  2123  0123                     u3972:
  2124  0123  084F               	movf	??___flmul+3,w
  2125  0124  1103               	clrz
  2126  0125  1803               	skipnc
  2127  0126  3E01               	addlw	1
  2128  0127  1903               	skipnz
  2129  0128  292A               	goto	u3973
  2130  0129  07D6               	addwf	___flmul@grs+3,f
  2131  012A                     u3973:
  2132  012A                     l2504:
  2133  012A  085D               	movf	___flmul@temp+1,w
  2134  012B  00CC               	movwf	??___flmul
  2135  012C  01CD               	clrf	??___flmul+1
  2136  012D  01CE               	clrf	??___flmul+2
  2137  012E  01CF               	clrf	??___flmul+3
  2138  012F  084C               	movf	??___flmul,w
  2139  0130  07D8               	addwf	___flmul@prod,f
  2140  0131  084D               	movf	??___flmul+1,w
  2141  0132  1103               	clrz
  2142  0133  1803               	skipnc
  2143  0134  3E01               	addlw	1
  2144  0135  1903               	skipnz
  2145  0136  2938               	goto	u3981
  2146  0137  07D9               	addwf	___flmul@prod+1,f
  2147  0138                     u3981:
  2148  0138  084E               	movf	??___flmul+2,w
  2149  0139  1103               	clrz
  2150  013A  1803               	skipnc
  2151  013B  3E01               	addlw	1
  2152  013C  1903               	skipnz
  2153  013D  293F               	goto	u3982
  2154  013E  07DA               	addwf	___flmul@prod+2,f
  2155  013F                     u3982:
  2156  013F  084F               	movf	??___flmul+3,w
  2157  0140  1103               	clrz
  2158  0141  1803               	skipnc
  2159  0142  3E01               	addlw	1
  2160  0143  1903               	skipnz
  2161  0144  2946               	goto	u3983
  2162  0145  07DB               	addwf	___flmul@prod+3,f
  2163  0146                     u3983:
  2164  0146                     l2506:
  2165  0146  3008               	movlw	8
  2166  0147  00CC               	movwf	??___flmul
  2167  0148                     u3995:
  2168  0148  1003               	clrc
  2169  0149  0DD3               	rlf	___flmul@grs,f
  2170  014A  0DD4               	rlf	___flmul@grs+1,f
  2171  014B  0DD5               	rlf	___flmul@grs+2,f
  2172  014C  0DD6               	rlf	___flmul@grs+3,f
  2173  014D  0BCC               	decfsz	??___flmul,f
  2174  014E  2948               	goto	u3995
  2175  014F                     l2508:
  2176  014F  0845               	movf	___flmul@b+1,w
  2177  0150  00CC               	movwf	??___flmul
  2178  0151  084C               	movf	??___flmul,w
  2179  0152  00F3               	movwf	__Umul8_16@multiplicand
  2180  0153  0848               	movf	___flmul@a,w
  2181  0154  120A  158A  2405  120A  118A  	fcall	__Umul8_16
  2182  0159  0874               	movf	?__Umul8_16+1,w
  2183  015A  1283               	bcf	3,5	;RP0=0, select bank0
  2184  015B  1303               	bcf	3,6	;RP1=0, select bank0
  2185  015C  00DD               	movwf	___flmul@temp+1
  2186  015D  0873               	movf	?__Umul8_16,w
  2187  015E  00DC               	movwf	___flmul@temp
  2188  015F                     l2510:
  2189  015F  085C               	movf	___flmul@temp,w
  2190  0160  00CC               	movwf	??___flmul
  2191  0161  085D               	movf	___flmul@temp+1,w
  2192  0162  00CD               	movwf	??___flmul+1
  2193  0163  01CE               	clrf	??___flmul+2
  2194  0164  01CF               	clrf	??___flmul+3
  2195  0165  084C               	movf	??___flmul,w
  2196  0166  07D3               	addwf	___flmul@grs,f
  2197  0167  084D               	movf	??___flmul+1,w
  2198  0168  1103               	clrz
  2199  0169  1803               	skipnc
  2200  016A  3E01               	addlw	1
  2201  016B  1903               	skipnz
  2202  016C  296E               	goto	u4001
  2203  016D  07D4               	addwf	___flmul@grs+1,f
  2204  016E                     u4001:
  2205  016E  084E               	movf	??___flmul+2,w
  2206  016F  1103               	clrz
  2207  0170  1803               	skipnc
  2208  0171  3E01               	addlw	1
  2209  0172  1903               	skipnz
  2210  0173  2975               	goto	u4002
  2211  0174  07D5               	addwf	___flmul@grs+2,f
  2212  0175                     u4002:
  2213  0175  084F               	movf	??___flmul+3,w
  2214  0176  1103               	clrz
  2215  0177  1803               	skipnc
  2216  0178  3E01               	addlw	1
  2217  0179  1903               	skipnz
  2218  017A  297C               	goto	u4003
  2219  017B  07D6               	addwf	___flmul@grs+3,f
  2220  017C                     u4003:
  2221  017C                     l2512:
  2222  017C  0844               	movf	___flmul@b,w
  2223  017D  00CC               	movwf	??___flmul
  2224  017E  084C               	movf	??___flmul,w
  2225  017F  00F3               	movwf	__Umul8_16@multiplicand
  2226  0180  0849               	movf	___flmul@a+1,w
  2227  0181  120A  158A  2405  120A  118A  	fcall	__Umul8_16
  2228  0186  0874               	movf	?__Umul8_16+1,w
  2229  0187  1283               	bcf	3,5	;RP0=0, select bank0
  2230  0188  1303               	bcf	3,6	;RP1=0, select bank0
  2231  0189  00DD               	movwf	___flmul@temp+1
  2232  018A  0873               	movf	?__Umul8_16,w
  2233  018B  00DC               	movwf	___flmul@temp
  2234  018C                     l2514:
  2235  018C  085C               	movf	___flmul@temp,w
  2236  018D  00CC               	movwf	??___flmul
  2237  018E  085D               	movf	___flmul@temp+1,w
  2238  018F  00CD               	movwf	??___flmul+1
  2239  0190  01CE               	clrf	??___flmul+2
  2240  0191  01CF               	clrf	??___flmul+3
  2241  0192  084C               	movf	??___flmul,w
  2242  0193  07D3               	addwf	___flmul@grs,f
  2243  0194  084D               	movf	??___flmul+1,w
  2244  0195  1103               	clrz
  2245  0196  1803               	skipnc
  2246  0197  3E01               	addlw	1
  2247  0198  1903               	skipnz
  2248  0199  299B               	goto	u4011
  2249  019A  07D4               	addwf	___flmul@grs+1,f
  2250  019B                     u4011:
  2251  019B  084E               	movf	??___flmul+2,w
  2252  019C  1103               	clrz
  2253  019D  1803               	skipnc
  2254  019E  3E01               	addlw	1
  2255  019F  1903               	skipnz
  2256  01A0  29A2               	goto	u4012
  2257  01A1  07D5               	addwf	___flmul@grs+2,f
  2258  01A2                     u4012:
  2259  01A2  084F               	movf	??___flmul+3,w
  2260  01A3  1103               	clrz
  2261  01A4  1803               	skipnc
  2262  01A5  3E01               	addlw	1
  2263  01A6  1903               	skipnz
  2264  01A7  29A9               	goto	u4013
  2265  01A8  07D6               	addwf	___flmul@grs+3,f
  2266  01A9                     u4013:
  2267  01A9                     l2516:
  2268  01A9  3008               	movlw	8
  2269  01AA  00CC               	movwf	??___flmul
  2270  01AB                     u4025:
  2271  01AB  1003               	clrc
  2272  01AC  0DD3               	rlf	___flmul@grs,f
  2273  01AD  0DD4               	rlf	___flmul@grs+1,f
  2274  01AE  0DD5               	rlf	___flmul@grs+2,f
  2275  01AF  0DD6               	rlf	___flmul@grs+3,f
  2276  01B0  0BCC               	decfsz	??___flmul,f
  2277  01B1  29AB               	goto	u4025
  2278  01B2  0844               	movf	___flmul@b,w
  2279  01B3  00CC               	movwf	??___flmul
  2280  01B4  084C               	movf	??___flmul,w
  2281  01B5  00F3               	movwf	__Umul8_16@multiplicand
  2282  01B6  0848               	movf	___flmul@a,w
  2283  01B7  120A  158A  2405  120A  118A  	fcall	__Umul8_16
  2284  01BC  0874               	movf	?__Umul8_16+1,w
  2285  01BD  1283               	bcf	3,5	;RP0=0, select bank0
  2286  01BE  1303               	bcf	3,6	;RP1=0, select bank0
  2287  01BF  00DD               	movwf	___flmul@temp+1
  2288  01C0  0873               	movf	?__Umul8_16,w
  2289  01C1  00DC               	movwf	___flmul@temp
  2290  01C2                     l2518:
  2291  01C2  085C               	movf	___flmul@temp,w
  2292  01C3  00CC               	movwf	??___flmul
  2293  01C4  085D               	movf	___flmul@temp+1,w
  2294  01C5  00CD               	movwf	??___flmul+1
  2295  01C6  01CE               	clrf	??___flmul+2
  2296  01C7  01CF               	clrf	??___flmul+3
  2297  01C8  084C               	movf	??___flmul,w
  2298  01C9  07D3               	addwf	___flmul@grs,f
  2299  01CA  084D               	movf	??___flmul+1,w
  2300  01CB  1103               	clrz
  2301  01CC  1803               	skipnc
  2302  01CD  3E01               	addlw	1
  2303  01CE  1903               	skipnz
  2304  01CF  29D1               	goto	u4031
  2305  01D0  07D4               	addwf	___flmul@grs+1,f
  2306  01D1                     u4031:
  2307  01D1  084E               	movf	??___flmul+2,w
  2308  01D2  1103               	clrz
  2309  01D3  1803               	skipnc
  2310  01D4  3E01               	addlw	1
  2311  01D5  1903               	skipnz
  2312  01D6  29D8               	goto	u4032
  2313  01D7  07D5               	addwf	___flmul@grs+2,f
  2314  01D8                     u4032:
  2315  01D8  084F               	movf	??___flmul+3,w
  2316  01D9  1103               	clrz
  2317  01DA  1803               	skipnc
  2318  01DB  3E01               	addlw	1
  2319  01DC  1903               	skipnz
  2320  01DD  29DF               	goto	u4033
  2321  01DE  07D6               	addwf	___flmul@grs+3,f
  2322  01DF                     u4033:
  2323  01DF                     l2520:
  2324  01DF  0845               	movf	___flmul@b+1,w
  2325  01E0  00CC               	movwf	??___flmul
  2326  01E1  084C               	movf	??___flmul,w
  2327  01E2  00F3               	movwf	__Umul8_16@multiplicand
  2328  01E3  084A               	movf	___flmul@a+2,w
  2329  01E4  120A  158A  2405  120A  118A  	fcall	__Umul8_16
  2330  01E9  0874               	movf	?__Umul8_16+1,w
  2331  01EA  1283               	bcf	3,5	;RP0=0, select bank0
  2332  01EB  1303               	bcf	3,6	;RP1=0, select bank0
  2333  01EC  00DD               	movwf	___flmul@temp+1
  2334  01ED  0873               	movf	?__Umul8_16,w
  2335  01EE  00DC               	movwf	___flmul@temp
  2336  01EF  085C               	movf	___flmul@temp,w
  2337  01F0  00CC               	movwf	??___flmul
  2338  01F1  085D               	movf	___flmul@temp+1,w
  2339  01F2  00CD               	movwf	??___flmul+1
  2340  01F3  01CE               	clrf	??___flmul+2
  2341  01F4  01CF               	clrf	??___flmul+3
  2342  01F5  084C               	movf	??___flmul,w
  2343  01F6  07D8               	addwf	___flmul@prod,f
  2344  01F7  084D               	movf	??___flmul+1,w
  2345  01F8  1103               	clrz
  2346  01F9  1803               	skipnc
  2347  01FA  3E01               	addlw	1
  2348  01FB  1903               	skipnz
  2349  01FC  29FE               	goto	u4041
  2350  01FD  07D9               	addwf	___flmul@prod+1,f
  2351  01FE                     u4041:
  2352  01FE  084E               	movf	??___flmul+2,w
  2353  01FF  1103               	clrz
  2354  0200  1803               	skipnc
  2355  0201  3E01               	addlw	1
  2356  0202  1903               	skipnz
  2357  0203  2A05               	goto	u4042
  2358  0204  07DA               	addwf	___flmul@prod+2,f
  2359  0205                     u4042:
  2360  0205  084F               	movf	??___flmul+3,w
  2361  0206  1103               	clrz
  2362  0207  1803               	skipnc
  2363  0208  3E01               	addlw	1
  2364  0209  1903               	skipnz
  2365  020A  2A0C               	goto	u4043
  2366  020B  07DB               	addwf	___flmul@prod+3,f
  2367  020C                     u4043:
  2368  020C                     l2522:
  2369  020C  0846               	movf	___flmul@b+2,w
  2370  020D  00CC               	movwf	??___flmul
  2371  020E  084C               	movf	??___flmul,w
  2372  020F  00F3               	movwf	__Umul8_16@multiplicand
  2373  0210  0849               	movf	___flmul@a+1,w
  2374  0211  120A  158A  2405  120A  118A  	fcall	__Umul8_16
  2375  0216  0874               	movf	?__Umul8_16+1,w
  2376  0217  1283               	bcf	3,5	;RP0=0, select bank0
  2377  0218  1303               	bcf	3,6	;RP1=0, select bank0
  2378  0219  00DD               	movwf	___flmul@temp+1
  2379  021A  0873               	movf	?__Umul8_16,w
  2380  021B  00DC               	movwf	___flmul@temp
  2381  021C                     l2524:
  2382  021C  085C               	movf	___flmul@temp,w
  2383  021D  00CC               	movwf	??___flmul
  2384  021E  085D               	movf	___flmul@temp+1,w
  2385  021F  00CD               	movwf	??___flmul+1
  2386  0220  01CE               	clrf	??___flmul+2
  2387  0221  01CF               	clrf	??___flmul+3
  2388  0222  084C               	movf	??___flmul,w
  2389  0223  07D8               	addwf	___flmul@prod,f
  2390  0224  084D               	movf	??___flmul+1,w
  2391  0225  1103               	clrz
  2392  0226  1803               	skipnc
  2393  0227  3E01               	addlw	1
  2394  0228  1903               	skipnz
  2395  0229  2A2B               	goto	u4051
  2396  022A  07D9               	addwf	___flmul@prod+1,f
  2397  022B                     u4051:
  2398  022B  084E               	movf	??___flmul+2,w
  2399  022C  1103               	clrz
  2400  022D  1803               	skipnc
  2401  022E  3E01               	addlw	1
  2402  022F  1903               	skipnz
  2403  0230  2A32               	goto	u4052
  2404  0231  07DA               	addwf	___flmul@prod+2,f
  2405  0232                     u4052:
  2406  0232  084F               	movf	??___flmul+3,w
  2407  0233  1103               	clrz
  2408  0234  1803               	skipnc
  2409  0235  3E01               	addlw	1
  2410  0236  1903               	skipnz
  2411  0237  2A39               	goto	u4053
  2412  0238  07DB               	addwf	___flmul@prod+3,f
  2413  0239                     u4053:
  2414  0239  0846               	movf	___flmul@b+2,w
  2415  023A  00CC               	movwf	??___flmul
  2416  023B  084C               	movf	??___flmul,w
  2417  023C  00F3               	movwf	__Umul8_16@multiplicand
  2418  023D  084A               	movf	___flmul@a+2,w
  2419  023E  120A  158A  2405  120A  118A  	fcall	__Umul8_16
  2420  0243  0874               	movf	?__Umul8_16+1,w
  2421  0244  1283               	bcf	3,5	;RP0=0, select bank0
  2422  0245  1303               	bcf	3,6	;RP1=0, select bank0
  2423  0246  00DD               	movwf	___flmul@temp+1
  2424  0247  0873               	movf	?__Umul8_16,w
  2425  0248  00DC               	movwf	___flmul@temp
  2426  0249                     l2526:
  2427  0249  085C               	movf	___flmul@temp,w
  2428  024A  00CC               	movwf	??___flmul
  2429  024B  085D               	movf	___flmul@temp+1,w
  2430  024C  00CD               	movwf	??___flmul+1
  2431  024D  01CE               	clrf	??___flmul+2
  2432  024E  01CF               	clrf	??___flmul+3
  2433  024F  3008               	movlw	8
  2434  0250                     u4065:
  2435  0250  1003               	clrc
  2436  0251  0DCC               	rlf	??___flmul,f
  2437  0252  0DCD               	rlf	??___flmul+1,f
  2438  0253  0DCE               	rlf	??___flmul+2,f
  2439  0254  0DCF               	rlf	??___flmul+3,f
  2440  0255                     u4060:
  2441  0255  3EFF               	addlw	-1
  2442  0256  1D03               	skipz
  2443  0257  2A50               	goto	u4065
  2444  0258  084C               	movf	??___flmul,w
  2445  0259  07D8               	addwf	___flmul@prod,f
  2446  025A  084D               	movf	??___flmul+1,w
  2447  025B  1103               	clrz
  2448  025C  1803               	skipnc
  2449  025D  3E01               	addlw	1
  2450  025E  1903               	skipnz
  2451  025F  2A61               	goto	u4071
  2452  0260  07D9               	addwf	___flmul@prod+1,f
  2453  0261                     u4071:
  2454  0261  084E               	movf	??___flmul+2,w
  2455  0262  1103               	clrz
  2456  0263  1803               	skipnc
  2457  0264  3E01               	addlw	1
  2458  0265  1903               	skipnz
  2459  0266  2A68               	goto	u4072
  2460  0267  07DA               	addwf	___flmul@prod+2,f
  2461  0268                     u4072:
  2462  0268  084F               	movf	??___flmul+3,w
  2463  0269  1103               	clrz
  2464  026A  1803               	skipnc
  2465  026B  3E01               	addlw	1
  2466  026C  1903               	skipnz
  2467  026D  2A6F               	goto	u4073
  2468  026E  07DB               	addwf	___flmul@prod+3,f
  2469  026F                     u4073:
  2470  026F                     l2528:
  2471  026F  0853               	movf	___flmul@grs,w
  2472  0270  00CC               	movwf	??___flmul
  2473  0271  0854               	movf	___flmul@grs+1,w
  2474  0272  00CD               	movwf	??___flmul+1
  2475  0273  0855               	movf	___flmul@grs+2,w
  2476  0274  00CE               	movwf	??___flmul+2
  2477  0275  0856               	movf	___flmul@grs+3,w
  2478  0276  00CF               	movwf	??___flmul+3
  2479  0277  3018               	movlw	24
  2480  0278                     u4085:
  2481  0278  1003               	clrc
  2482  0279  0CCF               	rrf	??___flmul+3,f
  2483  027A  0CCE               	rrf	??___flmul+2,f
  2484  027B  0CCD               	rrf	??___flmul+1,f
  2485  027C  0CCC               	rrf	??___flmul,f
  2486  027D                     u4080:
  2487  027D  3EFF               	addlw	-1
  2488  027E  1D03               	skipz
  2489  027F  2A78               	goto	u4085
  2490  0280  084C               	movf	??___flmul,w
  2491  0281  07D8               	addwf	___flmul@prod,f
  2492  0282  084D               	movf	??___flmul+1,w
  2493  0283  1103               	clrz
  2494  0284  1803               	skipnc
  2495  0285  3E01               	addlw	1
  2496  0286  1903               	skipnz
  2497  0287  2A89               	goto	u4091
  2498  0288  07D9               	addwf	___flmul@prod+1,f
  2499  0289                     u4091:
  2500  0289  084E               	movf	??___flmul+2,w
  2501  028A  1103               	clrz
  2502  028B  1803               	skipnc
  2503  028C  3E01               	addlw	1
  2504  028D  1903               	skipnz
  2505  028E  2A90               	goto	u4092
  2506  028F  07DA               	addwf	___flmul@prod+2,f
  2507  0290                     u4092:
  2508  0290  084F               	movf	??___flmul+3,w
  2509  0291  1103               	clrz
  2510  0292  1803               	skipnc
  2511  0293  3E01               	addlw	1
  2512  0294  1903               	skipnz
  2513  0295  2A97               	goto	u4093
  2514  0296  07DB               	addwf	___flmul@prod+3,f
  2515  0297                     u4093:
  2516  0297                     l2530:
  2517  0297  3008               	movlw	8
  2518  0298  00CC               	movwf	??___flmul
  2519  0299                     u4105:
  2520  0299  1003               	clrc
  2521  029A  0DD3               	rlf	___flmul@grs,f
  2522  029B  0DD4               	rlf	___flmul@grs+1,f
  2523  029C  0DD5               	rlf	___flmul@grs+2,f
  2524  029D  0DD6               	rlf	___flmul@grs+3,f
  2525  029E  0BCC               	decfsz	??___flmul,f
  2526  029F  2A99               	goto	u4105
  2527  02A0                     l2532:
  2528  02A0  0857               	movf	___flmul@bexp,w
  2529  02A1  0752               	addwf	___flmul@aexp,w
  2530  02A2  00CC               	movwf	??___flmul
  2531  02A3  01CD               	clrf	??___flmul+1
  2532  02A4  0DCD               	rlf	??___flmul+1,f
  2533  02A5  084C               	movf	??___flmul,w
  2534  02A6  3E82               	addlw	130
  2535  02A7  00DC               	movwf	___flmul@temp
  2536  02A8  084D               	movf	??___flmul+1,w
  2537  02A9  1803               	skipnc
  2538  02AA  3E01               	addlw	1
  2539  02AB  3EFF               	addlw	255
  2540  02AC  00DD               	movwf	___flmul@temp+1
  2541  02AD  2ACB               	goto	l2544
  2542  02AE                     l2534:
  2543  02AE  3001               	movlw	1
  2544  02AF  00CC               	movwf	??___flmul
  2545  02B0                     u4115:
  2546  02B0  1003               	clrc
  2547  02B1  0DD8               	rlf	___flmul@prod,f
  2548  02B2  0DD9               	rlf	___flmul@prod+1,f
  2549  02B3  0DDA               	rlf	___flmul@prod+2,f
  2550  02B4  0DDB               	rlf	___flmul@prod+3,f
  2551  02B5  0BCC               	decfsz	??___flmul,f
  2552  02B6  2AB0               	goto	u4115
  2553  02B7                     l2536:
  2554  02B7  1FD6               	btfss	___flmul@grs+3,7
  2555  02B8  2ABA               	goto	u4121
  2556  02B9  2ABB               	goto	u4120
  2557  02BA                     u4121:
  2558  02BA  2ABC               	goto	l2540
  2559  02BB                     u4120:
  2560  02BB                     l2538:
  2561  02BB  1458               	bsf	___flmul@prod,0
  2562  02BC                     l2540:
  2563  02BC  3001               	movlw	1
  2564  02BD  00CC               	movwf	??___flmul
  2565  02BE                     u4135:
  2566  02BE  1003               	clrc
  2567  02BF  0DD3               	rlf	___flmul@grs,f
  2568  02C0  0DD4               	rlf	___flmul@grs+1,f
  2569  02C1  0DD5               	rlf	___flmul@grs+2,f
  2570  02C2  0DD6               	rlf	___flmul@grs+3,f
  2571  02C3  0BCC               	decfsz	??___flmul,f
  2572  02C4  2ABE               	goto	u4135
  2573  02C5                     l2542:
  2574  02C5  30FF               	movlw	255
  2575  02C6  07DC               	addwf	___flmul@temp,f
  2576  02C7  1803               	skipnc
  2577  02C8  0ADD               	incf	___flmul@temp+1,f
  2578  02C9  30FF               	movlw	255
  2579  02CA  07DD               	addwf	___flmul@temp+1,f
  2580  02CB                     l2544:
  2581  02CB  1FDA               	btfss	___flmul@prod+2,7
  2582  02CC  2ACE               	goto	u4141
  2583  02CD  2ACF               	goto	u4140
  2584  02CE                     u4141:
  2585  02CE  2AAE               	goto	l2534
  2586  02CF                     u4140:
  2587  02CF                     l2546:
  2588  02CF  01D2               	clrf	___flmul@aexp
  2589  02D0                     l2548:
  2590  02D0  1FD6               	btfss	___flmul@grs+3,7
  2591  02D1  2AD3               	goto	u4151
  2592  02D2  2AD4               	goto	u4150
  2593  02D3                     u4151:
  2594  02D3  2AF0               	goto	l2556
  2595  02D4                     u4150:
  2596  02D4                     l2550:
  2597  02D4  30FF               	movlw	255
  2598  02D5  0553               	andwf	___flmul@grs,w
  2599  02D6  00CC               	movwf	??___flmul
  2600  02D7  30FF               	movlw	255
  2601  02D8  0554               	andwf	___flmul@grs+1,w
  2602  02D9  00CD               	movwf	??___flmul+1
  2603  02DA  30FF               	movlw	255
  2604  02DB  0555               	andwf	___flmul@grs+2,w
  2605  02DC  00CE               	movwf	??___flmul+2
  2606  02DD  307F               	movlw	127
  2607  02DE  0556               	andwf	___flmul@grs+3,w
  2608  02DF  00CF               	movwf	??___flmul+3
  2609  02E0  084F               	movf	??___flmul+3,w
  2610  02E1  044E               	iorwf	??___flmul+2,w
  2611  02E2  044D               	iorwf	??___flmul+1,w
  2612  02E3  044C               	iorwf	??___flmul,w
  2613  02E4  1903               	skipnz
  2614  02E5  2AE7               	goto	u4161
  2615  02E6  2AE8               	goto	u4160
  2616  02E7                     u4161:
  2617  02E7  2AEB               	goto	l587
  2618  02E8                     u4160:
  2619  02E8                     l2552:
  2620  02E8  01D2               	clrf	___flmul@aexp
  2621  02E9  0AD2               	incf	___flmul@aexp,f
  2622  02EA  2AF0               	goto	l2556
  2623  02EB                     l587:
  2624  02EB  1C58               	btfss	___flmul@prod,0
  2625  02EC  2AEE               	goto	u4171
  2626  02ED  2AEF               	goto	u4170
  2627  02EE                     u4171:
  2628  02EE  2AF0               	goto	l2556
  2629  02EF                     u4170:
  2630  02EF  2AE8               	goto	l2552
  2631  02F0                     l2556:
  2632  02F0  0852               	movf	___flmul@aexp,w
  2633  02F1  1903               	btfsc	3,2
  2634  02F2  2AF4               	goto	u4181
  2635  02F3  2AF5               	goto	u4180
  2636  02F4                     u4181:
  2637  02F4  2B26               	goto	l2566
  2638  02F5                     u4180:
  2639  02F5                     l2558:
  2640  02F5  3001               	movlw	1
  2641  02F6  07D8               	addwf	___flmul@prod,f
  2642  02F7  3000               	movlw	0
  2643  02F8  1803               	skipnc
  2644  02F9  3001               	movlw	1
  2645  02FA  07D9               	addwf	___flmul@prod+1,f
  2646  02FB  3000               	movlw	0
  2647  02FC  1803               	skipnc
  2648  02FD  3001               	movlw	1
  2649  02FE  07DA               	addwf	___flmul@prod+2,f
  2650  02FF  3000               	movlw	0
  2651  0300  1803               	skipnc
  2652  0301  3001               	movlw	1
  2653  0302  07DB               	addwf	___flmul@prod+3,f
  2654  0303                     l2560:
  2655  0303  1C5B               	btfss	___flmul@prod+3,0
  2656  0304  2B06               	goto	u4191
  2657  0305  2B07               	goto	u4190
  2658  0306                     u4191:
  2659  0306  2B26               	goto	l2566
  2660  0307                     u4190:
  2661  0307                     l2562:
  2662  0307  0858               	movf	___flmul@prod,w
  2663  0308  00CC               	movwf	??___flmul
  2664  0309  0859               	movf	___flmul@prod+1,w
  2665  030A  00CD               	movwf	??___flmul+1
  2666  030B  085A               	movf	___flmul@prod+2,w
  2667  030C  00CE               	movwf	??___flmul+2
  2668  030D  085B               	movf	___flmul@prod+3,w
  2669  030E  00CF               	movwf	??___flmul+3
  2670  030F  3001               	movlw	1
  2671  0310  00D0               	movwf	??___flmul+4
  2672  0311                     u4205:
  2673  0311  0D4F               	rlf	??___flmul+3,w
  2674  0312  0CCF               	rrf	??___flmul+3,f
  2675  0313  0CCE               	rrf	??___flmul+2,f
  2676  0314  0CCD               	rrf	??___flmul+1,f
  2677  0315  0CCC               	rrf	??___flmul,f
  2678  0316                     u4200:
  2679  0316  0BD0               	decfsz	??___flmul+4,f
  2680  0317  2B11               	goto	u4205
  2681  0318  084F               	movf	??___flmul+3,w
  2682  0319  00DB               	movwf	___flmul@prod+3
  2683  031A  084E               	movf	??___flmul+2,w
  2684  031B  00DA               	movwf	___flmul@prod+2
  2685  031C  084D               	movf	??___flmul+1,w
  2686  031D  00D9               	movwf	___flmul@prod+1
  2687  031E  084C               	movf	??___flmul,w
  2688  031F  00D8               	movwf	___flmul@prod
  2689  0320                     l2564:
  2690  0320  3001               	movlw	1
  2691  0321  07DC               	addwf	___flmul@temp,f
  2692  0322  1803               	skipnc
  2693  0323  0ADD               	incf	___flmul@temp+1,f
  2694  0324  3000               	movlw	0
  2695  0325  07DD               	addwf	___flmul@temp+1,f
  2696  0326                     l2566:
  2697  0326  085D               	movf	___flmul@temp+1,w
  2698  0327  3A80               	xorlw	128
  2699  0328  00FF               	movwf	btemp+1
  2700  0329  3080               	movlw	128
  2701  032A  027F               	subwf	btemp+1,w
  2702  032B  1D03               	skipz
  2703  032C  2B2F               	goto	u4215
  2704  032D  30FF               	movlw	255
  2705  032E  025C               	subwf	___flmul@temp,w
  2706  032F                     u4215:
  2707  032F  1C03               	skipc
  2708  0330  2B32               	goto	u4211
  2709  0331  2B33               	goto	u4210
  2710  0332                     u4211:
  2711  0332  2B3E               	goto	l2570
  2712  0333                     u4210:
  2713  0333                     l2568:
  2714  0333  307F               	movlw	127
  2715  0334  1283               	bcf	3,5	;RP0=0, select bank0
  2716  0335  1303               	bcf	3,6	;RP1=0, select bank0
  2717  0336  00DB               	movwf	___flmul@prod+3
  2718  0337  3080               	movlw	128
  2719  0338  00DA               	movwf	___flmul@prod+2
  2720  0339  3000               	movlw	0
  2721  033A  00D9               	movwf	___flmul@prod+1
  2722  033B  3000               	movlw	0
  2723  033C  00D8               	movwf	___flmul@prod
  2724  033D  2B73               	goto	l593
  2725  033E                     l2570:
  2726  033E  1283               	bcf	3,5	;RP0=0, select bank0
  2727  033F  1303               	bcf	3,6	;RP1=0, select bank0
  2728  0340  085D               	movf	___flmul@temp+1,w
  2729  0341  3A80               	xorlw	128
  2730  0342  00FF               	movwf	btemp+1
  2731  0343  3080               	movlw	128
  2732  0344  027F               	subwf	btemp+1,w
  2733  0345  1D03               	skipz
  2734  0346  2B49               	goto	u4225
  2735  0347  3001               	movlw	1
  2736  0348  025C               	subwf	___flmul@temp,w
  2737  0349                     u4225:
  2738  0349  1803               	skipnc
  2739  034A  2B4C               	goto	u4221
  2740  034B  2B4D               	goto	u4220
  2741  034C                     u4221:
  2742  034C  2B59               	goto	l2576
  2743  034D                     u4220:
  2744  034D                     l2572:
  2745  034D  3000               	movlw	0
  2746  034E  1283               	bcf	3,5	;RP0=0, select bank0
  2747  034F  1303               	bcf	3,6	;RP1=0, select bank0
  2748  0350  00DB               	movwf	___flmul@prod+3
  2749  0351  3000               	movlw	0
  2750  0352  00DA               	movwf	___flmul@prod+2
  2751  0353  3000               	movlw	0
  2752  0354  00D9               	movwf	___flmul@prod+1
  2753  0355  3000               	movlw	0
  2754  0356  00D8               	movwf	___flmul@prod
  2755  0357                     l2574:
  2756  0357  01D1               	clrf	___flmul@sign
  2757  0358  2B73               	goto	l593
  2758  0359                     l2576:
  2759  0359  1283               	bcf	3,5	;RP0=0, select bank0
  2760  035A  1303               	bcf	3,6	;RP1=0, select bank0
  2761  035B  085C               	movf	___flmul@temp,w
  2762  035C  00CC               	movwf	??___flmul
  2763  035D  084C               	movf	??___flmul,w
  2764  035E  00D7               	movwf	___flmul@bexp
  2765  035F  30FF               	movlw	255
  2766  0360  05D8               	andwf	___flmul@prod,f
  2767  0361  30FF               	movlw	255
  2768  0362  05D9               	andwf	___flmul@prod+1,f
  2769  0363  307F               	movlw	127
  2770  0364  05DA               	andwf	___flmul@prod+2,f
  2771  0365  3000               	movlw	0
  2772  0366  05DB               	andwf	___flmul@prod+3,f
  2773  0367                     l2578:
  2774  0367  1C57               	btfss	___flmul@bexp,0
  2775  0368  2B6A               	goto	u4231
  2776  0369  2B6B               	goto	u4230
  2777  036A                     u4231:
  2778  036A  2B6C               	goto	l2582
  2779  036B                     u4230:
  2780  036B                     l2580:
  2781  036B  17DA               	bsf	___flmul@prod+2,7
  2782  036C                     l2582:
  2783  036C  0857               	movf	___flmul@bexp,w
  2784  036D  00CC               	movwf	??___flmul
  2785  036E  1003               	clrc
  2786  036F  0C4C               	rrf	??___flmul,w
  2787  0370  00CD               	movwf	??___flmul+1
  2788  0371  084D               	movf	??___flmul+1,w
  2789  0372  00DB               	movwf	___flmul@prod+3
  2790  0373                     l593:
  2791  0373  0851               	movf	___flmul@sign,w
  2792  0374  00CC               	movwf	??___flmul
  2793  0375  084C               	movf	??___flmul,w
  2794  0376  04DB               	iorwf	___flmul@prod+3,f
  2795  0377                     l2584:
  2796  0377  085B               	movf	___flmul@prod+3,w
  2797  0378  00C7               	movwf	?___flmul+3
  2798  0379  085A               	movf	___flmul@prod+2,w
  2799  037A  00C6               	movwf	?___flmul+2
  2800  037B  0859               	movf	___flmul@prod+1,w
  2801  037C  00C5               	movwf	?___flmul+1
  2802  037D  0858               	movf	___flmul@prod,w
  2803  037E  00C4               	movwf	?___flmul
  2804  037F                     l581:
  2805  037F  0008               	return
  2806  0380                     __end_of___flmul:
  2807                           
  2808                           	psect	text8
  2809  0C05                     __ptext8:	
  2810 ;; *************** function __Umul8_16 *****************
  2811 ;; Defined at:
  2812 ;;		line 4 in file "C:\Program Files\Microchip\xc8\v2.35\pic\sources\c90\common\Umul8_16.c"
  2813 ;; Parameters:    Size  Location     Type
  2814 ;;  multiplier      1    wreg     unsigned char 
  2815 ;;  multiplicand    1    3[COMMON] unsigned char 
  2816 ;; Auto vars:     Size  Location     Type
  2817 ;;  multiplier      1    4[BANK0 ] unsigned char 
  2818 ;;  word_mpld       2    2[BANK0 ] unsigned int 
  2819 ;;  product         2    0[BANK0 ] unsigned int 
  2820 ;; Return value:  Size  Location     Type
  2821 ;;                  2    3[COMMON] unsigned int 
  2822 ;; Registers used:
  2823 ;;		wreg, status,2, status,0
  2824 ;; Tracked objects:
  2825 ;;		On entry : 0/0
  2826 ;;		On exit  : 0/0
  2827 ;;		Unchanged: 0/0
  2828 ;; Data sizes:     COMMON   BANK0   BANK1   BANK3   BANK2
  2829 ;;      Params:         2       0       0       0       0
  2830 ;;      Locals:         0       5       0       0       0
  2831 ;;      Temps:          2       0       0       0       0
  2832 ;;      Totals:         4       5       0       0       0
  2833 ;;Total ram usage:        9 bytes
  2834 ;; Hardware stack levels used: 1
  2835 ;; Hardware stack levels required when called: 1
  2836 ;; This function calls:
  2837 ;;		Nothing
  2838 ;; This function is called by:
  2839 ;;		___flmul
  2840 ;; This function uses a non-reentrant model
  2841 ;;
  2842                           
  2843  0C05                     __Umul8_16:	
  2844                           ;psect for function __Umul8_16
  2845                           
  2846                           
  2847                           ;incstack = 0
  2848                           ; Regs used in __Umul8_16: [wreg+status,2+status,0]
  2849                           ;__Umul8_16@multiplier stored from wreg
  2850  0C05  1283               	bcf	3,5	;RP0=0, select bank0
  2851  0C06  1303               	bcf	3,6	;RP1=0, select bank0
  2852  0C07  00A4               	movwf	__Umul8_16@multiplier
  2853  0C08                     l2062:
  2854  0C08  01A0               	clrf	__Umul8_16@product
  2855  0C09  01A1               	clrf	__Umul8_16@product+1
  2856  0C0A                     l2064:
  2857  0C0A  0873               	movf	__Umul8_16@multiplicand,w
  2858  0C0B  00F5               	movwf	??__Umul8_16
  2859  0C0C  01F6               	clrf	??__Umul8_16+1
  2860  0C0D  0875               	movf	??__Umul8_16,w
  2861  0C0E  00A2               	movwf	__Umul8_16@word_mpld
  2862  0C0F  0876               	movf	??__Umul8_16+1,w
  2863  0C10  00A3               	movwf	__Umul8_16@word_mpld+1
  2864  0C11                     l2066:
  2865  0C11  1C24               	btfss	__Umul8_16@multiplier,0
  2866  0C12  2C14               	goto	u2991
  2867  0C13  2C15               	goto	u2990
  2868  0C14                     u2991:
  2869  0C14  2C1B               	goto	l600
  2870  0C15                     u2990:
  2871  0C15                     l2068:
  2872  0C15  0822               	movf	__Umul8_16@word_mpld,w
  2873  0C16  07A0               	addwf	__Umul8_16@product,f
  2874  0C17  1803               	skipnc
  2875  0C18  0AA1               	incf	__Umul8_16@product+1,f
  2876  0C19  0823               	movf	__Umul8_16@word_mpld+1,w
  2877  0C1A  07A1               	addwf	__Umul8_16@product+1,f
  2878  0C1B                     l600:
  2879  0C1B  3001               	movlw	1
  2880  0C1C                     u3005:
  2881  0C1C  1003               	clrc
  2882  0C1D  0DA2               	rlf	__Umul8_16@word_mpld,f
  2883  0C1E  0DA3               	rlf	__Umul8_16@word_mpld+1,f
  2884  0C1F  3EFF               	addlw	-1
  2885  0C20  1D03               	skipz
  2886  0C21  2C1C               	goto	u3005
  2887  0C22  1003               	clrc
  2888  0C23  0CA4               	rrf	__Umul8_16@multiplier,f
  2889  0C24                     l2070:
  2890  0C24  0824               	movf	__Umul8_16@multiplier,w
  2891  0C25  1D03               	btfss	3,2
  2892  0C26  2C28               	goto	u3011
  2893  0C27  2C29               	goto	u3010
  2894  0C28                     u3011:
  2895  0C28  2C11               	goto	l2066
  2896  0C29                     u3010:
  2897  0C29                     l2072:
  2898  0C29  0821               	movf	__Umul8_16@product+1,w
  2899  0C2A  00F4               	movwf	?__Umul8_16+1
  2900  0C2B  0820               	movf	__Umul8_16@product,w
  2901  0C2C  00F3               	movwf	?__Umul8_16
  2902  0C2D                     l602:
  2903  0C2D  0008               	return
  2904  0C2E                     __end_of__Umul8_16:
  2905                           
  2906                           	psect	text9
  2907  0E23                     __ptext9:	
  2908 ;; *************** function ___fldiv *****************
  2909 ;; Defined at:
  2910 ;;		line 8 in file "C:\Program Files\Microchip\xc8\v2.35\pic\sources\c90\common\sprcdiv.c"
  2911 ;; Parameters:    Size  Location     Type
  2912 ;;  a               4   10[BANK0 ] unsigned int 
  2913 ;;  b               4   14[BANK0 ] unsigned int 
  2914 ;; Auto vars:     Size  Location     Type
  2915 ;;  grs             4   30[BANK0 ] unsigned long 
  2916 ;;  rem             4   23[BANK0 ] unsigned long 
  2917 ;;  new_exp         2   28[BANK0 ] int 
  2918 ;;  aexp            1   35[BANK0 ] unsigned char 
  2919 ;;  bexp            1   34[BANK0 ] unsigned char 
  2920 ;;  sign            1   27[BANK0 ] unsigned char 
  2921 ;; Return value:  Size  Location     Type
  2922 ;;                  4   10[BANK0 ] unsigned char 
  2923 ;; Registers used:
  2924 ;;		wreg, status,2, status,0, btemp+1
  2925 ;; Tracked objects:
  2926 ;;		On entry : 0/0
  2927 ;;		On exit  : 0/0
  2928 ;;		Unchanged: 0/0
  2929 ;; Data sizes:     COMMON   BANK0   BANK1   BANK3   BANK2
  2930 ;;      Params:         0       8       0       0       0
  2931 ;;      Locals:         0      13       0       0       0
  2932 ;;      Temps:          0       5       0       0       0
  2933 ;;      Totals:         0      26       0       0       0
  2934 ;;Total ram usage:       26 bytes
  2935 ;; Hardware stack levels used: 1
  2936 ;; Hardware stack levels required when called: 1
  2937 ;; This function calls:
  2938 ;;		Nothing
  2939 ;; This function is called by:
  2940 ;;		_map
  2941 ;; This function uses a non-reentrant model
  2942 ;;
  2943                           
  2944  0E23                     ___fldiv:	
  2945                           ;psect for function ___fldiv
  2946                           
  2947  0E23                     l2306:	
  2948                           ;incstack = 0
  2949                           ; Regs used in ___fldiv: [wreg+status,2+status,0+btemp+1]
  2950                           
  2951  0E23  1283               	bcf	3,5	;RP0=0, select bank0
  2952  0E24  1303               	bcf	3,6	;RP1=0, select bank0
  2953  0E25  0831               	movf	___fldiv@b+3,w
  2954  0E26  3980               	andlw	128
  2955  0E27  00B2               	movwf	??___fldiv
  2956  0E28  0832               	movf	??___fldiv,w
  2957  0E29  00BB               	movwf	___fldiv@sign
  2958  0E2A                     l2308:
  2959  0E2A  0831               	movf	___fldiv@b+3,w
  2960  0E2B  00B2               	movwf	??___fldiv
  2961  0E2C  0732               	addwf	??___fldiv,w
  2962  0E2D  00B3               	movwf	??___fldiv+1
  2963  0E2E  0833               	movf	??___fldiv+1,w
  2964  0E2F  00C2               	movwf	___fldiv@bexp
  2965  0E30                     l2310:
  2966  0E30  1FB0               	btfss	___fldiv@b+2,7
  2967  0E31  2E33               	goto	u3581
  2968  0E32  2E34               	goto	u3580
  2969  0E33                     u3581:
  2970  0E33  2E35               	goto	l2314
  2971  0E34                     u3580:
  2972  0E34                     l2312:
  2973  0E34  1442               	bsf	___fldiv@bexp,0
  2974  0E35                     l2314:
  2975  0E35  0842               	movf	___fldiv@bexp,w
  2976  0E36  1903               	btfsc	3,2
  2977  0E37  2E39               	goto	u3591
  2978  0E38  2E3A               	goto	u3590
  2979  0E39                     u3591:
  2980  0E39  2E4A               	goto	l2324
  2981  0E3A                     u3590:
  2982  0E3A                     l2316:
  2983  0E3A  0A42               	incf	___fldiv@bexp,w
  2984  0E3B  1D03               	btfss	3,2
  2985  0E3C  2E3E               	goto	u3601
  2986  0E3D  2E3F               	goto	u3600
  2987  0E3E                     u3601:
  2988  0E3E  2E47               	goto	l2320
  2989  0E3F                     u3600:
  2990  0E3F                     l2318:
  2991  0E3F  3000               	movlw	0
  2992  0E40  00B1               	movwf	___fldiv@b+3
  2993  0E41  3000               	movlw	0
  2994  0E42  00B0               	movwf	___fldiv@b+2
  2995  0E43  3000               	movlw	0
  2996  0E44  00AF               	movwf	___fldiv@b+1
  2997  0E45  3000               	movlw	0
  2998  0E46  00AE               	movwf	___fldiv@b
  2999  0E47                     l2320:
  3000  0E47  17B0               	bsf	___fldiv@b+2,7
  3001  0E48                     l2322:
  3002  0E48  01B1               	clrf	___fldiv@b+3
  3003  0E49  2E52               	goto	l2326
  3004  0E4A                     l2324:
  3005  0E4A  3000               	movlw	0
  3006  0E4B  00B1               	movwf	___fldiv@b+3
  3007  0E4C  3000               	movlw	0
  3008  0E4D  00B0               	movwf	___fldiv@b+2
  3009  0E4E  3000               	movlw	0
  3010  0E4F  00AF               	movwf	___fldiv@b+1
  3011  0E50  3000               	movlw	0
  3012  0E51  00AE               	movwf	___fldiv@b
  3013  0E52                     l2326:
  3014  0E52  082D               	movf	___fldiv@a+3,w
  3015  0E53  3980               	andlw	128
  3016  0E54  00B2               	movwf	??___fldiv
  3017  0E55  0832               	movf	??___fldiv,w
  3018  0E56  06BB               	xorwf	___fldiv@sign,f
  3019  0E57                     l2328:
  3020  0E57  082D               	movf	___fldiv@a+3,w
  3021  0E58  00B2               	movwf	??___fldiv
  3022  0E59  0732               	addwf	??___fldiv,w
  3023  0E5A  00B3               	movwf	??___fldiv+1
  3024  0E5B  0833               	movf	??___fldiv+1,w
  3025  0E5C  00C3               	movwf	___fldiv@aexp
  3026  0E5D                     l2330:
  3027  0E5D  1FAC               	btfss	___fldiv@a+2,7
  3028  0E5E  2E60               	goto	u3611
  3029  0E5F  2E61               	goto	u3610
  3030  0E60                     u3611:
  3031  0E60  2E62               	goto	l2334
  3032  0E61                     u3610:
  3033  0E61                     l2332:
  3034  0E61  1443               	bsf	___fldiv@aexp,0
  3035  0E62                     l2334:
  3036  0E62  0843               	movf	___fldiv@aexp,w
  3037  0E63  1903               	btfsc	3,2
  3038  0E64  2E66               	goto	u3621
  3039  0E65  2E67               	goto	u3620
  3040  0E66                     u3621:
  3041  0E66  2E77               	goto	l2344
  3042  0E67                     u3620:
  3043  0E67                     l2336:
  3044  0E67  0A43               	incf	___fldiv@aexp,w
  3045  0E68  1D03               	btfss	3,2
  3046  0E69  2E6B               	goto	u3631
  3047  0E6A  2E6C               	goto	u3630
  3048  0E6B                     u3631:
  3049  0E6B  2E74               	goto	l2340
  3050  0E6C                     u3630:
  3051  0E6C                     l2338:
  3052  0E6C  3000               	movlw	0
  3053  0E6D  00AD               	movwf	___fldiv@a+3
  3054  0E6E  3000               	movlw	0
  3055  0E6F  00AC               	movwf	___fldiv@a+2
  3056  0E70  3000               	movlw	0
  3057  0E71  00AB               	movwf	___fldiv@a+1
  3058  0E72  3000               	movlw	0
  3059  0E73  00AA               	movwf	___fldiv@a
  3060  0E74                     l2340:
  3061  0E74  17AC               	bsf	___fldiv@a+2,7
  3062  0E75                     l2342:
  3063  0E75  01AD               	clrf	___fldiv@a+3
  3064  0E76  2E7F               	goto	l541
  3065  0E77                     l2344:
  3066  0E77  3000               	movlw	0
  3067  0E78  00AD               	movwf	___fldiv@a+3
  3068  0E79  3000               	movlw	0
  3069  0E7A  00AC               	movwf	___fldiv@a+2
  3070  0E7B  3000               	movlw	0
  3071  0E7C  00AB               	movwf	___fldiv@a+1
  3072  0E7D  3000               	movlw	0
  3073  0E7E  00AA               	movwf	___fldiv@a
  3074  0E7F                     l541:
  3075  0E7F  082D               	movf	___fldiv@a+3,w
  3076  0E80  042C               	iorwf	___fldiv@a+2,w
  3077  0E81  042B               	iorwf	___fldiv@a+1,w
  3078  0E82  042A               	iorwf	___fldiv@a,w
  3079  0E83  1D03               	skipz
  3080  0E84  2E86               	goto	u3641
  3081  0E85  2E87               	goto	u3640
  3082  0E86                     u3641:
  3083  0E86  2EA0               	goto	l2354
  3084  0E87                     u3640:
  3085  0E87                     l2346:
  3086  0E87  3000               	movlw	0
  3087  0E88  00B1               	movwf	___fldiv@b+3
  3088  0E89  3000               	movlw	0
  3089  0E8A  00B0               	movwf	___fldiv@b+2
  3090  0E8B  3000               	movlw	0
  3091  0E8C  00AF               	movwf	___fldiv@b+1
  3092  0E8D  3000               	movlw	0
  3093  0E8E  00AE               	movwf	___fldiv@b
  3094  0E8F  3080               	movlw	128
  3095  0E90  04B0               	iorwf	___fldiv@b+2,f
  3096  0E91  307F               	movlw	127
  3097  0E92  04B1               	iorwf	___fldiv@b+3,f
  3098  0E93                     l2348:
  3099  0E93  083B               	movf	___fldiv@sign,w
  3100  0E94  00B2               	movwf	??___fldiv
  3101  0E95  0832               	movf	??___fldiv,w
  3102  0E96  04B1               	iorwf	___fldiv@b+3,f
  3103  0E97                     l2350:
  3104  0E97  0831               	movf	___fldiv@b+3,w
  3105  0E98  00AD               	movwf	?___fldiv+3
  3106  0E99  0830               	movf	___fldiv@b+2,w
  3107  0E9A  00AC               	movwf	?___fldiv+2
  3108  0E9B  082F               	movf	___fldiv@b+1,w
  3109  0E9C  00AB               	movwf	?___fldiv+1
  3110  0E9D  082E               	movf	___fldiv@b,w
  3111  0E9E  00AA               	movwf	?___fldiv
  3112  0E9F  2FFF               	goto	l543
  3113  0EA0                     l2354:
  3114  0EA0  0842               	movf	___fldiv@bexp,w
  3115  0EA1  1D03               	btfss	3,2
  3116  0EA2  2EA4               	goto	u3651
  3117  0EA3  2EA5               	goto	u3650
  3118  0EA4                     u3651:
  3119  0EA4  2EAE               	goto	l2360
  3120  0EA5                     u3650:
  3121  0EA5                     l2356:
  3122  0EA5  3000               	movlw	0
  3123  0EA6  00AD               	movwf	?___fldiv+3
  3124  0EA7  3000               	movlw	0
  3125  0EA8  00AC               	movwf	?___fldiv+2
  3126  0EA9  3000               	movlw	0
  3127  0EAA  00AB               	movwf	?___fldiv+1
  3128  0EAB  3000               	movlw	0
  3129  0EAC  00AA               	movwf	?___fldiv
  3130  0EAD  2FFF               	goto	l543
  3131  0EAE                     l2360:
  3132  0EAE  0842               	movf	___fldiv@bexp,w
  3133  0EAF  00B2               	movwf	??___fldiv
  3134  0EB0  01B3               	clrf	??___fldiv+1
  3135  0EB1  0833               	movf	??___fldiv+1,w
  3136  0EB2  00B5               	movwf	??___fldiv+3
  3137  0EB3  0843               	movf	___fldiv@aexp,w
  3138  0EB4  0232               	subwf	??___fldiv,w
  3139  0EB5  00B4               	movwf	??___fldiv+2
  3140  0EB6  1C03               	skipc
  3141  0EB7  03B5               	decf	??___fldiv+3,f
  3142  0EB8  0834               	movf	??___fldiv+2,w
  3143  0EB9  3E7F               	addlw	127
  3144  0EBA  00BC               	movwf	___fldiv@new_exp
  3145  0EBB  0835               	movf	??___fldiv+3,w
  3146  0EBC  1803               	skipnc
  3147  0EBD  3E01               	addlw	1
  3148  0EBE  3E00               	addlw	0
  3149  0EBF  00BD               	movwf	___fldiv@new_exp+1
  3150  0EC0                     l2362:
  3151  0EC0  0831               	movf	___fldiv@b+3,w
  3152  0EC1  00BA               	movwf	___fldiv@rem+3
  3153  0EC2  0830               	movf	___fldiv@b+2,w
  3154  0EC3  00B9               	movwf	___fldiv@rem+2
  3155  0EC4  082F               	movf	___fldiv@b+1,w
  3156  0EC5  00B8               	movwf	___fldiv@rem+1
  3157  0EC6  082E               	movf	___fldiv@b,w
  3158  0EC7  00B7               	movwf	___fldiv@rem
  3159  0EC8                     l2364:
  3160  0EC8  3000               	movlw	0
  3161  0EC9  00B1               	movwf	___fldiv@b+3
  3162  0ECA  3000               	movlw	0
  3163  0ECB  00B0               	movwf	___fldiv@b+2
  3164  0ECC  3000               	movlw	0
  3165  0ECD  00AF               	movwf	___fldiv@b+1
  3166  0ECE  3000               	movlw	0
  3167  0ECF  00AE               	movwf	___fldiv@b
  3168  0ED0                     l2366:
  3169  0ED0  3000               	movlw	0
  3170  0ED1  00C1               	movwf	___fldiv@grs+3
  3171  0ED2  3000               	movlw	0
  3172  0ED3  00C0               	movwf	___fldiv@grs+2
  3173  0ED4  3000               	movlw	0
  3174  0ED5  00BF               	movwf	___fldiv@grs+1
  3175  0ED6  3000               	movlw	0
  3176  0ED7  00BE               	movwf	___fldiv@grs
  3177  0ED8                     l2368:
  3178  0ED8  01C3               	clrf	___fldiv@aexp
  3179  0ED9  2F24               	goto	l2388
  3180  0EDA                     l2370:
  3181  0EDA  0843               	movf	___fldiv@aexp,w
  3182  0EDB  1903               	btfsc	3,2
  3183  0EDC  2EDE               	goto	u3661
  3184  0EDD  2EDF               	goto	u3660
  3185  0EDE                     u3661:
  3186  0EDE  2EFF               	goto	l2380
  3187  0EDF                     u3660:
  3188  0EDF                     l2372:
  3189  0EDF  3001               	movlw	1
  3190  0EE0  00B2               	movwf	??___fldiv
  3191  0EE1                     u3675:
  3192  0EE1  1003               	clrc
  3193  0EE2  0DB7               	rlf	___fldiv@rem,f
  3194  0EE3  0DB8               	rlf	___fldiv@rem+1,f
  3195  0EE4  0DB9               	rlf	___fldiv@rem+2,f
  3196  0EE5  0DBA               	rlf	___fldiv@rem+3,f
  3197  0EE6  0BB2               	decfsz	??___fldiv,f
  3198  0EE7  2EE1               	goto	u3675
  3199  0EE8  3001               	movlw	1
  3200  0EE9  00B2               	movwf	??___fldiv
  3201  0EEA                     u3685:
  3202  0EEA  1003               	clrc
  3203  0EEB  0DAE               	rlf	___fldiv@b,f
  3204  0EEC  0DAF               	rlf	___fldiv@b+1,f
  3205  0EED  0DB0               	rlf	___fldiv@b+2,f
  3206  0EEE  0DB1               	rlf	___fldiv@b+3,f
  3207  0EEF  0BB2               	decfsz	??___fldiv,f
  3208  0EF0  2EEA               	goto	u3685
  3209  0EF1                     l2374:
  3210  0EF1  1FC1               	btfss	___fldiv@grs+3,7
  3211  0EF2  2EF4               	goto	u3691
  3212  0EF3  2EF5               	goto	u3690
  3213  0EF4                     u3691:
  3214  0EF4  2EF6               	goto	l2378
  3215  0EF5                     u3690:
  3216  0EF5                     l2376:
  3217  0EF5  142E               	bsf	___fldiv@b,0
  3218  0EF6                     l2378:
  3219  0EF6  3001               	movlw	1
  3220  0EF7  00B2               	movwf	??___fldiv
  3221  0EF8                     u3705:
  3222  0EF8  1003               	clrc
  3223  0EF9  0DBE               	rlf	___fldiv@grs,f
  3224  0EFA  0DBF               	rlf	___fldiv@grs+1,f
  3225  0EFB  0DC0               	rlf	___fldiv@grs+2,f
  3226  0EFC  0DC1               	rlf	___fldiv@grs+3,f
  3227  0EFD  0BB2               	decfsz	??___fldiv,f
  3228  0EFE  2EF8               	goto	u3705
  3229  0EFF                     l2380:
  3230  0EFF  082D               	movf	___fldiv@a+3,w
  3231  0F00  023A               	subwf	___fldiv@rem+3,w
  3232  0F01  1D03               	skipz
  3233  0F02  2F0D               	goto	u3715
  3234  0F03  082C               	movf	___fldiv@a+2,w
  3235  0F04  0239               	subwf	___fldiv@rem+2,w
  3236  0F05  1D03               	skipz
  3237  0F06  2F0D               	goto	u3715
  3238  0F07  082B               	movf	___fldiv@a+1,w
  3239  0F08  0238               	subwf	___fldiv@rem+1,w
  3240  0F09  1D03               	skipz
  3241  0F0A  2F0D               	goto	u3715
  3242  0F0B  082A               	movf	___fldiv@a,w
  3243  0F0C  0237               	subwf	___fldiv@rem,w
  3244  0F0D                     u3715:
  3245  0F0D  1C03               	skipc
  3246  0F0E  2F10               	goto	u3711
  3247  0F0F  2F11               	goto	u3710
  3248  0F10                     u3711:
  3249  0F10  2F20               	goto	l2386
  3250  0F11                     u3710:
  3251  0F11                     l2382:
  3252  0F11  1741               	bsf	___fldiv@grs+3,6
  3253  0F12                     l2384:
  3254  0F12  082A               	movf	___fldiv@a,w
  3255  0F13  02B7               	subwf	___fldiv@rem,f
  3256  0F14  082B               	movf	___fldiv@a+1,w
  3257  0F15  1C03               	skipc
  3258  0F16  0F2B               	incfsz	___fldiv@a+1,w
  3259  0F17  02B8               	subwf	___fldiv@rem+1,f
  3260  0F18  082C               	movf	___fldiv@a+2,w
  3261  0F19  1C03               	skipc
  3262  0F1A  0F2C               	incfsz	___fldiv@a+2,w
  3263  0F1B  02B9               	subwf	___fldiv@rem+2,f
  3264  0F1C  082D               	movf	___fldiv@a+3,w
  3265  0F1D  1C03               	skipc
  3266  0F1E  0F2D               	incfsz	___fldiv@a+3,w
  3267  0F1F  02BA               	subwf	___fldiv@rem+3,f
  3268  0F20                     l2386:
  3269  0F20  3001               	movlw	1
  3270  0F21  00B2               	movwf	??___fldiv
  3271  0F22  0832               	movf	??___fldiv,w
  3272  0F23  07C3               	addwf	___fldiv@aexp,f
  3273  0F24                     l2388:
  3274  0F24  301A               	movlw	26
  3275  0F25  0243               	subwf	___fldiv@aexp,w
  3276  0F26  1C03               	skipc
  3277  0F27  2F29               	goto	u3721
  3278  0F28  2F2A               	goto	u3720
  3279  0F29                     u3721:
  3280  0F29  2EDA               	goto	l2370
  3281  0F2A                     u3720:
  3282  0F2A                     l2390:
  3283  0F2A  083A               	movf	___fldiv@rem+3,w
  3284  0F2B  0439               	iorwf	___fldiv@rem+2,w
  3285  0F2C  0438               	iorwf	___fldiv@rem+1,w
  3286  0F2D  0437               	iorwf	___fldiv@rem,w
  3287  0F2E  1903               	skipnz
  3288  0F2F  2F31               	goto	u3731
  3289  0F30  2F32               	goto	u3730
  3290  0F31                     u3731:
  3291  0F31  2F51               	goto	l2404
  3292  0F32                     u3730:
  3293  0F32                     l2392:
  3294  0F32  143E               	bsf	___fldiv@grs,0
  3295  0F33  2F51               	goto	l2404
  3296  0F34                     l2394:
  3297  0F34  3001               	movlw	1
  3298  0F35  00B2               	movwf	??___fldiv
  3299  0F36                     u3745:
  3300  0F36  1003               	clrc
  3301  0F37  0DAE               	rlf	___fldiv@b,f
  3302  0F38  0DAF               	rlf	___fldiv@b+1,f
  3303  0F39  0DB0               	rlf	___fldiv@b+2,f
  3304  0F3A  0DB1               	rlf	___fldiv@b+3,f
  3305  0F3B  0BB2               	decfsz	??___fldiv,f
  3306  0F3C  2F36               	goto	u3745
  3307  0F3D                     l2396:
  3308  0F3D  1FC1               	btfss	___fldiv@grs+3,7
  3309  0F3E  2F40               	goto	u3751
  3310  0F3F  2F41               	goto	u3750
  3311  0F40                     u3751:
  3312  0F40  2F42               	goto	l2400
  3313  0F41                     u3750:
  3314  0F41                     l2398:
  3315  0F41  142E               	bsf	___fldiv@b,0
  3316  0F42                     l2400:
  3317  0F42  3001               	movlw	1
  3318  0F43  00B2               	movwf	??___fldiv
  3319  0F44                     u3765:
  3320  0F44  1003               	clrc
  3321  0F45  0DBE               	rlf	___fldiv@grs,f
  3322  0F46  0DBF               	rlf	___fldiv@grs+1,f
  3323  0F47  0DC0               	rlf	___fldiv@grs+2,f
  3324  0F48  0DC1               	rlf	___fldiv@grs+3,f
  3325  0F49  0BB2               	decfsz	??___fldiv,f
  3326  0F4A  2F44               	goto	u3765
  3327  0F4B                     l2402:
  3328  0F4B  30FF               	movlw	255
  3329  0F4C  07BC               	addwf	___fldiv@new_exp,f
  3330  0F4D  1803               	skipnc
  3331  0F4E  0ABD               	incf	___fldiv@new_exp+1,f
  3332  0F4F  30FF               	movlw	255
  3333  0F50  07BD               	addwf	___fldiv@new_exp+1,f
  3334  0F51                     l2404:
  3335  0F51  1FB0               	btfss	___fldiv@b+2,7
  3336  0F52  2F54               	goto	u3771
  3337  0F53  2F55               	goto	u3770
  3338  0F54                     u3771:
  3339  0F54  2F34               	goto	l2394
  3340  0F55                     u3770:
  3341  0F55                     l2406:
  3342  0F55  01C3               	clrf	___fldiv@aexp
  3343  0F56                     l2408:
  3344  0F56  1FC1               	btfss	___fldiv@grs+3,7
  3345  0F57  2F59               	goto	u3781
  3346  0F58  2F5A               	goto	u3780
  3347  0F59                     u3781:
  3348  0F59  2F76               	goto	l2416
  3349  0F5A                     u3780:
  3350  0F5A                     l2410:
  3351  0F5A  30FF               	movlw	255
  3352  0F5B  053E               	andwf	___fldiv@grs,w
  3353  0F5C  00B2               	movwf	??___fldiv
  3354  0F5D  30FF               	movlw	255
  3355  0F5E  053F               	andwf	___fldiv@grs+1,w
  3356  0F5F  00B3               	movwf	??___fldiv+1
  3357  0F60  30FF               	movlw	255
  3358  0F61  0540               	andwf	___fldiv@grs+2,w
  3359  0F62  00B4               	movwf	??___fldiv+2
  3360  0F63  307F               	movlw	127
  3361  0F64  0541               	andwf	___fldiv@grs+3,w
  3362  0F65  00B5               	movwf	??___fldiv+3
  3363  0F66  0835               	movf	??___fldiv+3,w
  3364  0F67  0434               	iorwf	??___fldiv+2,w
  3365  0F68  0433               	iorwf	??___fldiv+1,w
  3366  0F69  0432               	iorwf	??___fldiv,w
  3367  0F6A  1903               	skipnz
  3368  0F6B  2F6D               	goto	u3791
  3369  0F6C  2F6E               	goto	u3790
  3370  0F6D                     u3791:
  3371  0F6D  2F71               	goto	l557
  3372  0F6E                     u3790:
  3373  0F6E                     l2412:
  3374  0F6E  01C3               	clrf	___fldiv@aexp
  3375  0F6F  0AC3               	incf	___fldiv@aexp,f
  3376  0F70  2F76               	goto	l2416
  3377  0F71                     l557:
  3378  0F71  1C2E               	btfss	___fldiv@b,0
  3379  0F72  2F74               	goto	u3801
  3380  0F73  2F75               	goto	u3800
  3381  0F74                     u3801:
  3382  0F74  2F76               	goto	l2416
  3383  0F75                     u3800:
  3384  0F75  2F6E               	goto	l2412
  3385  0F76                     l2416:
  3386  0F76  0843               	movf	___fldiv@aexp,w
  3387  0F77  1903               	btfsc	3,2
  3388  0F78  2F7A               	goto	u3811
  3389  0F79  2F7B               	goto	u3810
  3390  0F7A                     u3811:
  3391  0F7A  2FAC               	goto	l2426
  3392  0F7B                     u3810:
  3393  0F7B                     l2418:
  3394  0F7B  3001               	movlw	1
  3395  0F7C  07AE               	addwf	___fldiv@b,f
  3396  0F7D  3000               	movlw	0
  3397  0F7E  1803               	skipnc
  3398  0F7F  3001               	movlw	1
  3399  0F80  07AF               	addwf	___fldiv@b+1,f
  3400  0F81  3000               	movlw	0
  3401  0F82  1803               	skipnc
  3402  0F83  3001               	movlw	1
  3403  0F84  07B0               	addwf	___fldiv@b+2,f
  3404  0F85  3000               	movlw	0
  3405  0F86  1803               	skipnc
  3406  0F87  3001               	movlw	1
  3407  0F88  07B1               	addwf	___fldiv@b+3,f
  3408  0F89                     l2420:
  3409  0F89  1C31               	btfss	___fldiv@b+3,0
  3410  0F8A  2F8C               	goto	u3821
  3411  0F8B  2F8D               	goto	u3820
  3412  0F8C                     u3821:
  3413  0F8C  2FAC               	goto	l2426
  3414  0F8D                     u3820:
  3415  0F8D                     l2422:
  3416  0F8D  082E               	movf	___fldiv@b,w
  3417  0F8E  00B2               	movwf	??___fldiv
  3418  0F8F  082F               	movf	___fldiv@b+1,w
  3419  0F90  00B3               	movwf	??___fldiv+1
  3420  0F91  0830               	movf	___fldiv@b+2,w
  3421  0F92  00B4               	movwf	??___fldiv+2
  3422  0F93  0831               	movf	___fldiv@b+3,w
  3423  0F94  00B5               	movwf	??___fldiv+3
  3424  0F95  3001               	movlw	1
  3425  0F96  00B6               	movwf	??___fldiv+4
  3426  0F97                     u3835:
  3427  0F97  0D35               	rlf	??___fldiv+3,w
  3428  0F98  0CB5               	rrf	??___fldiv+3,f
  3429  0F99  0CB4               	rrf	??___fldiv+2,f
  3430  0F9A  0CB3               	rrf	??___fldiv+1,f
  3431  0F9B  0CB2               	rrf	??___fldiv,f
  3432  0F9C                     u3830:
  3433  0F9C  0BB6               	decfsz	??___fldiv+4,f
  3434  0F9D  2F97               	goto	u3835
  3435  0F9E  0835               	movf	??___fldiv+3,w
  3436  0F9F  00B1               	movwf	___fldiv@b+3
  3437  0FA0  0834               	movf	??___fldiv+2,w
  3438  0FA1  00B0               	movwf	___fldiv@b+2
  3439  0FA2  0833               	movf	??___fldiv+1,w
  3440  0FA3  00AF               	movwf	___fldiv@b+1
  3441  0FA4  0832               	movf	??___fldiv,w
  3442  0FA5  00AE               	movwf	___fldiv@b
  3443  0FA6                     l2424:
  3444  0FA6  3001               	movlw	1
  3445  0FA7  07BC               	addwf	___fldiv@new_exp,f
  3446  0FA8  1803               	skipnc
  3447  0FA9  0ABD               	incf	___fldiv@new_exp+1,f
  3448  0FAA  3000               	movlw	0
  3449  0FAB  07BD               	addwf	___fldiv@new_exp+1,f
  3450  0FAC                     l2426:
  3451  0FAC  083D               	movf	___fldiv@new_exp+1,w
  3452  0FAD  3A80               	xorlw	128
  3453  0FAE  00FF               	movwf	btemp+1
  3454  0FAF  3080               	movlw	128
  3455  0FB0  027F               	subwf	btemp+1,w
  3456  0FB1  1D03               	skipz
  3457  0FB2  2FB5               	goto	u3845
  3458  0FB3  30FF               	movlw	255
  3459  0FB4  023C               	subwf	___fldiv@new_exp,w
  3460  0FB5                     u3845:
  3461  0FB5  1C03               	skipc
  3462  0FB6  2FB8               	goto	u3841
  3463  0FB7  2FB9               	goto	u3840
  3464  0FB8                     u3841:
  3465  0FB8  2FC7               	goto	l2430
  3466  0FB9                     u3840:
  3467  0FB9                     l2428:
  3468  0FB9  30FF               	movlw	255
  3469  0FBA  1283               	bcf	3,5	;RP0=0, select bank0
  3470  0FBB  1303               	bcf	3,6	;RP1=0, select bank0
  3471  0FBC  00BC               	movwf	___fldiv@new_exp
  3472  0FBD  3000               	movlw	0
  3473  0FBE  00BD               	movwf	___fldiv@new_exp+1
  3474  0FBF  3000               	movlw	0
  3475  0FC0  00B1               	movwf	___fldiv@b+3
  3476  0FC1  3000               	movlw	0
  3477  0FC2  00B0               	movwf	___fldiv@b+2
  3478  0FC3  3000               	movlw	0
  3479  0FC4  00AF               	movwf	___fldiv@b+1
  3480  0FC5  3000               	movlw	0
  3481  0FC6  00AE               	movwf	___fldiv@b
  3482  0FC7                     l2430:
  3483  0FC7  1283               	bcf	3,5	;RP0=0, select bank0
  3484  0FC8  1303               	bcf	3,6	;RP1=0, select bank0
  3485  0FC9  083D               	movf	___fldiv@new_exp+1,w
  3486  0FCA  3A80               	xorlw	128
  3487  0FCB  00FF               	movwf	btemp+1
  3488  0FCC  3080               	movlw	128
  3489  0FCD  027F               	subwf	btemp+1,w
  3490  0FCE  1D03               	skipz
  3491  0FCF  2FD2               	goto	u3855
  3492  0FD0  3001               	movlw	1
  3493  0FD1  023C               	subwf	___fldiv@new_exp,w
  3494  0FD2                     u3855:
  3495  0FD2  1803               	skipnc
  3496  0FD3  2FD5               	goto	u3851
  3497  0FD4  2FD6               	goto	u3850
  3498  0FD5                     u3851:
  3499  0FD5  2FE3               	goto	l563
  3500  0FD6                     u3850:
  3501  0FD6                     l2432:
  3502  0FD6  1283               	bcf	3,5	;RP0=0, select bank0
  3503  0FD7  1303               	bcf	3,6	;RP1=0, select bank0
  3504  0FD8  01BC               	clrf	___fldiv@new_exp
  3505  0FD9  01BD               	clrf	___fldiv@new_exp+1
  3506  0FDA                     l2434:
  3507  0FDA  3000               	movlw	0
  3508  0FDB  00B1               	movwf	___fldiv@b+3
  3509  0FDC  3000               	movlw	0
  3510  0FDD  00B0               	movwf	___fldiv@b+2
  3511  0FDE  3000               	movlw	0
  3512  0FDF  00AF               	movwf	___fldiv@b+1
  3513  0FE0  3000               	movlw	0
  3514  0FE1  00AE               	movwf	___fldiv@b
  3515  0FE2                     l2436:
  3516  0FE2  01BB               	clrf	___fldiv@sign
  3517  0FE3                     l563:
  3518  0FE3  1283               	bcf	3,5	;RP0=0, select bank0
  3519  0FE4  1303               	bcf	3,6	;RP1=0, select bank0
  3520  0FE5  083C               	movf	___fldiv@new_exp,w
  3521  0FE6  00B2               	movwf	??___fldiv
  3522  0FE7  0832               	movf	??___fldiv,w
  3523  0FE8  00C2               	movwf	___fldiv@bexp
  3524  0FE9                     l2438:
  3525  0FE9  1C42               	btfss	___fldiv@bexp,0
  3526  0FEA  2FEC               	goto	u3861
  3527  0FEB  2FED               	goto	u3860
  3528  0FEC                     u3861:
  3529  0FEC  2FEF               	goto	l2442
  3530  0FED                     u3860:
  3531  0FED                     l2440:
  3532  0FED  17B0               	bsf	___fldiv@b+2,7
  3533  0FEE  2FF3               	goto	l565
  3534  0FEF                     l2442:
  3535  0FEF  307F               	movlw	127
  3536  0FF0  00B2               	movwf	??___fldiv
  3537  0FF1  0832               	movf	??___fldiv,w
  3538  0FF2  05B0               	andwf	___fldiv@b+2,f
  3539  0FF3                     l565:
  3540  0FF3  0842               	movf	___fldiv@bexp,w
  3541  0FF4  00B2               	movwf	??___fldiv
  3542  0FF5  1003               	clrc
  3543  0FF6  0C32               	rrf	??___fldiv,w
  3544  0FF7  00B3               	movwf	??___fldiv+1
  3545  0FF8  0833               	movf	??___fldiv+1,w
  3546  0FF9  00B1               	movwf	___fldiv@b+3
  3547  0FFA  083B               	movf	___fldiv@sign,w
  3548  0FFB  00B2               	movwf	??___fldiv
  3549  0FFC  0832               	movf	??___fldiv,w
  3550  0FFD  04B1               	iorwf	___fldiv@b+3,f
  3551  0FFE  2E97               	goto	l2350
  3552  0FFF                     l543:
  3553  0FFF  0008               	return
  3554  1000                     __end_of___fldiv:
  3555                           
  3556                           	psect	text10
  3557  0380                     __ptext10:	
  3558 ;; *************** function ___fladd *****************
  3559 ;; Defined at:
  3560 ;;		line 10 in file "C:\Program Files\Microchip\xc8\v2.35\pic\sources\c90\common\sprcadd.c"
  3561 ;; Parameters:    Size  Location     Type
  3562 ;;  b               4   62[BANK0 ] unsigned char 
  3563 ;;  a               4   66[BANK0 ] unsigned char 
  3564 ;; Auto vars:     Size  Location     Type
  3565 ;;  grs             1    3[BANK1 ] unsigned char 
  3566 ;;  bexp            1    2[BANK1 ] unsigned char 
  3567 ;;  aexp            1    1[BANK1 ] unsigned char 
  3568 ;;  signs           1    0[BANK1 ] unsigned char 
  3569 ;; Return value:  Size  Location     Type
  3570 ;;                  4   62[BANK0 ] unsigned char 
  3571 ;; Registers used:
  3572 ;;		wreg, status,2, status,0, btemp+1
  3573 ;; Tracked objects:
  3574 ;;		On entry : 0/0
  3575 ;;		On exit  : 0/0
  3576 ;;		Unchanged: 0/0
  3577 ;; Data sizes:     COMMON   BANK0   BANK1   BANK3   BANK2
  3578 ;;      Params:         0       8       0       0       0
  3579 ;;      Locals:         0       0       4       0       0
  3580 ;;      Temps:          0       8       0       0       0
  3581 ;;      Totals:         0      16       4       0       0
  3582 ;;Total ram usage:       20 bytes
  3583 ;; Hardware stack levels used: 1
  3584 ;; Hardware stack levels required when called: 1
  3585 ;; This function calls:
  3586 ;;		Nothing
  3587 ;; This function is called by:
  3588 ;;		_map
  3589 ;; This function uses a non-reentrant model
  3590 ;;
  3591                           
  3592  0380                     ___fladd:	
  3593                           ;psect for function ___fladd
  3594                           
  3595  0380                     l2112:	
  3596                           ;incstack = 0
  3597                           ; Regs used in ___fladd: [wreg+status,2+status,0+btemp+1]
  3598                           
  3599  0380  1283               	bcf	3,5	;RP0=0, select bank0
  3600  0381  1303               	bcf	3,6	;RP1=0, select bank0
  3601  0382  0861               	movf	___fladd@b+3,w
  3602  0383  3980               	andlw	128
  3603  0384  00E6               	movwf	??___fladd
  3604  0385  0866               	movf	??___fladd,w
  3605  0386  1683               	bsf	3,5	;RP0=1, select bank1
  3606  0387  1303               	bcf	3,6	;RP1=0, select bank1
  3607  0388  00A0               	movwf	___fladd@signs^(0+128)
  3608  0389                     l2114:
  3609  0389  1283               	bcf	3,5	;RP0=0, select bank0
  3610  038A  1303               	bcf	3,6	;RP1=0, select bank0
  3611  038B  0861               	movf	___fladd@b+3,w
  3612  038C  00E6               	movwf	??___fladd
  3613  038D  0766               	addwf	??___fladd,w
  3614  038E  00E7               	movwf	??___fladd+1
  3615  038F  0867               	movf	??___fladd+1,w
  3616  0390  1683               	bsf	3,5	;RP0=1, select bank1
  3617  0391  1303               	bcf	3,6	;RP1=0, select bank1
  3618  0392  00A2               	movwf	___fladd@bexp^(0+128)
  3619  0393                     l2116:
  3620  0393  1283               	bcf	3,5	;RP0=0, select bank0
  3621  0394  1303               	bcf	3,6	;RP1=0, select bank0
  3622  0395  1FE0               	btfss	___fladd@b+2,7
  3623  0396  2B98               	goto	u3121
  3624  0397  2B99               	goto	u3120
  3625  0398                     u3121:
  3626  0398  2B9C               	goto	l2120
  3627  0399                     u3120:
  3628  0399                     l2118:
  3629  0399  1683               	bsf	3,5	;RP0=1, select bank1
  3630  039A  1303               	bcf	3,6	;RP1=0, select bank1
  3631  039B  1422               	bsf	___fladd@bexp^(0+128),0
  3632  039C                     l2120:
  3633  039C  1683               	bsf	3,5	;RP0=1, select bank1
  3634  039D  1303               	bcf	3,6	;RP1=0, select bank1
  3635  039E  0822               	movf	___fladd@bexp^(0+128),w
  3636  039F  1903               	btfsc	3,2
  3637  03A0  2BA2               	goto	u3131
  3638  03A1  2BA3               	goto	u3130
  3639  03A2                     u3131:
  3640  03A2  2BB6               	goto	l2130
  3641  03A3                     u3130:
  3642  03A3                     l2122:
  3643  03A3  0A22               	incf	___fladd@bexp^(0+128),w
  3644  03A4  1D03               	btfss	3,2
  3645  03A5  2BA7               	goto	u3141
  3646  03A6  2BA8               	goto	u3140
  3647  03A7                     u3141:
  3648  03A7  2BB2               	goto	l2126
  3649  03A8                     u3140:
  3650  03A8                     l2124:
  3651  03A8  3000               	movlw	0
  3652  03A9  1283               	bcf	3,5	;RP0=0, select bank0
  3653  03AA  1303               	bcf	3,6	;RP1=0, select bank0
  3654  03AB  00E1               	movwf	___fladd@b+3
  3655  03AC  3000               	movlw	0
  3656  03AD  00E0               	movwf	___fladd@b+2
  3657  03AE  3000               	movlw	0
  3658  03AF  00DF               	movwf	___fladd@b+1
  3659  03B0  3000               	movlw	0
  3660  03B1  00DE               	movwf	___fladd@b
  3661  03B2                     l2126:
  3662  03B2  1283               	bcf	3,5	;RP0=0, select bank0
  3663  03B3  17E0               	bsf	___fladd@b+2,7
  3664  03B4                     l2128:
  3665  03B4  01E1               	clrf	___fladd@b+3
  3666  03B5  2BC0               	goto	l2132
  3667  03B6                     l2130:
  3668  03B6  3000               	movlw	0
  3669  03B7  1283               	bcf	3,5	;RP0=0, select bank0
  3670  03B8  1303               	bcf	3,6	;RP1=0, select bank0
  3671  03B9  00E1               	movwf	___fladd@b+3
  3672  03BA  3000               	movlw	0
  3673  03BB  00E0               	movwf	___fladd@b+2
  3674  03BC  3000               	movlw	0
  3675  03BD  00DF               	movwf	___fladd@b+1
  3676  03BE  3000               	movlw	0
  3677  03BF  00DE               	movwf	___fladd@b
  3678  03C0                     l2132:
  3679  03C0  0865               	movf	___fladd@a+3,w
  3680  03C1  3980               	andlw	128
  3681  03C2  00E6               	movwf	??___fladd
  3682  03C3  0866               	movf	??___fladd,w
  3683  03C4  1683               	bsf	3,5	;RP0=1, select bank1
  3684  03C5  1303               	bcf	3,6	;RP1=0, select bank1
  3685  03C6  00A1               	movwf	___fladd@aexp^(0+128)
  3686  03C7                     l2134:
  3687  03C7  0821               	movf	___fladd@aexp^(0+128),w
  3688  03C8  0620               	xorwf	___fladd@signs^(0+128),w
  3689  03C9  1903               	skipnz
  3690  03CA  2BCC               	goto	u3151
  3691  03CB  2BCD               	goto	u3150
  3692  03CC                     u3151:
  3693  03CC  2BCE               	goto	l2138
  3694  03CD                     u3150:
  3695  03CD                     l2136:
  3696  03CD  1720               	bsf	___fladd@signs^(0+128),6
  3697  03CE                     l2138:
  3698  03CE  1283               	bcf	3,5	;RP0=0, select bank0
  3699  03CF  1303               	bcf	3,6	;RP1=0, select bank0
  3700  03D0  0865               	movf	___fladd@a+3,w
  3701  03D1  00E6               	movwf	??___fladd
  3702  03D2  0766               	addwf	??___fladd,w
  3703  03D3  00E7               	movwf	??___fladd+1
  3704  03D4  0867               	movf	??___fladd+1,w
  3705  03D5  1683               	bsf	3,5	;RP0=1, select bank1
  3706  03D6  1303               	bcf	3,6	;RP1=0, select bank1
  3707  03D7  00A1               	movwf	___fladd@aexp^(0+128)
  3708  03D8                     l2140:
  3709  03D8  1283               	bcf	3,5	;RP0=0, select bank0
  3710  03D9  1303               	bcf	3,6	;RP1=0, select bank0
  3711  03DA  1FE4               	btfss	___fladd@a+2,7
  3712  03DB  2BDD               	goto	u3161
  3713  03DC  2BDE               	goto	u3160
  3714  03DD                     u3161:
  3715  03DD  2BE1               	goto	l2144
  3716  03DE                     u3160:
  3717  03DE                     l2142:
  3718  03DE  1683               	bsf	3,5	;RP0=1, select bank1
  3719  03DF  1303               	bcf	3,6	;RP1=0, select bank1
  3720  03E0  1421               	bsf	___fladd@aexp^(0+128),0
  3721  03E1                     l2144:
  3722  03E1  1683               	bsf	3,5	;RP0=1, select bank1
  3723  03E2  1303               	bcf	3,6	;RP1=0, select bank1
  3724  03E3  0821               	movf	___fladd@aexp^(0+128),w
  3725  03E4  1903               	btfsc	3,2
  3726  03E5  2BE7               	goto	u3171
  3727  03E6  2BE8               	goto	u3170
  3728  03E7                     u3171:
  3729  03E7  2BFB               	goto	l2154
  3730  03E8                     u3170:
  3731  03E8                     l2146:
  3732  03E8  0A21               	incf	___fladd@aexp^(0+128),w
  3733  03E9  1D03               	btfss	3,2
  3734  03EA  2BEC               	goto	u3181
  3735  03EB  2BED               	goto	u3180
  3736  03EC                     u3181:
  3737  03EC  2BF7               	goto	l2150
  3738  03ED                     u3180:
  3739  03ED                     l2148:
  3740  03ED  3000               	movlw	0
  3741  03EE  1283               	bcf	3,5	;RP0=0, select bank0
  3742  03EF  1303               	bcf	3,6	;RP1=0, select bank0
  3743  03F0  00E5               	movwf	___fladd@a+3
  3744  03F1  3000               	movlw	0
  3745  03F2  00E4               	movwf	___fladd@a+2
  3746  03F3  3000               	movlw	0
  3747  03F4  00E3               	movwf	___fladd@a+1
  3748  03F5  3000               	movlw	0
  3749  03F6  00E2               	movwf	___fladd@a
  3750  03F7                     l2150:
  3751  03F7  1283               	bcf	3,5	;RP0=0, select bank0
  3752  03F8  17E4               	bsf	___fladd@a+2,7
  3753  03F9                     l2152:
  3754  03F9  01E5               	clrf	___fladd@a+3
  3755  03FA  2C05               	goto	l485
  3756  03FB                     l2154:
  3757  03FB  3000               	movlw	0
  3758  03FC  1283               	bcf	3,5	;RP0=0, select bank0
  3759  03FD  1303               	bcf	3,6	;RP1=0, select bank0
  3760  03FE  00E5               	movwf	___fladd@a+3
  3761  03FF  3000               	movlw	0
  3762  0400  00E4               	movwf	___fladd@a+2
  3763  0401  3000               	movlw	0
  3764  0402  00E3               	movwf	___fladd@a+1
  3765  0403  3000               	movlw	0
  3766  0404  00E2               	movwf	___fladd@a
  3767  0405                     l485:
  3768  0405  1683               	bsf	3,5	;RP0=1, select bank1
  3769  0406  1303               	bcf	3,6	;RP1=0, select bank1
  3770  0407  0822               	movf	___fladd@bexp^(0+128),w
  3771  0408  0221               	subwf	___fladd@aexp^(0+128),w
  3772  0409  1803               	skipnc
  3773  040A  2C0C               	goto	u3191
  3774  040B  2C0D               	goto	u3190
  3775  040C                     u3191:
  3776  040C  2C83               	goto	l2190
  3777  040D                     u3190:
  3778  040D                     l2156:
  3779  040D  1F20               	btfss	___fladd@signs^(0+128),6
  3780  040E  2C10               	goto	u3201
  3781  040F  2C11               	goto	u3200
  3782  0410                     u3201:
  3783  0410  2C19               	goto	l2160
  3784  0411                     u3200:
  3785  0411                     l2158:
  3786  0411  3080               	movlw	128
  3787  0412  1283               	bcf	3,5	;RP0=0, select bank0
  3788  0413  1303               	bcf	3,6	;RP1=0, select bank0
  3789  0414  00E6               	movwf	??___fladd
  3790  0415  0866               	movf	??___fladd,w
  3791  0416  1683               	bsf	3,5	;RP0=1, select bank1
  3792  0417  1303               	bcf	3,6	;RP1=0, select bank1
  3793  0418  06A0               	xorwf	___fladd@signs^(0+128),f
  3794  0419                     l2160:
  3795  0419  0822               	movf	___fladd@bexp^(0+128),w
  3796  041A  1283               	bcf	3,5	;RP0=0, select bank0
  3797  041B  1303               	bcf	3,6	;RP1=0, select bank0
  3798  041C  00E6               	movwf	??___fladd
  3799  041D  0866               	movf	??___fladd,w
  3800  041E  1683               	bsf	3,5	;RP0=1, select bank1
  3801  041F  1303               	bcf	3,6	;RP1=0, select bank1
  3802  0420  00A3               	movwf	___fladd@grs^(0+128)
  3803  0421                     l2162:
  3804  0421  0821               	movf	___fladd@aexp^(0+128),w
  3805  0422  1283               	bcf	3,5	;RP0=0, select bank0
  3806  0423  1303               	bcf	3,6	;RP1=0, select bank0
  3807  0424  00E6               	movwf	??___fladd
  3808  0425  0866               	movf	??___fladd,w
  3809  0426  1683               	bsf	3,5	;RP0=1, select bank1
  3810  0427  1303               	bcf	3,6	;RP1=0, select bank1
  3811  0428  00A2               	movwf	___fladd@bexp^(0+128)
  3812  0429                     l2164:
  3813  0429  0823               	movf	___fladd@grs^(0+128),w
  3814  042A  1283               	bcf	3,5	;RP0=0, select bank0
  3815  042B  1303               	bcf	3,6	;RP1=0, select bank0
  3816  042C  00E6               	movwf	??___fladd
  3817  042D  0866               	movf	??___fladd,w
  3818  042E  1683               	bsf	3,5	;RP0=1, select bank1
  3819  042F  1303               	bcf	3,6	;RP1=0, select bank1
  3820  0430  00A1               	movwf	___fladd@aexp^(0+128)
  3821  0431                     l2166:
  3822  0431  1283               	bcf	3,5	;RP0=0, select bank0
  3823  0432  1303               	bcf	3,6	;RP1=0, select bank0
  3824  0433  085E               	movf	___fladd@b,w
  3825  0434  00E6               	movwf	??___fladd
  3826  0435  0866               	movf	??___fladd,w
  3827  0436  1683               	bsf	3,5	;RP0=1, select bank1
  3828  0437  1303               	bcf	3,6	;RP1=0, select bank1
  3829  0438  00A3               	movwf	___fladd@grs^(0+128)
  3830  0439                     l2168:
  3831  0439  1283               	bcf	3,5	;RP0=0, select bank0
  3832  043A  1303               	bcf	3,6	;RP1=0, select bank0
  3833  043B  0862               	movf	___fladd@a,w
  3834  043C  00E6               	movwf	??___fladd
  3835  043D  0866               	movf	??___fladd,w
  3836  043E  00DE               	movwf	___fladd@b
  3837  043F                     l2170:
  3838  043F  1683               	bsf	3,5	;RP0=1, select bank1
  3839  0440  1303               	bcf	3,6	;RP1=0, select bank1
  3840  0441  0823               	movf	___fladd@grs^(0+128),w
  3841  0442  1283               	bcf	3,5	;RP0=0, select bank0
  3842  0443  1303               	bcf	3,6	;RP1=0, select bank0
  3843  0444  00E6               	movwf	??___fladd
  3844  0445  0866               	movf	??___fladd,w
  3845  0446  00E2               	movwf	___fladd@a
  3846  0447                     l2172:
  3847  0447  085F               	movf	___fladd@b+1,w
  3848  0448  00E6               	movwf	??___fladd
  3849  0449  0866               	movf	??___fladd,w
  3850  044A  1683               	bsf	3,5	;RP0=1, select bank1
  3851  044B  1303               	bcf	3,6	;RP1=0, select bank1
  3852  044C  00A3               	movwf	___fladd@grs^(0+128)
  3853  044D                     l2174:
  3854  044D  1283               	bcf	3,5	;RP0=0, select bank0
  3855  044E  1303               	bcf	3,6	;RP1=0, select bank0
  3856  044F  0863               	movf	___fladd@a+1,w
  3857  0450  00E6               	movwf	??___fladd
  3858  0451  0866               	movf	??___fladd,w
  3859  0452  00DF               	movwf	___fladd@b+1
  3860  0453                     l2176:
  3861  0453  1683               	bsf	3,5	;RP0=1, select bank1
  3862  0454  1303               	bcf	3,6	;RP1=0, select bank1
  3863  0455  0823               	movf	___fladd@grs^(0+128),w
  3864  0456  1283               	bcf	3,5	;RP0=0, select bank0
  3865  0457  1303               	bcf	3,6	;RP1=0, select bank0
  3866  0458  00E6               	movwf	??___fladd
  3867  0459  0866               	movf	??___fladd,w
  3868  045A  00E3               	movwf	___fladd@a+1
  3869  045B                     l2178:
  3870  045B  0860               	movf	___fladd@b+2,w
  3871  045C  00E6               	movwf	??___fladd
  3872  045D  0866               	movf	??___fladd,w
  3873  045E  1683               	bsf	3,5	;RP0=1, select bank1
  3874  045F  1303               	bcf	3,6	;RP1=0, select bank1
  3875  0460  00A3               	movwf	___fladd@grs^(0+128)
  3876  0461                     l2180:
  3877  0461  1283               	bcf	3,5	;RP0=0, select bank0
  3878  0462  1303               	bcf	3,6	;RP1=0, select bank0
  3879  0463  0864               	movf	___fladd@a+2,w
  3880  0464  00E6               	movwf	??___fladd
  3881  0465  0866               	movf	??___fladd,w
  3882  0466  00E0               	movwf	___fladd@b+2
  3883  0467                     l2182:
  3884  0467  1683               	bsf	3,5	;RP0=1, select bank1
  3885  0468  1303               	bcf	3,6	;RP1=0, select bank1
  3886  0469  0823               	movf	___fladd@grs^(0+128),w
  3887  046A  1283               	bcf	3,5	;RP0=0, select bank0
  3888  046B  1303               	bcf	3,6	;RP1=0, select bank0
  3889  046C  00E6               	movwf	??___fladd
  3890  046D  0866               	movf	??___fladd,w
  3891  046E  00E4               	movwf	___fladd@a+2
  3892  046F                     l2184:
  3893  046F  0861               	movf	___fladd@b+3,w
  3894  0470  00E6               	movwf	??___fladd
  3895  0471  0866               	movf	??___fladd,w
  3896  0472  1683               	bsf	3,5	;RP0=1, select bank1
  3897  0473  1303               	bcf	3,6	;RP1=0, select bank1
  3898  0474  00A3               	movwf	___fladd@grs^(0+128)
  3899  0475                     l2186:
  3900  0475  1283               	bcf	3,5	;RP0=0, select bank0
  3901  0476  1303               	bcf	3,6	;RP1=0, select bank0
  3902  0477  0865               	movf	___fladd@a+3,w
  3903  0478  00E6               	movwf	??___fladd
  3904  0479  0866               	movf	??___fladd,w
  3905  047A  00E1               	movwf	___fladd@b+3
  3906  047B                     l2188:
  3907  047B  1683               	bsf	3,5	;RP0=1, select bank1
  3908  047C  1303               	bcf	3,6	;RP1=0, select bank1
  3909  047D  0823               	movf	___fladd@grs^(0+128),w
  3910  047E  1283               	bcf	3,5	;RP0=0, select bank0
  3911  047F  1303               	bcf	3,6	;RP1=0, select bank0
  3912  0480  00E6               	movwf	??___fladd
  3913  0481  0866               	movf	??___fladd,w
  3914  0482  00E5               	movwf	___fladd@a+3
  3915  0483                     l2190:
  3916  0483  1683               	bsf	3,5	;RP0=1, select bank1
  3917  0484  1303               	bcf	3,6	;RP1=0, select bank1
  3918  0485  01A3               	clrf	___fladd@grs^(0+128)
  3919  0486                     l2192:
  3920  0486  0821               	movf	___fladd@aexp^(0+128),w
  3921  0487  1283               	bcf	3,5	;RP0=0, select bank0
  3922  0488  1303               	bcf	3,6	;RP1=0, select bank0
  3923  0489  00E6               	movwf	??___fladd
  3924  048A  01E7               	clrf	??___fladd+1
  3925  048B  0867               	movf	??___fladd+1,w
  3926  048C  00E9               	movwf	??___fladd+3
  3927  048D  1683               	bsf	3,5	;RP0=1, select bank1
  3928  048E  1303               	bcf	3,6	;RP1=0, select bank1
  3929  048F  0822               	movf	___fladd@bexp^(0+128),w
  3930  0490  1283               	bcf	3,5	;RP0=0, select bank0
  3931  0491  1303               	bcf	3,6	;RP1=0, select bank0
  3932  0492  0266               	subwf	??___fladd,w
  3933  0493  00E8               	movwf	??___fladd+2
  3934  0494  1C03               	skipc
  3935  0495  03E9               	decf	??___fladd+3,f
  3936  0496  0869               	movf	??___fladd+3,w
  3937  0497  3A80               	xorlw	128
  3938  0498  00FF               	movwf	btemp+1
  3939  0499  3080               	movlw	128
  3940  049A  027F               	subwf	btemp+1,w
  3941  049B  1D03               	skipz
  3942  049C  2C9F               	goto	u3215
  3943  049D  301A               	movlw	26
  3944  049E  0268               	subwf	??___fladd+2,w
  3945  049F                     u3215:
  3946  049F  1C03               	skipc
  3947  04A0  2CA2               	goto	u3211
  3948  04A1  2CA3               	goto	u3210
  3949  04A2                     u3211:
  3950  04A2  2CF5               	goto	l2208
  3951  04A3                     u3210:
  3952  04A3                     l2194:
  3953  04A3  1283               	bcf	3,5	;RP0=0, select bank0
  3954  04A4  1303               	bcf	3,6	;RP1=0, select bank0
  3955  04A5  0861               	movf	___fladd@b+3,w
  3956  04A6  0460               	iorwf	___fladd@b+2,w
  3957  04A7  045F               	iorwf	___fladd@b+1,w
  3958  04A8  045E               	iorwf	___fladd@b,w
  3959  04A9  1D03               	skipz
  3960  04AA  2CAC               	goto	u3221
  3961  04AB  2CAE               	goto	u3220
  3962  04AC                     u3221:
  3963  04AC  3001               	movlw	1
  3964  04AD  2CAF               	goto	u3230
  3965  04AE                     u3220:
  3966  04AE  3000               	movlw	0
  3967  04AF                     u3230:
  3968  04AF  00E6               	movwf	??___fladd
  3969  04B0  0866               	movf	??___fladd,w
  3970  04B1  1683               	bsf	3,5	;RP0=1, select bank1
  3971  04B2  1303               	bcf	3,6	;RP1=0, select bank1
  3972  04B3  00A3               	movwf	___fladd@grs^(0+128)
  3973  04B4  3000               	movlw	0
  3974  04B5  1283               	bcf	3,5	;RP0=0, select bank0
  3975  04B6  1303               	bcf	3,6	;RP1=0, select bank0
  3976  04B7  00E1               	movwf	___fladd@b+3
  3977  04B8  3000               	movlw	0
  3978  04B9  00E0               	movwf	___fladd@b+2
  3979  04BA  3000               	movlw	0
  3980  04BB  00DF               	movwf	___fladd@b+1
  3981  04BC  3000               	movlw	0
  3982  04BD  00DE               	movwf	___fladd@b
  3983  04BE  1683               	bsf	3,5	;RP0=1, select bank1
  3984  04BF  1303               	bcf	3,6	;RP1=0, select bank1
  3985  04C0  0821               	movf	___fladd@aexp^(0+128),w
  3986  04C1  1283               	bcf	3,5	;RP0=0, select bank0
  3987  04C2  1303               	bcf	3,6	;RP1=0, select bank0
  3988  04C3  00E6               	movwf	??___fladd
  3989  04C4  0866               	movf	??___fladd,w
  3990  04C5  1683               	bsf	3,5	;RP0=1, select bank1
  3991  04C6  1303               	bcf	3,6	;RP1=0, select bank1
  3992  04C7  00A2               	movwf	___fladd@bexp^(0+128)
  3993  04C8  2CFD               	goto	l489
  3994  04C9                     l491:
  3995  04C9  1C23               	btfss	___fladd@grs^(0+128),0
  3996  04CA  2CCC               	goto	u3241
  3997  04CB  2CCD               	goto	u3240
  3998  04CC                     u3241:
  3999  04CC  2CDA               	goto	l2198
  4000  04CD                     u3240:
  4001  04CD                     l2196:
  4002  04CD  0823               	movf	___fladd@grs^(0+128),w
  4003  04CE  1283               	bcf	3,5	;RP0=0, select bank0
  4004  04CF  1303               	bcf	3,6	;RP1=0, select bank0
  4005  04D0  00E6               	movwf	??___fladd
  4006  04D1  1003               	clrc
  4007  04D2  0C66               	rrf	??___fladd,w
  4008  04D3  3801               	iorlw	1
  4009  04D4  00E7               	movwf	??___fladd+1
  4010  04D5  0867               	movf	??___fladd+1,w
  4011  04D6  1683               	bsf	3,5	;RP0=1, select bank1
  4012  04D7  1303               	bcf	3,6	;RP1=0, select bank1
  4013  04D8  00A3               	movwf	___fladd@grs^(0+128)
  4014  04D9  2CDC               	goto	l2200
  4015  04DA                     l2198:
  4016  04DA  1003               	clrc
  4017  04DB  0CA3               	rrf	___fladd@grs^(0+128),f
  4018  04DC                     l2200:
  4019  04DC  1283               	bcf	3,5	;RP0=0, select bank0
  4020  04DD  1303               	bcf	3,6	;RP1=0, select bank0
  4021  04DE  1C5E               	btfss	___fladd@b,0
  4022  04DF  2CE1               	goto	u3251
  4023  04E0  2CE2               	goto	u3250
  4024  04E1                     u3251:
  4025  04E1  2CE5               	goto	l2204
  4026  04E2                     u3250:
  4027  04E2                     l2202:
  4028  04E2  1683               	bsf	3,5	;RP0=1, select bank1
  4029  04E3  1303               	bcf	3,6	;RP1=0, select bank1
  4030  04E4  17A3               	bsf	___fladd@grs^(0+128),7
  4031  04E5                     l2204:
  4032  04E5  3001               	movlw	1
  4033  04E6  1283               	bcf	3,5	;RP0=0, select bank0
  4034  04E7  00E6               	movwf	??___fladd
  4035  04E8                     u3265:
  4036  04E8  0D61               	rlf	___fladd@b+3,w
  4037  04E9  0CE1               	rrf	___fladd@b+3,f
  4038  04EA  0CE0               	rrf	___fladd@b+2,f
  4039  04EB  0CDF               	rrf	___fladd@b+1,f
  4040  04EC  0CDE               	rrf	___fladd@b,f
  4041  04ED  0BE6               	decfsz	??___fladd& (0+127),f
  4042  04EE  2CE8               	goto	u3265
  4043  04EF                     l2206:
  4044  04EF  3001               	movlw	1
  4045  04F0  00E6               	movwf	??___fladd
  4046  04F1  0866               	movf	??___fladd,w
  4047  04F2  1683               	bsf	3,5	;RP0=1, select bank1
  4048  04F3  1303               	bcf	3,6	;RP1=0, select bank1
  4049  04F4  07A2               	addwf	___fladd@bexp^(0+128),f
  4050  04F5                     l2208:
  4051  04F5  1683               	bsf	3,5	;RP0=1, select bank1
  4052  04F6  1303               	bcf	3,6	;RP1=0, select bank1
  4053  04F7  0821               	movf	___fladd@aexp^(0+128),w
  4054  04F8  0222               	subwf	___fladd@bexp^(0+128),w
  4055  04F9  1C03               	skipc
  4056  04FA  2CFC               	goto	u3271
  4057  04FB  2CFD               	goto	u3270
  4058  04FC                     u3271:
  4059  04FC  2CC9               	goto	l491
  4060  04FD                     u3270:
  4061  04FD                     l489:
  4062  04FD  1B20               	btfsc	___fladd@signs^(0+128),6
  4063  04FE  2D00               	goto	u3281
  4064  04FF  2D01               	goto	u3280
  4065  0500                     u3281:
  4066  0500  2D5D               	goto	l2234
  4067  0501                     u3280:
  4068  0501                     l2210:
  4069  0501  0822               	movf	___fladd@bexp^(0+128),w
  4070  0502  1D03               	btfss	3,2
  4071  0503  2D05               	goto	u3291
  4072  0504  2D06               	goto	u3290
  4073  0505                     u3291:
  4074  0505  2D11               	goto	l2216
  4075  0506                     u3290:
  4076  0506                     l2212:
  4077  0506  3000               	movlw	0
  4078  0507  1283               	bcf	3,5	;RP0=0, select bank0
  4079  0508  1303               	bcf	3,6	;RP1=0, select bank0
  4080  0509  00E1               	movwf	?___fladd+3
  4081  050A  3000               	movlw	0
  4082  050B  00E0               	movwf	?___fladd+2
  4083  050C  3000               	movlw	0
  4084  050D  00DF               	movwf	?___fladd+1
  4085  050E  3000               	movlw	0
  4086  050F  00DE               	movwf	?___fladd
  4087  0510  2EBF               	goto	l498
  4088  0511                     l2216:
  4089  0511  1283               	bcf	3,5	;RP0=0, select bank0
  4090  0512  1303               	bcf	3,6	;RP1=0, select bank0
  4091  0513  0862               	movf	___fladd@a,w
  4092  0514  07DE               	addwf	___fladd@b,f
  4093  0515  0863               	movf	___fladd@a+1,w
  4094  0516  1103               	clrz
  4095  0517  1803               	skipnc
  4096  0518  3E01               	addlw	1
  4097  0519  1903               	skipnz
  4098  051A  2D1C               	goto	u3301
  4099  051B  07DF               	addwf	___fladd@b+1,f
  4100  051C                     u3301:
  4101  051C  0864               	movf	___fladd@a+2,w
  4102  051D  1103               	clrz
  4103  051E  1803               	skipnc
  4104  051F  3E01               	addlw	1
  4105  0520  1903               	skipnz
  4106  0521  2D23               	goto	u3302
  4107  0522  07E0               	addwf	___fladd@b+2,f
  4108  0523                     u3302:
  4109  0523  0865               	movf	___fladd@a+3,w
  4110  0524  1103               	clrz
  4111  0525  1803               	skipnc
  4112  0526  3E01               	addlw	1
  4113  0527  1903               	skipnz
  4114  0528  2D2A               	goto	u3303
  4115  0529  07E1               	addwf	___fladd@b+3,f
  4116  052A                     u3303:
  4117  052A                     l2218:
  4118  052A  1C61               	btfss	___fladd@b+3,0
  4119  052B  2D2D               	goto	u3311
  4120  052C  2D2E               	goto	u3310
  4121  052D                     u3311:
  4122  052D  2E23               	goto	l2268
  4123  052E                     u3310:
  4124  052E                     l2220:
  4125  052E  1683               	bsf	3,5	;RP0=1, select bank1
  4126  052F  1303               	bcf	3,6	;RP1=0, select bank1
  4127  0530  1C23               	btfss	___fladd@grs^(0+128),0
  4128  0531  2D33               	goto	u3321
  4129  0532  2D34               	goto	u3320
  4130  0533                     u3321:
  4131  0533  2D41               	goto	l2224
  4132  0534                     u3320:
  4133  0534                     l2222:
  4134  0534  0823               	movf	___fladd@grs^(0+128),w
  4135  0535  1283               	bcf	3,5	;RP0=0, select bank0
  4136  0536  1303               	bcf	3,6	;RP1=0, select bank0
  4137  0537  00E6               	movwf	??___fladd
  4138  0538  1003               	clrc
  4139  0539  0C66               	rrf	??___fladd,w
  4140  053A  3801               	iorlw	1
  4141  053B  00E7               	movwf	??___fladd+1
  4142  053C  0867               	movf	??___fladd+1,w
  4143  053D  1683               	bsf	3,5	;RP0=1, select bank1
  4144  053E  1303               	bcf	3,6	;RP1=0, select bank1
  4145  053F  00A3               	movwf	___fladd@grs^(0+128)
  4146  0540  2D43               	goto	l2226
  4147  0541                     l2224:
  4148  0541  1003               	clrc
  4149  0542  0CA3               	rrf	___fladd@grs^(0+128),f
  4150  0543                     l2226:
  4151  0543  1283               	bcf	3,5	;RP0=0, select bank0
  4152  0544  1303               	bcf	3,6	;RP1=0, select bank0
  4153  0545  1C5E               	btfss	___fladd@b,0
  4154  0546  2D48               	goto	u3331
  4155  0547  2D49               	goto	u3330
  4156  0548                     u3331:
  4157  0548  2D4C               	goto	l2230
  4158  0549                     u3330:
  4159  0549                     l2228:
  4160  0549  1683               	bsf	3,5	;RP0=1, select bank1
  4161  054A  1303               	bcf	3,6	;RP1=0, select bank1
  4162  054B  17A3               	bsf	___fladd@grs^(0+128),7
  4163  054C                     l2230:
  4164  054C  3001               	movlw	1
  4165  054D  1283               	bcf	3,5	;RP0=0, select bank0
  4166  054E  00E6               	movwf	??___fladd
  4167  054F                     u3345:
  4168  054F  0D61               	rlf	___fladd@b+3,w
  4169  0550  0CE1               	rrf	___fladd@b+3,f
  4170  0551  0CE0               	rrf	___fladd@b+2,f
  4171  0552  0CDF               	rrf	___fladd@b+1,f
  4172  0553  0CDE               	rrf	___fladd@b,f
  4173  0554  0BE6               	decfsz	??___fladd& (0+127),f
  4174  0555  2D4F               	goto	u3345
  4175  0556                     l2232:
  4176  0556  3001               	movlw	1
  4177  0557  00E6               	movwf	??___fladd
  4178  0558  0866               	movf	??___fladd,w
  4179  0559  1683               	bsf	3,5	;RP0=1, select bank1
  4180  055A  1303               	bcf	3,6	;RP1=0, select bank1
  4181  055B  07A2               	addwf	___fladd@bexp^(0+128),f
  4182  055C  2E23               	goto	l2268
  4183  055D                     l2234:
  4184  055D  1283               	bcf	3,5	;RP0=0, select bank0
  4185  055E  1303               	bcf	3,6	;RP1=0, select bank0
  4186  055F  0861               	movf	___fladd@b+3,w
  4187  0560  3A80               	xorlw	128
  4188  0561  00FF               	movwf	btemp+1
  4189  0562  0865               	movf	___fladd@a+3,w
  4190  0563  3A80               	xorlw	128
  4191  0564  027F               	subwf	btemp+1,w
  4192  0565  1D03               	skipz
  4193  0566  2D71               	goto	u3353
  4194  0567  0864               	movf	___fladd@a+2,w
  4195  0568  0260               	subwf	___fladd@b+2,w
  4196  0569  1D03               	skipz
  4197  056A  2D71               	goto	u3353
  4198  056B  0863               	movf	___fladd@a+1,w
  4199  056C  025F               	subwf	___fladd@b+1,w
  4200  056D  1D03               	skipz
  4201  056E  2D71               	goto	u3353
  4202  056F  0862               	movf	___fladd@a,w
  4203  0570  025E               	subwf	___fladd@b,w
  4204  0571                     u3353:
  4205  0571  1803               	skipnc
  4206  0572  2D74               	goto	u3351
  4207  0573  2D75               	goto	u3350
  4208  0574                     u3351:
  4209  0574  2DD1               	goto	l2244
  4210  0575                     u3350:
  4211  0575                     l2236:
  4212  0575  30FF               	movlw	255
  4213  0576  00E6               	movwf	??___fladd
  4214  0577  30FF               	movlw	255
  4215  0578  00E7               	movwf	??___fladd+1
  4216  0579  30FF               	movlw	255
  4217  057A  00E8               	movwf	??___fladd+2
  4218  057B  30FF               	movlw	255
  4219  057C  00E9               	movwf	??___fladd+3
  4220  057D  0862               	movf	___fladd@a,w
  4221  057E  00EA               	movwf	??___fladd+4
  4222  057F  0863               	movf	___fladd@a+1,w
  4223  0580  00EB               	movwf	??___fladd+5
  4224  0581  0864               	movf	___fladd@a+2,w
  4225  0582  00EC               	movwf	??___fladd+6
  4226  0583  0865               	movf	___fladd@a+3,w
  4227  0584  00ED               	movwf	??___fladd+7
  4228  0585  085E               	movf	___fladd@b,w
  4229  0586  02EA               	subwf	??___fladd+4,f
  4230  0587  085F               	movf	___fladd@b+1,w
  4231  0588  1C03               	skipc
  4232  0589  0F5F               	incfsz	___fladd@b+1,w
  4233  058A  2D8C               	goto	u3361
  4234  058B  2D8D               	goto	u3362
  4235  058C                     u3361:
  4236  058C  02EB               	subwf	??___fladd+5,f
  4237  058D                     u3362:
  4238  058D  0860               	movf	___fladd@b+2,w
  4239  058E  1C03               	skipc
  4240  058F  0F60               	incfsz	___fladd@b+2,w
  4241  0590  2D92               	goto	u3363
  4242  0591  2D93               	goto	u3364
  4243  0592                     u3363:
  4244  0592  02EC               	subwf	??___fladd+6,f
  4245  0593                     u3364:
  4246  0593  0861               	movf	___fladd@b+3,w
  4247  0594  1C03               	skipc
  4248  0595  0F61               	incfsz	___fladd@b+3,w
  4249  0596  2D98               	goto	u3365
  4250  0597  2D99               	goto	u3366
  4251  0598                     u3365:
  4252  0598  02ED               	subwf	??___fladd+7,f
  4253  0599                     u3366:
  4254  0599  086A               	movf	??___fladd+4,w
  4255  059A  07E6               	addwf	??___fladd,f
  4256  059B  086B               	movf	??___fladd+5,w
  4257  059C  1803               	skipnc
  4258  059D  0F6B               	incfsz	??___fladd+5,w
  4259  059E  2DA0               	goto	u3370
  4260  059F  2DA1               	goto	u3371
  4261  05A0                     u3370:
  4262  05A0  07E7               	addwf	??___fladd+1,f
  4263  05A1                     u3371:
  4264  05A1  086C               	movf	??___fladd+6,w
  4265  05A2  1803               	skipnc
  4266  05A3  0F6C               	incfsz	??___fladd+6,w
  4267  05A4  2DA6               	goto	u3372
  4268  05A5  2DA7               	goto	u3373
  4269  05A6                     u3372:
  4270  05A6  07E8               	addwf	??___fladd+2,f
  4271  05A7                     u3373:
  4272  05A7  086D               	movf	??___fladd+7,w
  4273  05A8  1803               	skipnc
  4274  05A9  0A6D               	incf	??___fladd+7,w
  4275  05AA  07E9               	addwf	??___fladd+3,f
  4276  05AB  0869               	movf	??___fladd+3,w
  4277  05AC  00E1               	movwf	___fladd@b+3
  4278  05AD  0868               	movf	??___fladd+2,w
  4279  05AE  00E0               	movwf	___fladd@b+2
  4280  05AF  0867               	movf	??___fladd+1,w
  4281  05B0  00DF               	movwf	___fladd@b+1
  4282  05B1  0866               	movf	??___fladd,w
  4283  05B2  00DE               	movwf	___fladd@b
  4284  05B3                     l2238:
  4285  05B3  3080               	movlw	128
  4286  05B4  00E6               	movwf	??___fladd
  4287  05B5  0866               	movf	??___fladd,w
  4288  05B6  1683               	bsf	3,5	;RP0=1, select bank1
  4289  05B7  1303               	bcf	3,6	;RP1=0, select bank1
  4290  05B8  06A0               	xorwf	___fladd@signs^(0+128),f
  4291  05B9  09A3               	comf	___fladd@grs^(0+128),f
  4292  05BA  0AA3               	incf	___fladd@grs^(0+128),f
  4293  05BB                     l2240:
  4294  05BB  0823               	movf	___fladd@grs^(0+128),w
  4295  05BC  1D03               	btfss	3,2
  4296  05BD  2DBF               	goto	u3381
  4297  05BE  2DC0               	goto	u3380
  4298  05BF                     u3381:
  4299  05BF  2DDF               	goto	l506
  4300  05C0                     u3380:
  4301  05C0                     l2242:
  4302  05C0  3001               	movlw	1
  4303  05C1  1283               	bcf	3,5	;RP0=0, select bank0
  4304  05C2  1303               	bcf	3,6	;RP1=0, select bank0
  4305  05C3  07DE               	addwf	___fladd@b,f
  4306  05C4  3000               	movlw	0
  4307  05C5  1803               	skipnc
  4308  05C6  3001               	movlw	1
  4309  05C7  07DF               	addwf	___fladd@b+1,f
  4310  05C8  3000               	movlw	0
  4311  05C9  1803               	skipnc
  4312  05CA  3001               	movlw	1
  4313  05CB  07E0               	addwf	___fladd@b+2,f
  4314  05CC  3000               	movlw	0
  4315  05CD  1803               	skipnc
  4316  05CE  3001               	movlw	1
  4317  05CF  07E1               	addwf	___fladd@b+3,f
  4318  05D0  2DDF               	goto	l506
  4319  05D1                     l2244:
  4320  05D1  0862               	movf	___fladd@a,w
  4321  05D2  02DE               	subwf	___fladd@b,f
  4322  05D3  0863               	movf	___fladd@a+1,w
  4323  05D4  1C03               	skipc
  4324  05D5  0F63               	incfsz	___fladd@a+1,w
  4325  05D6  02DF               	subwf	___fladd@b+1,f
  4326  05D7  0864               	movf	___fladd@a+2,w
  4327  05D8  1C03               	skipc
  4328  05D9  0F64               	incfsz	___fladd@a+2,w
  4329  05DA  02E0               	subwf	___fladd@b+2,f
  4330  05DB  0865               	movf	___fladd@a+3,w
  4331  05DC  1C03               	skipc
  4332  05DD  0F65               	incfsz	___fladd@a+3,w
  4333  05DE  02E1               	subwf	___fladd@b+3,f
  4334  05DF                     l506:
  4335  05DF  1283               	bcf	3,5	;RP0=0, select bank0
  4336  05E0  0861               	movf	___fladd@b+3,w
  4337  05E1  0460               	iorwf	___fladd@b+2,w
  4338  05E2  045F               	iorwf	___fladd@b+1,w
  4339  05E3  045E               	iorwf	___fladd@b,w
  4340  05E4  1D03               	skipz
  4341  05E5  2DE7               	goto	u3391
  4342  05E6  2DE8               	goto	u3390
  4343  05E7                     u3391:
  4344  05E7  2E1E               	goto	l2266
  4345  05E8                     u3390:
  4346  05E8                     l2246:
  4347  05E8  1683               	bsf	3,5	;RP0=1, select bank1
  4348  05E9  1303               	bcf	3,6	;RP1=0, select bank1
  4349  05EA  0823               	movf	___fladd@grs^(0+128),w
  4350  05EB  1D03               	btfss	3,2
  4351  05EC  2DEE               	goto	u3401
  4352  05ED  2DEF               	goto	u3400
  4353  05EE                     u3401:
  4354  05EE  2E1E               	goto	l2266
  4355  05EF                     u3400:
  4356  05EF                     l2248:
  4357  05EF  3000               	movlw	0
  4358  05F0  1283               	bcf	3,5	;RP0=0, select bank0
  4359  05F1  1303               	bcf	3,6	;RP1=0, select bank0
  4360  05F2  00E1               	movwf	?___fladd+3
  4361  05F3  3000               	movlw	0
  4362  05F4  00E0               	movwf	?___fladd+2
  4363  05F5  3000               	movlw	0
  4364  05F6  00DF               	movwf	?___fladd+1
  4365  05F7  3000               	movlw	0
  4366  05F8  00DE               	movwf	?___fladd
  4367  05F9  2EBF               	goto	l498
  4368  05FA                     l2252:
  4369  05FA  3001               	movlw	1
  4370  05FB  00E6               	movwf	??___fladd
  4371  05FC                     u3415:
  4372  05FC  1003               	clrc
  4373  05FD  0DDE               	rlf	___fladd@b,f
  4374  05FE  0DDF               	rlf	___fladd@b+1,f
  4375  05FF  0DE0               	rlf	___fladd@b+2,f
  4376  0600  0DE1               	rlf	___fladd@b+3,f
  4377  0601  0BE6               	decfsz	??___fladd,f
  4378  0602  2DFC               	goto	u3415
  4379  0603                     l2254:
  4380  0603  1683               	bsf	3,5	;RP0=1, select bank1
  4381  0604  1303               	bcf	3,6	;RP1=0, select bank1
  4382  0605  1FA3               	btfss	___fladd@grs^(0+128),7
  4383  0606  2E08               	goto	u3421
  4384  0607  2E09               	goto	u3420
  4385  0608                     u3421:
  4386  0608  2E0C               	goto	l510
  4387  0609                     u3420:
  4388  0609                     l2256:
  4389  0609  1283               	bcf	3,5	;RP0=0, select bank0
  4390  060A  1303               	bcf	3,6	;RP1=0, select bank0
  4391  060B  145E               	bsf	___fladd@b,0
  4392  060C                     l510:
  4393  060C  1683               	bsf	3,5	;RP0=1, select bank1
  4394  060D  1303               	bcf	3,6	;RP1=0, select bank1
  4395  060E  1C23               	btfss	___fladd@grs^(0+128),0
  4396  060F  2E11               	goto	u3431
  4397  0610  2E12               	goto	u3430
  4398  0611                     u3431:
  4399  0611  2E15               	goto	l2260
  4400  0612                     u3430:
  4401  0612                     l2258:
  4402  0612  1403               	setc
  4403  0613  0DA3               	rlf	___fladd@grs^(0+128),f
  4404  0614  2E17               	goto	l2262
  4405  0615                     l2260:
  4406  0615  1003               	clrc
  4407  0616  0DA3               	rlf	___fladd@grs^(0+128),f
  4408  0617                     l2262:
  4409  0617  0822               	movf	___fladd@bexp^(0+128),w
  4410  0618  1903               	btfsc	3,2
  4411  0619  2E1B               	goto	u3441
  4412  061A  2E1C               	goto	u3440
  4413  061B                     u3441:
  4414  061B  2E1E               	goto	l2266
  4415  061C                     u3440:
  4416  061C                     l2264:
  4417  061C  3001               	movlw	1
  4418  061D  02A2               	subwf	___fladd@bexp^(0+128),f
  4419  061E                     l2266:
  4420  061E  1283               	bcf	3,5	;RP0=0, select bank0
  4421  061F  1FE0               	btfss	___fladd@b+2,7
  4422  0620  2E22               	goto	u3451
  4423  0621  2E23               	goto	u3450
  4424  0622                     u3451:
  4425  0622  2DFA               	goto	l2252
  4426  0623                     u3450:
  4427  0623                     l2268:
  4428  0623  1683               	bsf	3,5	;RP0=1, select bank1
  4429  0624  1303               	bcf	3,6	;RP1=0, select bank1
  4430  0625  01A1               	clrf	___fladd@aexp^(0+128)
  4431  0626                     l2270:
  4432  0626  1FA3               	btfss	___fladd@grs^(0+128),7
  4433  0627  2E29               	goto	u3461
  4434  0628  2E2A               	goto	u3460
  4435  0629                     u3461:
  4436  0629  2E3C               	goto	l2278
  4437  062A                     u3460:
  4438  062A                     l2272:
  4439  062A  0823               	movf	___fladd@grs^(0+128),w
  4440  062B  397F               	andlw	127
  4441  062C  1903               	btfsc	3,2
  4442  062D  2E2F               	goto	u3471
  4443  062E  2E30               	goto	u3470
  4444  062F                     u3471:
  4445  062F  2E35               	goto	l516
  4446  0630                     u3470:
  4447  0630                     l2274:
  4448  0630  1683               	bsf	3,5	;RP0=1, select bank1
  4449  0631  1303               	bcf	3,6	;RP1=0, select bank1
  4450  0632  01A1               	clrf	___fladd@aexp^(0+128)
  4451  0633  0AA1               	incf	___fladd@aexp^(0+128),f
  4452  0634  2E3C               	goto	l2278
  4453  0635                     l516:
  4454  0635  1283               	bcf	3,5	;RP0=0, select bank0
  4455  0636  1303               	bcf	3,6	;RP1=0, select bank0
  4456  0637  1C5E               	btfss	___fladd@b,0
  4457  0638  2E3A               	goto	u3481
  4458  0639  2E3B               	goto	u3480
  4459  063A                     u3481:
  4460  063A  2E3C               	goto	l2278
  4461  063B                     u3480:
  4462  063B  2E30               	goto	l2274
  4463  063C                     l2278:
  4464  063C  1683               	bsf	3,5	;RP0=1, select bank1
  4465  063D  1303               	bcf	3,6	;RP1=0, select bank1
  4466  063E  0821               	movf	___fladd@aexp^(0+128),w
  4467  063F  1903               	btfsc	3,2
  4468  0640  2E42               	goto	u3491
  4469  0641  2E43               	goto	u3490
  4470  0642                     u3491:
  4471  0642  2E7F               	goto	l519
  4472  0643                     u3490:
  4473  0643                     l2280:
  4474  0643  3001               	movlw	1
  4475  0644  1283               	bcf	3,5	;RP0=0, select bank0
  4476  0645  1303               	bcf	3,6	;RP1=0, select bank0
  4477  0646  07DE               	addwf	___fladd@b,f
  4478  0647  3000               	movlw	0
  4479  0648  1803               	skipnc
  4480  0649  3001               	movlw	1
  4481  064A  07DF               	addwf	___fladd@b+1,f
  4482  064B  3000               	movlw	0
  4483  064C  1803               	skipnc
  4484  064D  3001               	movlw	1
  4485  064E  07E0               	addwf	___fladd@b+2,f
  4486  064F  3000               	movlw	0
  4487  0650  1803               	skipnc
  4488  0651  3001               	movlw	1
  4489  0652  07E1               	addwf	___fladd@b+3,f
  4490  0653                     l2282:
  4491  0653  1C61               	btfss	___fladd@b+3,0
  4492  0654  2E56               	goto	u3501
  4493  0655  2E57               	goto	u3500
  4494  0656                     u3501:
  4495  0656  2E7F               	goto	l519
  4496  0657                     u3500:
  4497  0657                     l2284:
  4498  0657  085E               	movf	___fladd@b,w
  4499  0658  00E6               	movwf	??___fladd
  4500  0659  085F               	movf	___fladd@b+1,w
  4501  065A  00E7               	movwf	??___fladd+1
  4502  065B  0860               	movf	___fladd@b+2,w
  4503  065C  00E8               	movwf	??___fladd+2
  4504  065D  0861               	movf	___fladd@b+3,w
  4505  065E  00E9               	movwf	??___fladd+3
  4506  065F  3001               	movlw	1
  4507  0660  00EA               	movwf	??___fladd+4
  4508  0661                     u3515:
  4509  0661  0D69               	rlf	??___fladd+3,w
  4510  0662  0CE9               	rrf	??___fladd+3,f
  4511  0663  0CE8               	rrf	??___fladd+2,f
  4512  0664  0CE7               	rrf	??___fladd+1,f
  4513  0665  0CE6               	rrf	??___fladd,f
  4514  0666                     u3510:
  4515  0666  0BEA               	decfsz	??___fladd+4,f
  4516  0667  2E61               	goto	u3515
  4517  0668  0869               	movf	??___fladd+3,w
  4518  0669  00E1               	movwf	___fladd@b+3
  4519  066A  0868               	movf	??___fladd+2,w
  4520  066B  00E0               	movwf	___fladd@b+2
  4521  066C  0867               	movf	??___fladd+1,w
  4522  066D  00DF               	movwf	___fladd@b+1
  4523  066E  0866               	movf	??___fladd,w
  4524  066F  00DE               	movwf	___fladd@b
  4525  0670  1683               	bsf	3,5	;RP0=1, select bank1
  4526  0671  1303               	bcf	3,6	;RP1=0, select bank1
  4527  0672  0A22               	incf	___fladd@bexp^(0+128),w
  4528  0673  1903               	btfsc	3,2
  4529  0674  2E76               	goto	u3521
  4530  0675  2E77               	goto	u3520
  4531  0676                     u3521:
  4532  0676  2E7F               	goto	l519
  4533  0677                     u3520:
  4534  0677                     l2286:
  4535  0677  3001               	movlw	1
  4536  0678  1283               	bcf	3,5	;RP0=0, select bank0
  4537  0679  1303               	bcf	3,6	;RP1=0, select bank0
  4538  067A  00E6               	movwf	??___fladd
  4539  067B  0866               	movf	??___fladd,w
  4540  067C  1683               	bsf	3,5	;RP0=1, select bank1
  4541  067D  1303               	bcf	3,6	;RP1=0, select bank1
  4542  067E  07A2               	addwf	___fladd@bexp^(0+128),f
  4543  067F                     l519:
  4544  067F  1683               	bsf	3,5	;RP0=1, select bank1
  4545  0680  1303               	bcf	3,6	;RP1=0, select bank1
  4546  0681  0A22               	incf	___fladd@bexp^(0+128),w
  4547  0682  1903               	btfsc	3,2
  4548  0683  2E85               	goto	u3531
  4549  0684  2E86               	goto	u3530
  4550  0685                     u3531:
  4551  0685  2E8B               	goto	l2290
  4552  0686                     u3530:
  4553  0686                     l2288:
  4554  0686  0822               	movf	___fladd@bexp^(0+128),w
  4555  0687  1D03               	btfss	3,2
  4556  0688  2E8A               	goto	u3541
  4557  0689  2E8B               	goto	u3540
  4558  068A                     u3541:
  4559  068A  2E9D               	goto	l2296
  4560  068B                     u3540:
  4561  068B                     l2290:
  4562  068B  3000               	movlw	0
  4563  068C  1283               	bcf	3,5	;RP0=0, select bank0
  4564  068D  1303               	bcf	3,6	;RP1=0, select bank0
  4565  068E  00E1               	movwf	___fladd@b+3
  4566  068F  3000               	movlw	0
  4567  0690  00E0               	movwf	___fladd@b+2
  4568  0691  3000               	movlw	0
  4569  0692  00DF               	movwf	___fladd@b+1
  4570  0693  3000               	movlw	0
  4571  0694  00DE               	movwf	___fladd@b
  4572  0695                     l2292:
  4573  0695  1683               	bsf	3,5	;RP0=1, select bank1
  4574  0696  1303               	bcf	3,6	;RP1=0, select bank1
  4575  0697  0822               	movf	___fladd@bexp^(0+128),w
  4576  0698  1D03               	btfss	3,2
  4577  0699  2E9B               	goto	u3551
  4578  069A  2E9C               	goto	u3550
  4579  069B                     u3551:
  4580  069B  2E9D               	goto	l2296
  4581  069C                     u3550:
  4582  069C                     l2294:
  4583  069C  01A0               	clrf	___fladd@signs^(0+128)
  4584  069D                     l2296:
  4585  069D  1C22               	btfss	___fladd@bexp^(0+128),0
  4586  069E  2EA0               	goto	u3561
  4587  069F  2EA1               	goto	u3560
  4588  06A0                     u3561:
  4589  06A0  2EA5               	goto	l2300
  4590  06A1                     u3560:
  4591  06A1                     l2298:
  4592  06A1  1283               	bcf	3,5	;RP0=0, select bank0
  4593  06A2  1303               	bcf	3,6	;RP1=0, select bank0
  4594  06A3  17E0               	bsf	___fladd@b+2,7
  4595  06A4  2EAB               	goto	l527
  4596  06A5                     l2300:
  4597  06A5  307F               	movlw	127
  4598  06A6  1283               	bcf	3,5	;RP0=0, select bank0
  4599  06A7  1303               	bcf	3,6	;RP1=0, select bank0
  4600  06A8  00E6               	movwf	??___fladd
  4601  06A9  0866               	movf	??___fladd,w
  4602  06AA  05E0               	andwf	___fladd@b+2,f
  4603  06AB                     l527:
  4604  06AB  1683               	bsf	3,5	;RP0=1, select bank1
  4605  06AC  1303               	bcf	3,6	;RP1=0, select bank1
  4606  06AD  0822               	movf	___fladd@bexp^(0+128),w
  4607  06AE  1283               	bcf	3,5	;RP0=0, select bank0
  4608  06AF  1303               	bcf	3,6	;RP1=0, select bank0
  4609  06B0  00E6               	movwf	??___fladd
  4610  06B1  1003               	clrc
  4611  06B2  0C66               	rrf	??___fladd,w
  4612  06B3  00E7               	movwf	??___fladd+1
  4613  06B4  0867               	movf	??___fladd+1,w
  4614  06B5  00E1               	movwf	___fladd@b+3
  4615  06B6                     l2302:
  4616  06B6  1683               	bsf	3,5	;RP0=1, select bank1
  4617  06B7  1303               	bcf	3,6	;RP1=0, select bank1
  4618  06B8  1FA0               	btfss	___fladd@signs^(0+128),7
  4619  06B9  2EBB               	goto	u3571
  4620  06BA  2EBC               	goto	u3570
  4621  06BB                     u3571:
  4622  06BB  2EBF               	goto	l528
  4623  06BC                     u3570:
  4624  06BC                     l2304:
  4625  06BC  1283               	bcf	3,5	;RP0=0, select bank0
  4626  06BD  1303               	bcf	3,6	;RP1=0, select bank0
  4627  06BE  17E1               	bsf	___fladd@b+3,7
  4628  06BF                     l528:
  4629  06BF                     l498:
  4630  06BF  0008               	return
  4631  06C0                     __end_of___fladd:
  4632                           
  4633                           	psect	text11
  4634  0C61                     __ptext11:	
  4635 ;; *************** function _isr *****************
  4636 ;; Defined at:
  4637 ;;		line 43 in file "main_S1.c"
  4638 ;; Parameters:    Size  Location     Type
  4639 ;;		None
  4640 ;; Auto vars:     Size  Location     Type
  4641 ;;  var             1    0        unsigned char 
  4642 ;; Return value:  Size  Location     Type
  4643 ;;                  1    wreg      void 
  4644 ;; Registers used:
  4645 ;;		wreg
  4646 ;; Tracked objects:
  4647 ;;		On entry : 0/0
  4648 ;;		On exit  : 0/0
  4649 ;;		Unchanged: 0/0
  4650 ;; Data sizes:     COMMON   BANK0   BANK1   BANK3   BANK2
  4651 ;;      Params:         0       0       0       0       0
  4652 ;;      Locals:         0       0       0       0       0
  4653 ;;      Temps:          3       0       0       0       0
  4654 ;;      Totals:         3       0       0       0       0
  4655 ;;Total ram usage:        3 bytes
  4656 ;; Hardware stack levels used: 1
  4657 ;; This function calls:
  4658 ;;		Nothing
  4659 ;; This function is called by:
  4660 ;;		Interrupt level 1
  4661 ;; This function uses a non-reentrant model
  4662 ;;
  4663                           
  4664  0C61                     _isr:	
  4665                           ;psect for function _isr
  4666                           
  4667  0C61                     i1l2020:
  4668                           
  4669                           ;main_S1.c: 45:     if (PIR1bits.SSPIF){
  4670  0C61  1283               	bcf	3,5	;RP0=0, select bank0
  4671  0C62  1303               	bcf	3,6	;RP1=0, select bank0
  4672  0C63  1D8C               	btfss	12,3	;volatile
  4673  0C64  2C66               	goto	u290_21
  4674  0C65  2C67               	goto	u290_20
  4675  0C66                     u290_21:
  4676  0C66  2C90               	goto	i1l79
  4677  0C67                     u290_20:
  4678  0C67                     i1l2022:
  4679                           
  4680                           ;main_S1.c: 46:         SSPCONbits.CKP = 0;
  4681  0C67  1214               	bcf	20,4	;volatile
  4682                           
  4683                           ;main_S1.c: 48:         if ((SSPCONbits.SSPOV) || (SSPCONbits.WCOL)){
  4684  0C68  1B14               	btfsc	20,6	;volatile
  4685  0C69  2C6B               	goto	u291_21
  4686  0C6A  2C6C               	goto	u291_20
  4687  0C6B                     u291_21:
  4688  0C6B  2C70               	goto	i1l2026
  4689  0C6C                     u291_20:
  4690  0C6C                     i1l2024:
  4691  0C6C  1F94               	btfss	20,7	;volatile
  4692  0C6D  2C6F               	goto	u292_21
  4693  0C6E  2C70               	goto	u292_20
  4694  0C6F                     u292_21:
  4695  0C6F  2C74               	goto	i1l2034
  4696  0C70                     u292_20:
  4697  0C70                     i1l2026:
  4698  0C70  0813               	movf	19,w	;volatile
  4699  0C71                     i1l2028:
  4700                           
  4701                           ;main_S1.c: 50:             SSPCONbits.SSPOV = 0;
  4702  0C71  1314               	bcf	20,6	;volatile
  4703  0C72                     i1l2030:
  4704                           
  4705                           ;main_S1.c: 51:             SSPCONbits.WCOL = 0;
  4706  0C72  1394               	bcf	20,7	;volatile
  4707  0C73                     i1l2032:
  4708                           
  4709                           ;main_S1.c: 52:             SSPCONbits.CKP = 1;
  4710  0C73  1614               	bsf	20,4	;volatile
  4711  0C74                     i1l2034:
  4712                           
  4713                           ;main_S1.c: 57:         if(!SSPSTATbits.D_nA && !SSPSTATbits.R_nW){
  4714  0C74  1683               	bsf	3,5	;RP0=1, select bank1
  4715  0C75  1303               	bcf	3,6	;RP1=0, select bank1
  4716  0C76  1A94               	btfsc	20,5	;volatile
  4717  0C77  2C79               	goto	u293_21
  4718  0C78  2C7A               	goto	u293_20
  4719  0C79                     u293_21:
  4720  0C79  2C8E               	goto	i1l2044
  4721  0C7A                     u293_20:
  4722  0C7A                     i1l2036:
  4723  0C7A  1914               	btfsc	20,2	;volatile
  4724  0C7B  2C7D               	goto	u294_21
  4725  0C7C  2C7E               	goto	u294_20
  4726  0C7D                     u294_21:
  4727  0C7D  2C8E               	goto	i1l2044
  4728  0C7E                     u294_20:
  4729  0C7E                     i1l2038:
  4730                           
  4731                           ;main_S1.c: 58:             SSPSTATbits.BF = 0;
  4732  0C7E  1014               	bcf	20,0	;volatile
  4733  0C7F                     i1l76:	
  4734                           ;main_S1.c: 59:             while(!SSPSTATbits.BF);
  4735                           
  4736  0C7F  1C14               	btfss	20,0	;volatile
  4737  0C80  2C82               	goto	u295_21
  4738  0C81  2C83               	goto	u295_20
  4739  0C82                     u295_21:
  4740  0C82  2C7F               	goto	i1l76
  4741  0C83                     u295_20:
  4742  0C83                     i1l2040:
  4743                           
  4744                           ;main_S1.c: 60:             dato=(SSPBUF);
  4745  0C83  1283               	bcf	3,5	;RP0=0, select bank0
  4746  0C84  1303               	bcf	3,6	;RP1=0, select bank0
  4747  0C85  0813               	movf	19,w	;volatile
  4748  0C86  00F0               	movwf	??_isr
  4749  0C87  0870               	movf	??_isr,w
  4750  0C88  1683               	bsf	3,5	;RP0=1, select bank1
  4751  0C89  1303               	bcf	3,6	;RP1=0, select bank1
  4752  0C8A  00BD               	movwf	_dato^(0+128)
  4753  0C8B                     i1l2042:
  4754                           
  4755                           ;main_S1.c: 61:             SSPCONbits.CKP = 1;
  4756  0C8B  1283               	bcf	3,5	;RP0=0, select bank0
  4757  0C8C  1303               	bcf	3,6	;RP1=0, select bank0
  4758  0C8D  1614               	bsf	20,4	;volatile
  4759  0C8E                     i1l2044:
  4760                           
  4761                           ;main_S1.c: 74:         PIR1bits.SSPIF = 0;
  4762  0C8E  1283               	bcf	3,5	;RP0=0, select bank0
  4763  0C8F  118C               	bcf	12,3	;volatile
  4764  0C90                     i1l79:
  4765  0C90  0872               	movf	??_isr+2,w
  4766  0C91  008A               	movwf	10
  4767  0C92  0E71               	swapf	??_isr+1,w
  4768  0C93  0083               	movwf	3
  4769  0C94  0EFE               	swapf	btemp,f
  4770  0C95  0E7E               	swapf	btemp,w
  4771  0C96  0009               	retfie
  4772  0C97                     __end_of_isr:
  4773  007E                     btemp	set	126	;btemp
  4774  007E                     wtemp0	set	126
  4775                           
  4776                           	psect	intentry
  4777  0004                     __pintentry:	
  4778                           ;incstack = 0
  4779                           ; Regs used in _isr: [wreg]
  4780                           
  4781  0004                     interrupt_function:
  4782  007E                     saved_w	set	btemp
  4783  0004  00FE               	movwf	btemp
  4784  0005  0E03               	swapf	3,w
  4785  0006  00F1               	movwf	??_isr+1
  4786  0007  080A               	movf	10,w
  4787  0008  00F2               	movwf	??_isr+2
  4788  0009  120A  158A  2C61   	ljmp	_isr
  4789                           
  4790                           	psect	idloc
  4791                           
  4792                           ;Config register IDLOC0 @ 0x2000
  4793                           ;	unspecified, using default values
  4794  2000                     	org	8192
  4795  2000  3FFF               	dw	16383
  4796                           
  4797                           ;Config register IDLOC1 @ 0x2001
  4798                           ;	unspecified, using default values
  4799  2001                     	org	8193
  4800  2001  3FFF               	dw	16383
  4801                           
  4802                           ;Config register IDLOC2 @ 0x2002
  4803                           ;	unspecified, using default values
  4804  2002                     	org	8194
  4805  2002  3FFF               	dw	16383
  4806                           
  4807                           ;Config register IDLOC3 @ 0x2003
  4808                           ;	unspecified, using default values
  4809  2003                     	org	8195
  4810  2003  3FFF               	dw	16383
  4811                           
  4812                           	psect	config
  4813                           
  4814                           ;Config register CONFIG1 @ 0x2007
  4815                           ;	Oscillator Selection bits
  4816                           ;	FOSC = INTRC_NOCLKOUT, INTOSCIO oscillator: I/O function on RA6/OSC2/CLKOUT pin, I/O f
      +                          unction on RA7/OSC1/CLKIN
  4817                           ;	Watchdog Timer Enable bit
  4818                           ;	WDTE = OFF, WDT disabled and can be enabled by SWDTEN bit of the WDTCON register
  4819                           ;	Power-up Timer Enable bit
  4820                           ;	PWRTE = OFF, PWRT disabled
  4821                           ;	RE3/MCLR pin function select bit
  4822                           ;	MCLRE = OFF, RE3/MCLR pin function is digital input, MCLR internally tied to VDD
  4823                           ;	Code Protection bit
  4824                           ;	CP = OFF, Program memory code protection is disabled
  4825                           ;	Data Code Protection bit
  4826                           ;	CPD = OFF, Data memory code protection is disabled
  4827                           ;	Brown Out Reset Selection bits
  4828                           ;	BOREN = OFF, BOR disabled
  4829                           ;	Internal External Switchover bit
  4830                           ;	IESO = OFF, Internal/External Switchover mode is disabled
  4831                           ;	Fail-Safe Clock Monitor Enabled bit
  4832                           ;	FCMEN = OFF, Fail-Safe Clock Monitor is disabled
  4833                           ;	Low Voltage Programming Enable bit
  4834                           ;	LVP = OFF, RB3 pin has digital I/O, HV on MCLR must be used for programming
  4835                           ;	In-Circuit Debugger Mode bit
  4836                           ;	DEBUG = 0x1, unprogrammed default
  4837  2007                     	org	8199
  4838  2007  20D4               	dw	8404
  4839                           
  4840                           ;Config register CONFIG2 @ 0x2008
  4841                           ;	Brown-out Reset Selection bit
  4842                           ;	BOR4V = BOR40V, Brown-out Reset set to 4.0V
  4843                           ;	Flash Program Memory Self Write Enable bits
  4844                           ;	WRT = OFF, Write protection off
  4845  2008                     	org	8200
  4846  2008  3FFF               	dw	16383

Data Sizes:
    Strings     0
    Constant    0
    Data        0
    BSS         10
    Persistent  0
    Stack       0

Auto Spaces:
    Space          Size  Autos    Used
    COMMON           14     10      11
    BANK0            80     80      80
    BANK1            80     21      30
    BANK3            96      0       0
    BANK2            96      0       0

Pointer List with Targets:

    None.

Critical Paths under _main in COMMON

    _SERVO_2->_map
    _SERVO_1->_map
    _map->___fltol
    ___fltol->___xxtofl
    ___flmul->__Umul8_16
    ___flmul->___xxtofl
    ___fldiv->___xxtofl
    ___fladd->___xxtofl

Critical Paths under _isr in COMMON

    None.

Critical Paths under _main in BANK0

    _main->_SERVO_1
    _main->_SERVO_2
    _map->___fladd
    ___fltol->___fladd
    ___flmul->___fldiv
    ___fldiv->___xxtofl
    ___fladd->___flmul

Critical Paths under _isr in BANK0

    None.

Critical Paths under _main in BANK1

    _main->_SERVO_1
    _main->_SERVO_2
    _SERVO_2->_map
    _SERVO_1->_map
    _map->___fltol
    ___fltol->___fladd

Critical Paths under _isr in BANK1

    None.

Critical Paths under _main in BANK3

    None.

Critical Paths under _isr in BANK3

    None.

Critical Paths under _main in BANK2

    None.

Critical Paths under _isr in BANK2

    None.

Call Graph Tables:

 ---------------------------------------------------------------------------------
 (Depth) Function   	        Calls       Base Space   Used Autos Params    Refs
 ---------------------------------------------------------------------------------
 (0) _main                                                 1     1      0   21418
                                             20 BANK1      1     1      0
                            _SERVO_1
                            _SERVO_2
                              _setup
 ---------------------------------------------------------------------------------
 (1) _setup                                                0     0      0       0
 ---------------------------------------------------------------------------------
 (1) _SERVO_2                                              3     3      0   10709
                                             78 BANK0      2     2      0
                                             19 BANK1      1     1      0
                                _map
 ---------------------------------------------------------------------------------
 (1) _SERVO_1                                              3     3      0   10709
                                             78 BANK0      2     2      0
                                             19 BANK1      1     1      0
                                _map
 ---------------------------------------------------------------------------------
 (2) _map                                                  7     1      6   10678
                                              9 COMMON     1     1      0
                                             13 BANK1      6     0      6
                            ___fladd
                            ___fldiv
                            ___flmul
                            ___fltol
                           ___xxtofl
 ---------------------------------------------------------------------------------
 (3) ___xxtofl                                            14    10      4     836
                                              3 COMMON     4     0      4
                                              0 BANK0     10    10      0
 ---------------------------------------------------------------------------------
 (3) ___fltol                                             11     7      4     427
                                              7 COMMON     2     2      0
                                              4 BANK1      9     5      4
                            ___fladd (ARG)
                            ___fldiv (ARG)
                            ___flmul (ARG)
                           ___xxtofl (ARG)
 ---------------------------------------------------------------------------------
 (3) ___flmul                                             26    18      8    3353
                                             36 BANK0     26    18      8
                          __Umul8_16
                            ___fldiv (ARG)
                           ___xxtofl (ARG)
 ---------------------------------------------------------------------------------
 (4) __Umul8_16                                            9     7      2     980
                                              3 COMMON     4     2      2
                                              0 BANK0      5     5      0
 ---------------------------------------------------------------------------------
 (3) ___fldiv                                             26    18      8    1863
                                             10 BANK0     26    18      8
                           ___xxtofl (ARG)
 ---------------------------------------------------------------------------------
 (3) ___fladd                                             20    12      8    3262
                                             62 BANK0     16     8      8
                                              0 BANK1      4     4      0
                            ___fldiv (ARG)
                            ___flmul (ARG)
                           ___xxtofl (ARG)
 ---------------------------------------------------------------------------------
 Estimated maximum stack depth 4
 ---------------------------------------------------------------------------------
 (Depth) Function   	        Calls       Base Space   Used Autos Params    Refs
 ---------------------------------------------------------------------------------
 (5) _isr                                                  4     4      0       1
                                              0 COMMON     3     3      0
 ---------------------------------------------------------------------------------
 Estimated maximum stack depth 5
 ---------------------------------------------------------------------------------

 Call Graph Graphs:

 _main (ROOT)
   _SERVO_1
     _map
       ___fladd
         ___fldiv (ARG)
           ___xxtofl (ARG)
         ___flmul (ARG)
           __Umul8_16
           ___fldiv (ARG)
           ___xxtofl (ARG)
         ___xxtofl (ARG)
       ___fldiv
       ___flmul
       ___fltol
         ___fladd (ARG)
         ___fldiv (ARG)
         ___flmul (ARG)
         ___xxtofl (ARG)
       ___xxtofl
   _SERVO_2
     _map
   _setup

 _isr (ROOT)

 Address spaces:
Name               Size   Autos  Total    Cost      Usage
BITCOMMON            E      0       0       0        0.0%
EEDATA             100      0       0       0        0.0%
NULL                 0      0       0       0        0.0%
CODE                 0      0       0       0        0.0%
COMMON               E      A       B       1       78.6%
BITSFR0              0      0       0       1        0.0%
SFR0                 0      0       0       1        0.0%
BITSFR1              0      0       0       2        0.0%
SFR1                 0      0       0       2        0.0%
STACK                0      0       0       2        0.0%
ABS                  0      0      79       3        0.0%
BITBANK0            50      0       0       4        0.0%
BITSFR3              0      0       0       4        0.0%
SFR3                 0      0       0       4        0.0%
BANK0               50     50      50       5      100.0%
BITSFR2              0      0       0       5        0.0%
SFR2                 0      0       0       5        0.0%
BITBANK1            50      0       0       6        0.0%
BANK1               50     15      1E       7       37.5%
BITBANK3            60      0       0       8        0.0%
BANK3               60      0       0       9        0.0%
BITBANK2            60      0       0      10        0.0%
BANK2               60      0       0      11        0.0%
DATA                 0      0      79      12        0.0%


Microchip Technology PIC Macro Assembler V2.35 build 20211206165544 
Symbol Table                                                                                   Thu May 26 10:33:21 2022

           ___fldiv@aexp 0043             ___fldiv@bexp 0042             ___fldiv@sign 003B  
            _SSPSTATbits 0094                       l94 0D06                       l96 0D0A  
                     l97 0D1F      __Umul8_16@word_mpld 0022                      l100 0CD5  
                    l103 0D6C                      l106 0E22                      l510 060C  
                    l600 0C1B                      l506 05DF                      l602 0C2D  
                    l516 0635                      l541 0E7F                      l527 06AB  
                    l519 067F                      l543 0FFF                      l631 0729  
                    l528 06BF                      l385 07E2                      l625 06E4  
                    l378 07F7                      l491 04C9                      l563 0FE3  
                    l627 077B                      l388 07F7                      l485 0405  
                    l565 0FF3                      l557 0F71                      l581 037F  
                    l638 0745                      l639 0751                      l489 04FD  
                    l593 0373                      l498 06BF                      l587 02EB  
                    _PR2 0092                      _map 0D6D                      _isr 0C61  
           ___flmul@aexp 0052             ___flmul@bexp 0057             ___flmul@sign 0051  
           ___flmul@temp 005C             ___flmul@prod 0058             ___fltol@exp1 0078  
                   l2000 0D1D                     l2002 0D1E                     l2100 07D0  
                   l2110 07EC                     l2200 04DC                     l2120 039C  
                   l2112 0380                     l2210 0501                     l2202 04E2  
                   l2122 03A3                     l2130 03B6                     l2114 0389  
                   l2106 07D7                     l2300 06A5                     l2220 052E  
                   l2212 0506                     l2204 04E5                     l2140 03D8  
                   l2132 03C0                     l2124 03A8                     l2116 0393  
                   l2108 07E7                     l2302 06B6                     l2230 054C  
                   l2222 0534                     l2206 04EF                     l2150 03F7  
                   l2142 03DE                     l2134 03C7                     l2126 03B2  
                   l2118 0399                     l2310 0E30                     l2070 0C24  
                   l2062 0C08                     l2304 06BC                     l2240 05BB  
                   l2232 0556                     l2224 0541                     l2216 0511  
                   l2208 04F5                     l2160 0419                     l2152 03F9  
                   l2144 03E1                     l2136 03CD                     l2128 03B4  
                   l2400 0F42                     l2320 0E47                     l2312 0E34  
                   l2072 0C29                     l2064 0C0A                     l2242 05C0  
                   l2226 0543                     l2218 052A                     l2234 055D  
                   l2170 043F                     l2162 0421                     l2146 03E8  
                   l2154 03FB                     l2138 03CE                     l2410 0F5A  
                   l2402 0F4B                     l2330 0E5D                     l2322 0E48  
                   l2314 0E35                     l2306 0E23                     l2066 0C11  
                   l2090 07B2                     l2082 0792                     l2260 0615  
                   l2252 05FA                     l2236 0575                     l2244 05D1  
                   l2228 0549                     l2180 0461                     l2172 0447  
                   l2164 0429                     l2156 040D                     l2148 03ED  
                   l2420 0F89                     l2412 0F6E                     l2404 0F51  
                   l2340 0E74                     l2332 0E61                     l2316 0E3A  
                   l2324 0E4A                     l2308 0E2A                     l2068 0C15  
                   l2500 00E2                     l2092 07B6                     l2084 07A7  
                   l2076 077C                     l2270 0626                     l2262 0617  
                   l2254 0603                     l2246 05E8                     l2238 05B3  
                   l2182 0467                     l2174 044D                     l2166 0431  
                   l2158 0411                     l2190 0483                     l2430 0FC7  
                   l2422 0F8D                     l2406 0F55                     l2350 0E97  
                   l2342 0E75                     l2334 0E62                     l2326 0E52  
                   l2318 0E3F                     l2510 015F                     l2502 010E  
                   l2086 07A8                     l2078 0789                     l2280 0643  
                   l2272 062A                     l2264 061C                     l2256 0609  
                   l2248 05EF                     l2192 0486                     l2184 046F  
                   l2176 0453                     l2168 0439                     l2440 0FED  
                   l2432 0FD6                     l2424 0FA6                     l2416 0F76  
                   l2408 0F56                     l2360 0EAE                     l2336 0E67  
                   l2344 0E77                     l2328 0E57                     l2520 01DF  
                   l2512 017C                     l2504 012A                     l2088 07B0  
                   l2600 06F5                     l2290 068B                     l2282 0653  
                   l2274 0630                     l2258 0612                     l2266 061E  
                   l2194 04A3                     l2186 0475                     l2178 045B  
                   l2442 0FEF                     l2434 0FDA                     l2418 0F7B  
                   l2426 0FAC                     l2370 0EDA                     l2362 0EC0  
                   l2346 0E87                     l2354 0EA0                     l2338 0E6C  
                   l2530 0297                     l2522 020C                     l2514 018C  
                   l2506 0146                     l2450 0026                     l2098 07BE  
                   l2610 0720                     l2602 06FA                     l2292 0695  
                   l2284 0657                     l2268 0623                     l2196 04CD  
                   l2188 047B                     l2436 0FE2                     l2428 0FB9  
                   l2372 0EDF                     l2380 0EFF                     l2364 0EC8  
                   l2356 0EA5                     l2348 0E93                     l2540 02BC  
                   l2532 02A0                     l2524 021C                     l2516 01A9  
                   l2508 014F                     l2460 003B                     l2452 002C  
                   l2620 0753                     l2612 0730                     l2604 0707  
                   l2294 069C                     l2286 0677                     l2278 063C  
                   l2198 04DA                     l2438 0FE9                     l2390 0F2A  
                   l2382 0F11                     l2374 0EF1                     l2366 0ED0  
                   l2550 02D4                     l2542 02C5                     l2534 02AE  
                   l2526 0249                     l2518 01C2                     l2470 0058  
                   l2462 0043                     l2454 0030                     l2622 0769  
                   l2614 073B                     l2606 070E                     l2296 069D  
                   l2288 0686                     l2392 0F32                     l2384 0F12  
                   l2376 0EF5                     l2368 0ED8                     l2560 0303  
                   l2552 02E8                     l2536 02B7                     l2544 02CB  
                   l2528 026F                     l2480 006F                     l2472 005C  
                   l2464 0045                     l2456 0031                     l2448 001F  
                   l2624 076E                     l2616 073F                     l2608 0712  
                   l2632 0D6E                     l2640 0CC8                     l2298 06A1  
                   l2394 0F34                     l2386 0F20                     l2378 0EF6  
                   l2570 033E                     l2562 0307                     l2546 02CF  
                   l2538 02BB                     l2482 0071                     l2474 005D  
                   l2466 004D                     l2458 0036                     l2626 0772  
                   l2618 0749                     l2642 0D23                     l2650 0C2E  
                   l2396 0F3D                     l2388 0F24                     l2580 036B  
                   l2572 034D                     l2564 0320                     l2556 02F0  
                   l2548 02D0                     l2492 008C                     l2484 0079  
                   l2476 0062                     l2468 0052                     l2628 0773  
                   l2636 0C9A                     l2644 0D3F                     l2660 0C4C  
                   l2652 0C33                     l2398 0F41                     l2582 036C  
                   l2574 0357                     l2558 02F5                     l2566 0326  
                   l2494 009C                     l2486 007E                     l2478 0067  
                   l2590 06C8                     l2638 0CB6                     l2646 0D51  
                   l2662 0C51                     l2654 0C3B                     l2584 0377  
                   l2576 0359                     l2568 0333                     l2496 00A9  
                   l2488 0083                     l2592 06CC                     l2648 0D5E  
                   l1960 0CE1                     l2664 0C57                     l2656 0C40  
                   l2578 0367                     l2498 00C6                     l2594 06DC  
                   l1970 0CEC                     l1962 0CE4                     l1954 0CD6  
                   l2658 0C45                     l2596 06EC                     l2588 06C3  
                   l1980 0D01                     l1972 0CEF                     l1964 0CE8  
                   l1956 0CDA                     l1990 0D11                     l1982 0D02  
                   l1974 0CFA                     l1966 0CE9                     l1958 0CE0  
                   ?_map 00AD                     l1992 0D12                     l1984 0D03  
                   l1976 0CFC                     l1968 0CEA                     l1994 0D18  
                   l1986 0D05                     l1978 0D00                     l1996 0D19  
                   l1988 0D0F                     l1998 0D1A                     ?_isr 0070  
                   _CCP1 00B7                     _CCP2 00B5                     u3010 0C29  
                   u3011 0C28                     u3100 07E7                     u3020 0789  
                   u3005 0C1C                     u3101 07E6                     u3021 0788  
                   u3110 07EC                     u3030 07A0                     u3111 07EB  
                   u3200 0411                     u3120 0399                     u3040 07B6  
                   u3201 0410                     u3121 0398                     u4001 016E  
                   u3041 07B5                     u3210 04A3                     u3130 03A3  
                   u4002 0175                     u3050 07BD                     u3211 04A2  
                   u3131 03A2                     u4011 019B                     u4003 017C  
                   u3051 07BC                     u3035 079B                     u3220 04AE  
                   u3140 03A8                     u4012 01A2                     u3301 051C  
                   u3221 04AC                     u3141 03A7                     u4013 01A9  
                   u3310 052E                     u3302 0523                     u3230 04AF  
                   u3150 03CD                     u3070 07CF                     u3311 052D  
                   u3303 052A                     u3215 049F                     u3151 03CC  
                   u4031 01D1                     u3071 07CE                     u3400 05EF  
                   u3320 0534                     u3240 04CD                     u3160 03DE  
                   u4200 0316                     u4120 02BB                     u4032 01D8  
                   u3080 07D6                     u3401 05EE                     u3321 0533  
                   u3241 04CC                     u3161 03DD                     u4121 02BA  
                   u4105 0299                     u4041 01FE                     u4033 01DF  
                   u4025 01AB                     u3081 07D5                     u3065 07BF  
                   u3330 0549                     u3250 04E2                     u3170 03E8  
                   u4210 0333                     u4042 0205                     u3331 0548  
                   u3251 04E1                     u3171 03E7                     u4211 0332  
                   u4115 02B0                     u4051 022B                     u4043 020C  
                   u3500 0657                     u3420 0609                     u3180 03ED  
                   u4220 034D                     u4140 02CF                     u4060 0255  
                   u4052 0232                     u4300 072F                     u3501 0656  
                   u3421 0608                     u3181 03EC                     u4221 034C  
                   u4205 0311                     u4141 02CE                     u4053 0239  
                   u4301 072E                     u3510 0666                     u3430 0612  
                   u3350 0575                     u3270 04FD                     u3190 040D  
                   u4230 036B                     u4150 02D4                     u3431 0611  
                   u3415 05FC                     u3351 0574                     u3271 04FC  
                   u3191 040C                     u4231 036A                     u4215 032F  
                   u4151 02D3                     u4135 02BE                     u4071 0261  
                   u3095 07D9                     u3520 0677                     u3440 061C  
                   u3280 0501                     u3600 0E3F                     u4160 02E8  
                   u4080 027D                     u4072 0268                     u4320 073F  
                   u4240 06C8                     u4400 0C51                     u3521 0676  
                   u3441 061B                     u3361 058C                     u3353 0571  
                   u3345 054F                     u3281 0500                     u3265 04E8  
                   u3601 0E3E                     u4225 0349                     u4161 02E7  
                   u4073 026F                     u4065 0250                     u4321 073E  
                   u4241 06C7                     u4401 0C50                     u3530 0686  
                   u3450 0623                     u3370 05A0                     u3362 058D  
                   u3290 0506                     u3610 0E61                     u4170 02EF  
                   u4330 0745                     u4250 06CC                     u3531 0685  
                   u3515 0661                     u3451 0622                     u3371 05A1  
                   u3363 0592                     u3291 0505                     u3611 0E60  
                   u4171 02EE                     u4091 0289                     u4331 0744  
                   u4315 0734                     u4251 06CB                     u3540 068B  
                   u3460 062A                     u3380 05C0                     u3372 05A6  
                   u3364 0593                     u3620 0E67                     u4180 02F5  
                   u4092 0290                     u4340 0749                     u4260 06EC  
                   u3541 068A                     u3461 0629                     u3381 05BF  
                   u3373 05A7                     u3365 0598                     u3621 0E66  
                   u4181 02F4                     u4093 0297                     u4085 0278  
                   u4341 0748                     u4261 06EB                     u3550 069C  
                   u3470 0630                     u3390 05E8                     u3366 0599  
                   u3710 0F11                     u3630 0E6C                     u4190 0307  
                   u4350 075E                     u3551 069B                     u3471 062F  
                   u3391 05E7                     u3711 0F10                     u3631 0E6B  
                   u4191 0306                     u3560 06A1                     u3480 063B  
                   u3800 0F75                     u3720 0F2A                     u3640 0E87  
                   u4360 076E                     u4280 070D                     u3561 06A0  
                   u3481 063A                     u3801 0F74                     u3721 0F29  
                   u3705 0EF8                     u3641 0E86                     u4361 076D  
                   u4281 070C                     u3570 06BC                     u3490 0643  
                   u3810 0F7B                     u3730 0F32                     u3650 0EA5  
                   u4370 0772                     u3571 06BB                     u3491 0642  
                   u3811 0F7A                     u3731 0F31                     u3715 0F0D  
                   u3651 0EA4                     u4371 0771                     u4355 0759  
                   u4275 06FF                     u3820 0F8D                     u3660 0EDF  
                   u3580 0E34                     u3900 005C                     u4380 0C3B  
                   u3821 0F8C                     u3661 0EDE                     u3581 0E33  
                   u3901 005B                     u4381 0C3A                     u3830 0F9C  
                   u3750 0F41                     u3590 0E3A                     u3910 0062  
                   u4390 0C45                     u3751 0F40                     u3591 0E39  
                   u3911 0061                     u4295 0721                     u4391 0C44  
                   u3840 0FB9                     u3920 0067                     u3841 0FB8  
                   u3745 0F36                     u3921 0066                     u3850 0FD6  
                   u3770 0F55                     u3690 0EF5                     u3930 007E  
                   u2890 0D0A                     u3851 0FD5                     u3835 0F97  
                   u3771 0F54                     u3691 0EF4                     u3675 0EE1  
                   u3931 007D                     u2891 0D09                     u3860 0FED  
                   u3780 0F5A                     u3940 0083                     u3861 0FEC  
                   u3845 0FB5                     u3781 0F59                     u3765 0F44  
                   u3685 0EEA                     u3941 0082                     u3790 0F6E  
                   u2990 0C15                     u3870 0030                     u3855 0FD2  
                   u3791 0F6D                     u2991 0C14                     u3951 00D4  
                   u3871 002F                     u3952 00DB                     u3880 0036  
                   u3961 00F0                     u3953 00E2                     u3881 0035  
                   u3962 00F7                     u3890 003B                     u3971 011C  
                   u3963 00FE                     u3891 003A                     i1l76 0C7F  
                   u3972 0123                     u3981 0138                     u3973 012A  
                   u3982 013F                     i1l79 0C90                     u3983 0146  
                   u3995 0148                     _POT1 00BB                     _POT2 00BA  
        __end_of_SERVO_1 0CD6          __end_of_SERVO_2 0D6D                     _dato 00BD  
                   _main 0C2E                     map@x 0079                     btemp 007E  
                   start 000C          ___fldiv@new_exp 003C                    ??_map 0079  
                  ??_isr 0070            ___fltol@sign1 0077          __end_of___fladd 06C0  
                  ?_main 0070          __end_of___fldiv 1000          __end_of___flmul 0380  
        __end_of___fltol 07F8                    _ANSEL 0188                    _PORTC 0007  
                  _TRISC 0087                    _check 00BC                    map@x0 00AD  
                  map@x1 00AE                    map@y0 00AF                    map@y1 00B1  
                  _setup 0CD6                    pclath 000A                    status 0003  
                  wtemp0 007E          __initialization 000F             __end_of_main 0C61  
                 ??_main 00B4                ??_SERVO_1 006E                ??_SERVO_2 006E  
                 _CCPR1L 0015                   _CCPR2L 001B                   ?_setup 0070  
                 _ANSELH 0189                   i1l2020 0C61                   i1l2030 0C72  
                 i1l2022 0C67                   i1l2040 0C83                   i1l2032 0C73  
                 i1l2024 0C6C                   i1l2042 0C8B                   i1l2034 0C74  
                 i1l2026 0C70                   i1l2036 0C7A                   i1l2044 0C8E  
                 i1l2028 0C71                   i1l2038 0C7E                   u290_20 0C67  
                 u290_21 0C66                   u291_20 0C6C                   u291_21 0C6B  
                 u292_20 0C70                   u292_21 0C6F                   u293_20 0C7A  
                 u293_21 0C79                   u294_20 0C7E                   u294_21 0C7D  
                 u295_20 0C83                   u295_21 0C82                   _SSPADD 0093  
                 _SSPBUF 0013         __end_of___xxtofl 077C                ??___fladd 0066  
              ??___fldiv 0032                ??___flmul 004C                ??___fltol 00A8  
                 saved_w 007E             ___xxtofl@arg 0026             ___xxtofl@exp 0025  
           ___xxtofl@val 0073  __end_of__initialization 001B               ___fltol@f1 00A4  
         __pcstackCOMMON 0070            __end_of_setup 0D20                  ??_setup 0073  
             __pbssBANK1 00B5        __end_of__Umul8_16 0C2E               __pmaintext 0C2E  
             __pintentry 0004                  _CCP1CON 0017                  _CCP2CON 001D  
              ?___xxtofl 0073                  _SERVO_1 0C97                  _SERVO_2 0D20  
                ___fladd 0380                  ___fldiv 0E23                  ___flmul 001F  
                ___fltol 077C                  __ptext1 0CD6                  __ptext2 0D20  
                __ptext3 0C97                  __ptext4 0D6D                  __ptext5 06C0  
                __ptext6 077C                  __ptext7 001F                  __ptext8 0C05  
                __ptext9 0E23                _T2CONbits 0012               ??___xxtofl 0020  
   end_of_initialization 001B              ___fladd@grs 00A3            ___xxtofl@sign 0024  
              _TRISCbits 0087              ___fldiv@grs 003E              ___fldiv@rem 0037  
            ___flmul@grs 0053              _CCP1CONbits 0017              _CCP2CONbits 001D  
    start_initialization 000F              __end_of_map 0E23              __end_of_isr 0C97  
              __Umul8_16 0C05                ___fladd@a 0062                ___fladd@b 005E  
              ___fldiv@a 002A                ___fldiv@b 002E                ___flmul@a 0048  
              ___flmul@b 0044              __pbssCOMMON 007A                ___latbits 0002  
          __pcstackBANK0 0020            __pcstackBANK1 00A0                 ?_SERVO_1 0070  
               ?_SERVO_2 0070                 ?___fladd 005E                 ?___fldiv 002A  
               ?___flmul 0044                 ?___fltol 00A4               ?__Umul8_16 0073  
             SERVO_1@val 00B3               SERVO_2@val 00B3        interrupt_function 0004  
               _PIE1bits 008C                 _PIR1bits 000C              ??__Umul8_16 0075  
               ___xxtofl 06C0                 __ptext10 0380                 __ptext11 0C61  
               _old_POT1 007A                 _old_dato 00B9               _INTCONbits 000B  
               intlevel1 0000               _OSCCONbits 008F   __Umul8_16@multiplicand 0073  
          ___fladd@signs 00A0             ___fladd@aexp 00A1             ___fladd@bexp 00A2  
   __Umul8_16@multiplier 0024               _SSPCONbits 0014        __Umul8_16@product 0020  
