

Microchip MPLAB XC8 Assembler V2.35 build 20211206165544 
                                                                                               Wed May 11 19:35:31 2022

Microchip MPLAB XC8 C Compiler v2.35 (Free license) build 20211206165544 Og1 
     1                           	processor	16F887
     2                           	pagewidth 120
     3                           	opt	flic
     4                           	psect	cinit,global,class=CODE,merge=1,delta=2
     5                           	psect	bssCOMMON,global,class=COMMON,space=1,delta=1,noexec
     6                           	psect	bssBANK1,global,class=BANK1,space=1,delta=1,noexec
     7                           	psect	cstackBANK1,global,class=BANK1,space=1,delta=1,noexec
     8                           	psect	cstackCOMMON,global,class=COMMON,space=1,delta=1,noexec
     9                           	psect	cstackBANK0,global,class=BANK0,space=1,delta=1,noexec
    10                           	psect	maintext,global,class=CODE,split=1,delta=2
    11                           	psect	text1,local,class=CODE,merge=1,delta=2
    12                           	psect	text2,local,class=CODE,merge=1,delta=2
    13                           	psect	text3,local,class=CODE,merge=1,delta=2,group=1
    14                           	psect	text4,local,class=CODE,merge=1,delta=2,group=1
    15                           	psect	text5,local,class=CODE,merge=1,delta=2,group=1
    16                           	psect	text6,local,class=CODE,merge=1,delta=2,group=1
    17                           	psect	text7,local,class=CODE,merge=1,delta=2,group=1
    18                           	psect	text8,local,class=CODE,merge=1,delta=2,group=1
    19                           	psect	text9,local,class=CODE,merge=1,delta=2
    20                           	psect	intentry,global,class=CODE,delta=2
    21                           	psect	idloc,global,abs,ovrld,class=IDLOC,space=5,delta=2,noexec
    22                           	psect	config,global,abs,ovrld,class=CONFIG,space=4,delta=2,noexec
    23                           	dabs	1,0x7E,2
    24  0000                     
    25                           ; Version 2.40
    26                           ; Generated 17/11/2021 GMT
    27                           ; 
    28                           ; Copyright © 2021, Microchip Technology Inc. and its subsidiaries ("Microchip")
    29                           ; All rights reserved.
    30                           ; 
    31                           ; This software is developed by Microchip Technology Inc. and its subsidiaries ("Microch
      +                          ip").
    32                           ; 
    33                           ; Redistribution and use in source and binary forms, with or without modification, are
    34                           ; permitted provided that the following conditions are met:
    35                           ; 
    36                           ;     1. Redistributions of source code must retain the above copyright notice, this lis
      +                          t of
    37                           ;        conditions and the following disclaimer.
    38                           ; 
    39                           ;     2. Redistributions in binary form must reproduce the above copyright notice, this 
      +                          list
    40                           ;        of conditions and the following disclaimer in the documentation and/or other
    41                           ;        materials provided with the distribution. Publication is not required when
    42                           ;        this file is used in an embedded application.
    43                           ; 
    44                           ;     3. Microchip's name may not be used to endorse or promote products derived from th
      +                          is
    45                           ;        software without specific prior written permission.
    46                           ; 
    47                           ; THIS SOFTWARE IS PROVIDED BY MICROCHIP "AS IS" AND ANY EXPRESS OR IMPLIED WARRANTIES,
    48                           ; INCLUDING, BUT NOT LIMITED TO, THE IMPLIED WARRANTIES OF MERCHANTABILITY AND FITNESS F
      +                          OR
    49                           ; PURPOSE ARE DISCLAIMED.  IN NO EVENT SHALL MICROCHIP BE LIABLE FOR ANY DIRECT, INDIREC
      +                          T,
    50                           ; INCIDENTAL, SPECIAL, EXEMPLARY, OR CONSEQUENTIAL DAMAGES (INCLUDING BUT NOT LIMITED TO
    51                           ; PROCUREMENT OF SUBSTITUTE GOODS OR SERVICES; LOSS OF USE, DATA OR PROFITS; OR BUSINESS
    52                           ; INTERRUPTION) HOWSOEVER CAUSED AND ON ANY THEORY OF LIABILITY, WHETHER IN CONTRACT, ST
      +                          RICT
    53                           ; LIABILITY, OR TORT (INCLUDING NEGLIGENCE OR OTHERWISE) ARISING IN ANY WAY OUT OF THE U
      +                          SE OF
    54                           ; THIS SOFTWARE, EVEN IF ADVISED OF THE POSSIBILITY OF SUCH DAMAGE.
    55                           ; 
    56                           ; 
    57                           ; Code-generator required, PIC16F887 Definitions
    58                           ; 
    59                           ; SFR Addresses
    60  0000                     	;# 
    61  0001                     	;# 
    62  0002                     	;# 
    63  0003                     	;# 
    64  0004                     	;# 
    65  0005                     	;# 
    66  0006                     	;# 
    67  0007                     	;# 
    68  0008                     	;# 
    69  0009                     	;# 
    70  000A                     	;# 
    71  000B                     	;# 
    72  000C                     	;# 
    73  000D                     	;# 
    74  000E                     	;# 
    75  000E                     	;# 
    76  000F                     	;# 
    77  0010                     	;# 
    78  0011                     	;# 
    79  0012                     	;# 
    80  0013                     	;# 
    81  0014                     	;# 
    82  0015                     	;# 
    83  0015                     	;# 
    84  0016                     	;# 
    85  0017                     	;# 
    86  0018                     	;# 
    87  0019                     	;# 
    88  001A                     	;# 
    89  001B                     	;# 
    90  001B                     	;# 
    91  001C                     	;# 
    92  001D                     	;# 
    93  001E                     	;# 
    94  001F                     	;# 
    95  0081                     	;# 
    96  0085                     	;# 
    97  0086                     	;# 
    98  0087                     	;# 
    99  0088                     	;# 
   100  0089                     	;# 
   101  008C                     	;# 
   102  008D                     	;# 
   103  008E                     	;# 
   104  008F                     	;# 
   105  0090                     	;# 
   106  0091                     	;# 
   107  0092                     	;# 
   108  0093                     	;# 
   109  0093                     	;# 
   110  0093                     	;# 
   111  0094                     	;# 
   112  0095                     	;# 
   113  0096                     	;# 
   114  0097                     	;# 
   115  0098                     	;# 
   116  0099                     	;# 
   117  009A                     	;# 
   118  009B                     	;# 
   119  009C                     	;# 
   120  009D                     	;# 
   121  009E                     	;# 
   122  009F                     	;# 
   123  0105                     	;# 
   124  0107                     	;# 
   125  0108                     	;# 
   126  0109                     	;# 
   127  010C                     	;# 
   128  010C                     	;# 
   129  010D                     	;# 
   130  010E                     	;# 
   131  010F                     	;# 
   132  0185                     	;# 
   133  0187                     	;# 
   134  0188                     	;# 
   135  0189                     	;# 
   136  018C                     	;# 
   137  018D                     	;# 
   138  0000                     	;# 
   139  0001                     	;# 
   140  0002                     	;# 
   141  0003                     	;# 
   142  0004                     	;# 
   143  0005                     	;# 
   144  0006                     	;# 
   145  0007                     	;# 
   146  0008                     	;# 
   147  0009                     	;# 
   148  000A                     	;# 
   149  000B                     	;# 
   150  000C                     	;# 
   151  000D                     	;# 
   152  000E                     	;# 
   153  000E                     	;# 
   154  000F                     	;# 
   155  0010                     	;# 
   156  0011                     	;# 
   157  0012                     	;# 
   158  0013                     	;# 
   159  0014                     	;# 
   160  0015                     	;# 
   161  0015                     	;# 
   162  0016                     	;# 
   163  0017                     	;# 
   164  0018                     	;# 
   165  0019                     	;# 
   166  001A                     	;# 
   167  001B                     	;# 
   168  001B                     	;# 
   169  001C                     	;# 
   170  001D                     	;# 
   171  001E                     	;# 
   172  001F                     	;# 
   173  0081                     	;# 
   174  0085                     	;# 
   175  0086                     	;# 
   176  0087                     	;# 
   177  0088                     	;# 
   178  0089                     	;# 
   179  008C                     	;# 
   180  008D                     	;# 
   181  008E                     	;# 
   182  008F                     	;# 
   183  0090                     	;# 
   184  0091                     	;# 
   185  0092                     	;# 
   186  0093                     	;# 
   187  0093                     	;# 
   188  0093                     	;# 
   189  0094                     	;# 
   190  0095                     	;# 
   191  0096                     	;# 
   192  0097                     	;# 
   193  0098                     	;# 
   194  0099                     	;# 
   195  009A                     	;# 
   196  009B                     	;# 
   197  009C                     	;# 
   198  009D                     	;# 
   199  009E                     	;# 
   200  009F                     	;# 
   201  0105                     	;# 
   202  0107                     	;# 
   203  0108                     	;# 
   204  0109                     	;# 
   205  010C                     	;# 
   206  010C                     	;# 
   207  010D                     	;# 
   208  010E                     	;# 
   209  010F                     	;# 
   210  0185                     	;# 
   211  0187                     	;# 
   212  0188                     	;# 
   213  0189                     	;# 
   214  018C                     	;# 
   215  018D                     	;# 
   216  000B                     _INTCONbits	set	11
   217  0012                     _T2CONbits	set	18
   218  0017                     _CCP1CON	set	23
   219  0014                     _SSPCONbits	set	20
   220  0007                     _PORTC	set	7
   221  0005                     _PORTA	set	5
   222  0017                     _CCP1CONbits	set	23
   223  0015                     _CCPR1L	set	21
   224  0013                     _SSPBUF	set	19
   225  000C                     _PIR1bits	set	12
   226  008C                     _PIE1bits	set	140
   227  0092                     _PR2	set	146
   228  0087                     _TRISCbits	set	135
   229  008F                     _OSCCONbits	set	143
   230  0087                     _TRISC	set	135
   231  0085                     _TRISA	set	133
   232  0094                     _SSPSTATbits	set	148
   233  0188                     _ANSEL	set	392
   234  0189                     _ANSELH	set	393
   235                           
   236                           	psect	cinit
   237  000F                     start_initialization:	
   238                           ; #config settings
   239                           
   240  000F                     __initialization:
   241                           
   242                           ; Clear objects allocated to COMMON
   243  000F  01FA               	clrf	__pbssCOMMON& (0+127)
   244                           
   245                           ; Clear objects allocated to BANK1
   246  0010  1683               	bsf	3,5	;RP0=1, select bank1
   247  0011  1303               	bcf	3,6	;RP1=0, select bank1
   248  0012  01B3               	clrf	__pbssBANK1& (0+127)
   249  0013  01B4               	clrf	(__pbssBANK1+1)& (0+127)
   250  0014  01B5               	clrf	(__pbssBANK1+2)& (0+127)
   251  0015                     end_of_initialization:	
   252                           ;End of C runtime variable initialization code
   253                           
   254  0015                     __end_of__initialization:
   255  0015  0183               	clrf	3
   256  0016  120A  158A  2CDA   	ljmp	_main	;jump to C main() function
   257                           
   258                           	psect	bssCOMMON
   259  007A                     __pbssCOMMON:
   260  007A                     _val_temporal:
   261  007A                     	ds	1
   262                           
   263                           	psect	bssBANK1
   264  00B3                     __pbssBANK1:
   265  00B3                     _CCP1:
   266  00B3                     	ds	2
   267  00B5                     _PWM:
   268  00B5                     	ds	1
   269                           
   270                           	psect	cstackBANK1
   271  00A0                     __pcstackBANK1:
   272  00A0                     ___fladd@signs:
   273                           
   274                           ; 1 bytes @ 0x0
   275  00A0                     	ds	1
   276  00A1                     ___fladd@aexp:
   277                           
   278                           ; 1 bytes @ 0x1
   279  00A1                     	ds	1
   280  00A2                     ___fladd@bexp:
   281                           
   282                           ; 1 bytes @ 0x2
   283  00A2                     	ds	1
   284  00A3                     ___fladd@grs:
   285                           
   286                           ; 1 bytes @ 0x3
   287  00A3                     	ds	1
   288  00A4                     ?___fltol:
   289  00A4                     ___fltol@f1:	
   290                           ; 4 bytes @ 0x4
   291                           
   292                           
   293                           ; 4 bytes @ 0x4
   294  00A4                     	ds	4
   295  00A8                     ??___fltol:
   296                           
   297                           ; 1 bytes @ 0x8
   298  00A8                     	ds	5
   299  00AD                     ?_map:
   300  00AD                     map@x0:	
   301                           ; 2 bytes @ 0xD
   302                           
   303                           
   304                           ; 1 bytes @ 0xD
   305  00AD                     	ds	1
   306  00AE                     map@x1:
   307                           
   308                           ; 1 bytes @ 0xE
   309  00AE                     	ds	1
   310  00AF                     map@y0:
   311                           
   312                           ; 2 bytes @ 0xF
   313  00AF                     	ds	2
   314  00B1                     map@y1:
   315                           
   316                           ; 2 bytes @ 0x11
   317  00B1                     	ds	2
   318                           
   319                           	psect	cstackCOMMON
   320  0070                     __pcstackCOMMON:
   321  0070                     ?_setup:
   322  0070                     ?_isr:	
   323                           ; 1 bytes @ 0x0
   324                           
   325  0070                     ??_isr:	
   326                           ; 1 bytes @ 0x0
   327                           
   328  0070                     ?_main:	
   329                           ; 1 bytes @ 0x0
   330                           
   331                           
   332                           ; 1 bytes @ 0x0
   333  0070                     	ds	3
   334  0073                     ??_setup:
   335  0073                     ?__Umul8_16:	
   336                           ; 1 bytes @ 0x3
   337                           
   338  0073                     ?___xxtofl:	
   339                           ; 2 bytes @ 0x3
   340                           
   341  0073                     __Umul8_16@multiplicand:	
   342                           ; 4 bytes @ 0x3
   343                           
   344  0073                     ___xxtofl@val:	
   345                           ; 1 bytes @ 0x3
   346                           
   347                           
   348                           ; 4 bytes @ 0x3
   349  0073                     	ds	2
   350  0075                     ??__Umul8_16:
   351                           
   352                           ; 1 bytes @ 0x5
   353  0075                     	ds	2
   354  0077                     ___fltol@sign1:
   355                           
   356                           ; 1 bytes @ 0x7
   357  0077                     	ds	1
   358  0078                     ___fltol@exp1:
   359                           
   360                           ; 1 bytes @ 0x8
   361  0078                     	ds	1
   362  0079                     ??_map:
   363  0079                     map@x:	
   364                           ; 1 bytes @ 0x9
   365                           
   366                           
   367                           ; 1 bytes @ 0x9
   368  0079                     	ds	1
   369                           
   370                           	psect	cstackBANK0
   371  0020                     __pcstackBANK0:
   372  0020                     ??___xxtofl:
   373  0020                     __Umul8_16@product:	
   374                           ; 1 bytes @ 0x0
   375                           
   376                           
   377                           ; 2 bytes @ 0x0
   378  0020                     	ds	2
   379  0022                     __Umul8_16@word_mpld:
   380                           
   381                           ; 2 bytes @ 0x2
   382  0022                     	ds	2
   383  0024                     __Umul8_16@multiplier:
   384  0024                     ___xxtofl@sign:	
   385                           ; 1 bytes @ 0x4
   386                           
   387                           
   388                           ; 1 bytes @ 0x4
   389  0024                     	ds	1
   390  0025                     ___xxtofl@exp:
   391                           
   392                           ; 1 bytes @ 0x5
   393  0025                     	ds	1
   394  0026                     ___xxtofl@arg:
   395                           
   396                           ; 4 bytes @ 0x6
   397  0026                     	ds	4
   398  002A                     ?___fldiv:
   399  002A                     ___fldiv@a:	
   400                           ; 4 bytes @ 0xA
   401                           
   402                           
   403                           ; 4 bytes @ 0xA
   404  002A                     	ds	4
   405  002E                     ___fldiv@b:
   406                           
   407                           ; 4 bytes @ 0xE
   408  002E                     	ds	4
   409  0032                     ??___fldiv:
   410                           
   411                           ; 1 bytes @ 0x12
   412  0032                     	ds	5
   413  0037                     ___fldiv@rem:
   414                           
   415                           ; 4 bytes @ 0x17
   416  0037                     	ds	4
   417  003B                     ___fldiv@sign:
   418                           
   419                           ; 1 bytes @ 0x1B
   420  003B                     	ds	1
   421  003C                     ___fldiv@new_exp:
   422                           
   423                           ; 2 bytes @ 0x1C
   424  003C                     	ds	2
   425  003E                     ___fldiv@grs:
   426                           
   427                           ; 4 bytes @ 0x1E
   428  003E                     	ds	4
   429  0042                     ___fldiv@bexp:
   430                           
   431                           ; 1 bytes @ 0x22
   432  0042                     	ds	1
   433  0043                     ___fldiv@aexp:
   434                           
   435                           ; 1 bytes @ 0x23
   436  0043                     	ds	1
   437  0044                     ?___flmul:
   438  0044                     ___flmul@b:	
   439                           ; 4 bytes @ 0x24
   440                           
   441                           
   442                           ; 4 bytes @ 0x24
   443  0044                     	ds	4
   444  0048                     ___flmul@a:
   445                           
   446                           ; 4 bytes @ 0x28
   447  0048                     	ds	4
   448  004C                     ??___flmul:
   449                           
   450                           ; 1 bytes @ 0x2C
   451  004C                     	ds	5
   452  0051                     ___flmul@sign:
   453                           
   454                           ; 1 bytes @ 0x31
   455  0051                     	ds	1
   456  0052                     ___flmul@aexp:
   457                           
   458                           ; 1 bytes @ 0x32
   459  0052                     	ds	1
   460  0053                     ___flmul@grs:
   461                           
   462                           ; 4 bytes @ 0x33
   463  0053                     	ds	4
   464  0057                     ___flmul@bexp:
   465                           
   466                           ; 1 bytes @ 0x37
   467  0057                     	ds	1
   468  0058                     ___flmul@prod:
   469                           
   470                           ; 4 bytes @ 0x38
   471  0058                     	ds	4
   472  005C                     ___flmul@temp:
   473                           
   474                           ; 2 bytes @ 0x3C
   475  005C                     	ds	2
   476  005E                     ?___fladd:
   477  005E                     ___fladd@b:	
   478                           ; 4 bytes @ 0x3E
   479                           
   480                           
   481                           ; 4 bytes @ 0x3E
   482  005E                     	ds	4
   483  0062                     ___fladd@a:
   484                           
   485                           ; 4 bytes @ 0x42
   486  0062                     	ds	4
   487  0066                     ??___fladd:
   488                           
   489                           ; 1 bytes @ 0x46
   490  0066                     	ds	8
   491  006E                     ??_main:
   492                           
   493                           ; 1 bytes @ 0x4E
   494  006E                     	ds	2
   495                           
   496                           	psect	maintext
   497  0CDA                     __pmaintext:	
   498 ;;
   499 ;;Main: autosize = 0, tempsize = 2, incstack = 0, save=0
   500 ;;
   501 ;; *************** function _main *****************
   502 ;; Defined at:
   503 ;;		line 53 in file "SPI_SLAVE_2.c"
   504 ;; Parameters:    Size  Location     Type
   505 ;;		None
   506 ;; Auto vars:     Size  Location     Type
   507 ;;		None
   508 ;; Return value:  Size  Location     Type
   509 ;;                  1    wreg      void 
   510 ;; Registers used:
   511 ;;		wreg, status,2, status,0, btemp+1, pclath, cstack
   512 ;; Tracked objects:
   513 ;;		On entry : B00/0
   514 ;;		On exit  : 0/0
   515 ;;		Unchanged: 0/0
   516 ;; Data sizes:     COMMON   BANK0   BANK1   BANK3   BANK2
   517 ;;      Params:         0       0       0       0       0
   518 ;;      Locals:         0       0       0       0       0
   519 ;;      Temps:          0       2       0       0       0
   520 ;;      Totals:         0       2       0       0       0
   521 ;;Total ram usage:        2 bytes
   522 ;; Hardware stack levels required when called: 4
   523 ;; This function calls:
   524 ;;		_map
   525 ;;		_setup
   526 ;; This function is called by:
   527 ;;		Startup code after reset
   528 ;; This function uses a non-reentrant model
   529 ;;
   530                           
   531  0CDA                     _main:	
   532                           ;psect for function _main
   533                           
   534  0CDA                     l2502:	
   535                           ;incstack = 0
   536                           ; Regs used in _main: [wreg+status,2+status,0+btemp+1+pclath+cstack]
   537                           
   538                           
   539                           ;SPI_SLAVE_2.c: 54:     setup();
   540  0CDA  120A  158A  2521  120A  158A  	fcall	_setup
   541  0CDF                     l2504:
   542                           
   543                           ;SPI_SLAVE_2.c: 58:         CCP1 = map(PWM, 0, 255, 62, 125);
   544  0CDF  1683               	bsf	3,5	;RP0=1, select bank1
   545  0CE0  1303               	bcf	3,6	;RP1=0, select bank1
   546  0CE1  01AD               	clrf	map@x0^(0+128)
   547  0CE2  30FF               	movlw	255
   548  0CE3  1283               	bcf	3,5	;RP0=0, select bank0
   549  0CE4  1303               	bcf	3,6	;RP1=0, select bank0
   550  0CE5  00EE               	movwf	??_main
   551  0CE6  086E               	movf	??_main,w
   552  0CE7  1683               	bsf	3,5	;RP0=1, select bank1
   553  0CE8  1303               	bcf	3,6	;RP1=0, select bank1
   554  0CE9  00AE               	movwf	map@x1^(0+128)
   555  0CEA  303E               	movlw	62
   556  0CEB  00AF               	movwf	map@y0^(0+128)
   557  0CEC  3000               	movlw	0
   558  0CED  00B0               	movwf	(map@y0^(0+128)+1)
   559  0CEE  307D               	movlw	125
   560  0CEF  00B1               	movwf	map@y1^(0+128)
   561  0CF0  3000               	movlw	0
   562  0CF1  00B2               	movwf	(map@y1^(0+128)+1)
   563  0CF2  0835               	movf	_PWM^(0+128),w
   564  0CF3  120A  158A  256D  120A  158A  	fcall	_map
   565  0CF8  1683               	bsf	3,5	;RP0=1, select bank1
   566  0CF9  1303               	bcf	3,6	;RP1=0, select bank1
   567  0CFA  082E               	movf	(?_map+1)^(0+128),w
   568  0CFB  00B4               	movwf	(_CCP1+1)^(0+128)
   569  0CFC  082D               	movf	?_map^(0+128),w
   570  0CFD  00B3               	movwf	_CCP1^(0+128)
   571  0CFE                     l2506:
   572                           
   573                           ;SPI_SLAVE_2.c: 59:         CCPR1L = (uint8_t)(CCP1>>2);
   574  0CFE  0834               	movf	(_CCP1+1)^(0+128),w
   575  0CFF  1283               	bcf	3,5	;RP0=0, select bank0
   576  0D00  1303               	bcf	3,6	;RP1=0, select bank0
   577  0D01  00EF               	movwf	??_main+1
   578  0D02  1683               	bsf	3,5	;RP0=1, select bank1
   579  0D03  1303               	bcf	3,6	;RP1=0, select bank1
   580  0D04  0833               	movf	_CCP1^(0+128),w
   581  0D05  1283               	bcf	3,5	;RP0=0, select bank0
   582  0D06  1303               	bcf	3,6	;RP1=0, select bank0
   583  0D07  00EE               	movwf	??_main
   584  0D08  1003               	clrc
   585  0D09  0CEF               	rrf	??_main+1,f
   586  0D0A  0CEE               	rrf	??_main,f
   587  0D0B  1003               	clrc
   588  0D0C  0CEF               	rrf	??_main+1,f
   589  0D0D  0CEE               	rrf	??_main,f
   590  0D0E  086E               	movf	??_main,w
   591  0D0F  0095               	movwf	21	;volatile
   592  0D10                     l2508:
   593                           
   594                           ;SPI_SLAVE_2.c: 60:         CCP1CONbits.DC1B = CCP1 & 0b11;
   595  0D10  1683               	bsf	3,5	;RP0=1, select bank1
   596  0D11  1303               	bcf	3,6	;RP1=0, select bank1
   597  0D12  0833               	movf	_CCP1^(0+128),w
   598  0D13  3903               	andlw	3
   599  0D14  1283               	bcf	3,5	;RP0=0, select bank0
   600  0D15  1303               	bcf	3,6	;RP1=0, select bank0
   601  0D16  00EE               	movwf	??_main
   602  0D17  0EEE               	swapf	??_main,f
   603  0D18  0817               	movf	23,w	;volatile
   604  0D19  066E               	xorwf	??_main,w
   605  0D1A  39CF               	andlw	-49
   606  0D1B  066E               	xorwf	??_main,w
   607  0D1C  0097               	movwf	23	;volatile
   608  0D1D  2CDF               	goto	l2504
   609  0D1E  120A  118A  280C   	ljmp	start
   610  0D21                     __end_of_main:
   611                           
   612                           	psect	text1
   613  0D21                     __ptext1:	
   614 ;; *************** function _setup *****************
   615 ;; Defined at:
   616 ;;		line 66 in file "SPI_SLAVE_2.c"
   617 ;; Parameters:    Size  Location     Type
   618 ;;		None
   619 ;; Auto vars:     Size  Location     Type
   620 ;;		None
   621 ;; Return value:  Size  Location     Type
   622 ;;                  1    wreg      void 
   623 ;; Registers used:
   624 ;;		wreg, status,2, status,0
   625 ;; Tracked objects:
   626 ;;		On entry : 0/0
   627 ;;		On exit  : 0/0
   628 ;;		Unchanged: 0/0
   629 ;; Data sizes:     COMMON   BANK0   BANK1   BANK3   BANK2
   630 ;;      Params:         0       0       0       0       0
   631 ;;      Locals:         0       0       0       0       0
   632 ;;      Temps:          0       0       0       0       0
   633 ;;      Totals:         0       0       0       0       0
   634 ;;Total ram usage:        0 bytes
   635 ;; Hardware stack levels used: 1
   636 ;; Hardware stack levels required when called: 1
   637 ;; This function calls:
   638 ;;		Nothing
   639 ;; This function is called by:
   640 ;;		_main
   641 ;; This function uses a non-reentrant model
   642 ;;
   643                           
   644  0D21                     _setup:	
   645                           ;psect for function _setup
   646                           
   647  0D21                     l1868:	
   648                           ;incstack = 0
   649                           ; Regs used in _setup: [wreg+status,2+status,0]
   650                           
   651                           
   652                           ;SPI_SLAVE_2.c: 67:     ANSELH = 0x00;
   653  0D21  1683               	bsf	3,5	;RP0=1, select bank3
   654  0D22  1703               	bsf	3,6	;RP1=1, select bank3
   655  0D23  0189               	clrf	9	;volatile
   656                           
   657                           ;SPI_SLAVE_2.c: 68:     ANSEL = 0x00;
   658  0D24  0188               	clrf	8	;volatile
   659  0D25                     l1870:
   660                           
   661                           ;SPI_SLAVE_2.c: 70:     TRISA = 0b00100000;
   662  0D25  3020               	movlw	32
   663  0D26  1683               	bsf	3,5	;RP0=1, select bank1
   664  0D27  1303               	bcf	3,6	;RP1=0, select bank1
   665  0D28  0085               	movwf	5	;volatile
   666  0D29                     l1872:
   667                           
   668                           ;SPI_SLAVE_2.c: 71:     PORTA = 0X00;
   669  0D29  1283               	bcf	3,5	;RP0=0, select bank0
   670  0D2A  1303               	bcf	3,6	;RP1=0, select bank0
   671  0D2B  0185               	clrf	5	;volatile
   672                           
   673                           ;SPI_SLAVE_2.c: 73:     TRISC = 0b00011000;
   674  0D2C  3018               	movlw	24
   675  0D2D  1683               	bsf	3,5	;RP0=1, select bank1
   676  0D2E  1303               	bcf	3,6	;RP1=0, select bank1
   677  0D2F  0087               	movwf	7	;volatile
   678  0D30                     l1874:
   679                           
   680                           ;SPI_SLAVE_2.c: 74:     PORTC = 0x00;
   681  0D30  1283               	bcf	3,5	;RP0=0, select bank0
   682  0D31  1303               	bcf	3,6	;RP1=0, select bank0
   683  0D32  0187               	clrf	7	;volatile
   684  0D33                     l1876:
   685                           
   686                           ;SPI_SLAVE_2.c: 76:     OSCCONbits.IRCF = 0b0100;
   687  0D33  1683               	bsf	3,5	;RP0=1, select bank1
   688  0D34  1303               	bcf	3,6	;RP1=0, select bank1
   689  0D35  080F               	movf	15,w	;volatile
   690  0D36  398F               	andlw	-113
   691  0D37  3840               	iorlw	64
   692  0D38  008F               	movwf	15	;volatile
   693  0D39                     l1878:
   694                           
   695                           ;SPI_SLAVE_2.c: 77:     OSCCONbits.SCS = 1;
   696  0D39  140F               	bsf	15,0	;volatile
   697  0D3A                     l1880:
   698                           
   699                           ;SPI_SLAVE_2.c: 80:     SSPCONbits.SSPM = 0b0100;
   700  0D3A  1283               	bcf	3,5	;RP0=0, select bank0
   701  0D3B  1303               	bcf	3,6	;RP1=0, select bank0
   702  0D3C  0814               	movf	20,w	;volatile
   703  0D3D  39F0               	andlw	-16
   704  0D3E  3804               	iorlw	4
   705  0D3F  0094               	movwf	20	;volatile
   706  0D40                     l1882:
   707                           
   708                           ;SPI_SLAVE_2.c: 81:     SSPCONbits.CKP = 0;
   709  0D40  1214               	bcf	20,4	;volatile
   710  0D41                     l1884:
   711                           
   712                           ;SPI_SLAVE_2.c: 82:     SSPCONbits.SSPEN = 1;
   713  0D41  1694               	bsf	20,5	;volatile
   714  0D42                     l1886:
   715                           
   716                           ;SPI_SLAVE_2.c: 84:     SSPSTATbits.CKE = 1;
   717  0D42  1683               	bsf	3,5	;RP0=1, select bank1
   718  0D43  1303               	bcf	3,6	;RP1=0, select bank1
   719  0D44  1714               	bsf	20,6	;volatile
   720  0D45                     l1888:
   721                           
   722                           ;SPI_SLAVE_2.c: 85:     SSPSTATbits.SMP = 0;
   723  0D45  1394               	bcf	20,7	;volatile
   724  0D46                     l1890:
   725                           
   726                           ;SPI_SLAVE_2.c: 88:     TRISCbits.TRISC2 = 1;
   727  0D46  1507               	bsf	7,2	;volatile
   728  0D47                     l1892:
   729                           
   730                           ;SPI_SLAVE_2.c: 89:     PR2 = 155;
   731  0D47  309B               	movlw	155
   732  0D48  0092               	movwf	18	;volatile
   733                           
   734                           ;SPI_SLAVE_2.c: 92:     CCP1CON = 0;
   735  0D49  1283               	bcf	3,5	;RP0=0, select bank0
   736  0D4A  1303               	bcf	3,6	;RP1=0, select bank0
   737  0D4B  0197               	clrf	23	;volatile
   738  0D4C                     l1894:
   739                           
   740                           ;SPI_SLAVE_2.c: 93:     CCP1CONbits.P1M = 0;
   741  0D4C  303F               	movlw	-193
   742  0D4D  0597               	andwf	23,f	;volatile
   743  0D4E                     l1896:
   744                           
   745                           ;SPI_SLAVE_2.c: 94:     CCP1CONbits.CCP1M = 0b1100;
   746  0D4E  0817               	movf	23,w	;volatile
   747  0D4F  39F0               	andlw	-16
   748  0D50  380C               	iorlw	12
   749  0D51  0097               	movwf	23	;volatile
   750  0D52                     l1898:
   751                           
   752                           ;SPI_SLAVE_2.c: 96:     CCPR1L = 125>>2;
   753  0D52  301F               	movlw	31
   754  0D53  0095               	movwf	21	;volatile
   755  0D54                     l1900:
   756                           
   757                           ;SPI_SLAVE_2.c: 97:     CCP1CONbits.DC1B = 125 & 0b11;
   758  0D54  0817               	movf	23,w	;volatile
   759  0D55  39CF               	andlw	-49
   760  0D56  3810               	iorlw	16
   761  0D57  0097               	movwf	23	;volatile
   762  0D58                     l1902:
   763                           
   764                           ;SPI_SLAVE_2.c: 99:     PIR1bits.TMR2IF = 0;
   765  0D58  108C               	bcf	12,1	;volatile
   766  0D59                     l1904:
   767                           
   768                           ;SPI_SLAVE_2.c: 100:     T2CONbits.T2CKPS = 0b11;
   769  0D59  3003               	movlw	3
   770  0D5A  0492               	iorwf	18,f	;volatile
   771  0D5B                     l1906:
   772                           
   773                           ;SPI_SLAVE_2.c: 101:     T2CONbits.TMR2ON = 1;
   774  0D5B  1512               	bsf	18,2	;volatile
   775  0D5C                     l70:	
   776                           ;SPI_SLAVE_2.c: 102:     while(!PIR1bits.TMR2IF);
   777                           
   778  0D5C  1C8C               	btfss	12,1	;volatile
   779  0D5D  2D5F               	goto	u2821
   780  0D5E  2D60               	goto	u2820
   781  0D5F                     u2821:
   782  0D5F  2D5C               	goto	l70
   783  0D60                     u2820:
   784  0D60                     l72:
   785                           
   786                           ;SPI_SLAVE_2.c: 103:     PIR1bits.TMR2IF = 0;
   787  0D60  108C               	bcf	12,1	;volatile
   788                           
   789                           ;SPI_SLAVE_2.c: 105:     TRISCbits.TRISC1 = 0;
   790  0D61  1683               	bsf	3,5	;RP0=1, select bank1
   791  0D62  1303               	bcf	3,6	;RP1=0, select bank1
   792  0D63  1087               	bcf	7,1	;volatile
   793                           
   794                           ;SPI_SLAVE_2.c: 110:     PIR1bits.SSPIF = 0;
   795  0D64  1283               	bcf	3,5	;RP0=0, select bank0
   796  0D65  1303               	bcf	3,6	;RP1=0, select bank0
   797  0D66  118C               	bcf	12,3	;volatile
   798                           
   799                           ;SPI_SLAVE_2.c: 111:     PIE1bits.SSPIE = 1;
   800  0D67  1683               	bsf	3,5	;RP0=1, select bank1
   801  0D68  1303               	bcf	3,6	;RP1=0, select bank1
   802  0D69  158C               	bsf	12,3	;volatile
   803                           
   804                           ;SPI_SLAVE_2.c: 112:     INTCONbits.PEIE = 1;
   805  0D6A  170B               	bsf	11,6	;volatile
   806                           
   807                           ;SPI_SLAVE_2.c: 113:     INTCONbits.GIE = 1;
   808  0D6B  178B               	bsf	11,7	;volatile
   809  0D6C                     l73:
   810  0D6C  0008               	return
   811  0D6D                     __end_of_setup:
   812                           
   813                           	psect	text2
   814  0D6D                     __ptext2:	
   815 ;; *************** function _map *****************
   816 ;; Defined at:
   817 ;;		line 119 in file "SPI_SLAVE_2.c"
   818 ;; Parameters:    Size  Location     Type
   819 ;;  x               1    wreg     unsigned char 
   820 ;;  x0              1   13[BANK1 ] unsigned char 
   821 ;;  x1              1   14[BANK1 ] unsigned char 
   822 ;;  y0              2   15[BANK1 ] unsigned short 
   823 ;;  y1              2   17[BANK1 ] unsigned short 
   824 ;; Auto vars:     Size  Location     Type
   825 ;;  x               1    9[COMMON] unsigned char 
   826 ;; Return value:  Size  Location     Type
   827 ;;                  2   13[BANK1 ] unsigned short 
   828 ;; Registers used:
   829 ;;		wreg, status,2, status,0, btemp+1, pclath, cstack
   830 ;; Tracked objects:
   831 ;;		On entry : 0/0
   832 ;;		On exit  : 0/0
   833 ;;		Unchanged: 0/0
   834 ;; Data sizes:     COMMON   BANK0   BANK1   BANK3   BANK2
   835 ;;      Params:         0       0       6       0       0
   836 ;;      Locals:         1       0       0       0       0
   837 ;;      Temps:          0       0       0       0       0
   838 ;;      Totals:         1       0       6       0       0
   839 ;;Total ram usage:        7 bytes
   840 ;; Hardware stack levels used: 1
   841 ;; Hardware stack levels required when called: 3
   842 ;; This function calls:
   843 ;;		___fladd
   844 ;;		___fldiv
   845 ;;		___flmul
   846 ;;		___fltol
   847 ;;		___xxtofl
   848 ;; This function is called by:
   849 ;;		_main
   850 ;; This function uses a non-reentrant model
   851 ;;
   852                           
   853  0D6D                     _map:	
   854                           ;psect for function _map
   855                           
   856                           
   857                           ;incstack = 0
   858                           ; Regs used in _map: [wreg+status,2+status,0+btemp+1+pclath+cstack]
   859                           ;map@x stored from wreg
   860  0D6D  00F9               	movwf	map@x
   861  0D6E                     l2498:
   862                           
   863                           ;SPI_SLAVE_2.c: 119: unsigned short map(uint8_t x, uint8_t x0, uint8_t x1,;SPI_SLAVE_2.c
      +                          : 120:             unsigned short y0, unsigned short y1){;SPI_SLAVE_2.c: 121:     return
      +                           (unsigned short)(y0+((float)(y1-y0)/(x1-x0))*(x-x0));
   864  0D6E  1683               	bsf	3,5	;RP0=1, select bank1
   865  0D6F  1303               	bcf	3,6	;RP1=0, select bank1
   866  0D70  082F               	movf	map@y0^(0+128),w
   867  0D71  00F3               	movwf	___xxtofl@val
   868  0D72  0830               	movf	(map@y0+1)^(0+128),w
   869  0D73  00F4               	movwf	___xxtofl@val+1
   870  0D74  01F5               	clrf	___xxtofl@val+2
   871  0D75  01F6               	clrf	___xxtofl@val+3
   872  0D76  3000               	movlw	0
   873  0D77  120A  118A  26BA  120A  158A  	fcall	___xxtofl
   874  0D7C  0876               	movf	?___xxtofl+3,w
   875  0D7D  1283               	bcf	3,5	;RP0=0, select bank0
   876  0D7E  1303               	bcf	3,6	;RP1=0, select bank0
   877  0D7F  00E5               	movwf	___fladd@a+3
   878  0D80  0875               	movf	?___xxtofl+2,w
   879  0D81  00E4               	movwf	___fladd@a+2
   880  0D82  0874               	movf	?___xxtofl+1,w
   881  0D83  00E3               	movwf	___fladd@a+1
   882  0D84  0873               	movf	?___xxtofl,w
   883  0D85  00E2               	movwf	___fladd@a
   884  0D86  1683               	bsf	3,5	;RP0=1, select bank1
   885  0D87  1303               	bcf	3,6	;RP1=0, select bank1
   886  0D88  082F               	movf	map@y0^(0+128),w
   887  0D89  0231               	subwf	map@y1^(0+128),w
   888  0D8A  00F3               	movwf	___xxtofl@val
   889  0D8B  0830               	movf	(map@y0+1)^(0+128),w
   890  0D8C  1C03               	skipc
   891  0D8D  0A30               	incf	(map@y0+1)^(0+128),w
   892  0D8E  0232               	subwf	(map@y1+1)^(0+128),w
   893  0D8F  00F4               	movwf	___xxtofl@val+1
   894  0D90  01F5               	clrf	___xxtofl@val+2
   895  0D91  01F6               	clrf	___xxtofl@val+3
   896  0D92  3000               	movlw	0
   897  0D93  120A  118A  26BA  120A  158A  	fcall	___xxtofl
   898  0D98  0876               	movf	?___xxtofl+3,w
   899  0D99  1283               	bcf	3,5	;RP0=0, select bank0
   900  0D9A  1303               	bcf	3,6	;RP1=0, select bank0
   901  0D9B  00B1               	movwf	___fldiv@b+3
   902  0D9C  0875               	movf	?___xxtofl+2,w
   903  0D9D  00B0               	movwf	___fldiv@b+2
   904  0D9E  0874               	movf	?___xxtofl+1,w
   905  0D9F  00AF               	movwf	___fldiv@b+1
   906  0DA0  0873               	movf	?___xxtofl,w
   907  0DA1  00AE               	movwf	___fldiv@b
   908  0DA2  1683               	bsf	3,5	;RP0=1, select bank1
   909  0DA3  1303               	bcf	3,6	;RP1=0, select bank1
   910  0DA4  082D               	movf	map@x0^(0+128),w
   911  0DA5  022E               	subwf	map@x1^(0+128),w
   912  0DA6  00F3               	movwf	___xxtofl@val
   913  0DA7  01F4               	clrf	___xxtofl@val+1
   914  0DA8  1C03               	skipc
   915  0DA9  03F4               	decf	___xxtofl@val+1,f
   916  0DAA  01F5               	clrf	___xxtofl@val+2
   917  0DAB  1BF4               	btfsc	___xxtofl@val+1,7
   918  0DAC  03F5               	decf	___xxtofl@val+2,f
   919  0DAD  0875               	movf	___xxtofl@val+2,w
   920  0DAE  00F6               	movwf	___xxtofl@val+3
   921  0DAF  3001               	movlw	1
   922  0DB0  120A  118A  26BA  120A  158A  	fcall	___xxtofl
   923  0DB5  0876               	movf	?___xxtofl+3,w
   924  0DB6  1283               	bcf	3,5	;RP0=0, select bank0
   925  0DB7  1303               	bcf	3,6	;RP1=0, select bank0
   926  0DB8  00AD               	movwf	___fldiv@a+3
   927  0DB9  0875               	movf	?___xxtofl+2,w
   928  0DBA  00AC               	movwf	___fldiv@a+2
   929  0DBB  0874               	movf	?___xxtofl+1,w
   930  0DBC  00AB               	movwf	___fldiv@a+1
   931  0DBD  0873               	movf	?___xxtofl,w
   932  0DBE  00AA               	movwf	___fldiv@a
   933  0DBF  120A  158A  2623  120A  158A  	fcall	___fldiv
   934  0DC4  1283               	bcf	3,5	;RP0=0, select bank0
   935  0DC5  1303               	bcf	3,6	;RP1=0, select bank0
   936  0DC6  082D               	movf	?___fldiv+3,w
   937  0DC7  00CB               	movwf	___flmul@a+3
   938  0DC8  082C               	movf	?___fldiv+2,w
   939  0DC9  00CA               	movwf	___flmul@a+2
   940  0DCA  082B               	movf	?___fldiv+1,w
   941  0DCB  00C9               	movwf	___flmul@a+1
   942  0DCC  082A               	movf	?___fldiv,w
   943  0DCD  00C8               	movwf	___flmul@a
   944  0DCE  1683               	bsf	3,5	;RP0=1, select bank1
   945  0DCF  1303               	bcf	3,6	;RP1=0, select bank1
   946  0DD0  082D               	movf	map@x0^(0+128),w
   947  0DD1  0279               	subwf	map@x,w
   948  0DD2  00F3               	movwf	___xxtofl@val
   949  0DD3  01F4               	clrf	___xxtofl@val+1
   950  0DD4  1C03               	skipc
   951  0DD5  03F4               	decf	___xxtofl@val+1,f
   952  0DD6  01F5               	clrf	___xxtofl@val+2
   953  0DD7  1BF4               	btfsc	___xxtofl@val+1,7
   954  0DD8  03F5               	decf	___xxtofl@val+2,f
   955  0DD9  0875               	movf	___xxtofl@val+2,w
   956  0DDA  00F6               	movwf	___xxtofl@val+3
   957  0DDB  3001               	movlw	1
   958  0DDC  120A  118A  26BA  120A  158A  	fcall	___xxtofl
   959  0DE1  0876               	movf	?___xxtofl+3,w
   960  0DE2  1283               	bcf	3,5	;RP0=0, select bank0
   961  0DE3  1303               	bcf	3,6	;RP1=0, select bank0
   962  0DE4  00C7               	movwf	___flmul@b+3
   963  0DE5  0875               	movf	?___xxtofl+2,w
   964  0DE6  00C6               	movwf	___flmul@b+2
   965  0DE7  0874               	movf	?___xxtofl+1,w
   966  0DE8  00C5               	movwf	___flmul@b+1
   967  0DE9  0873               	movf	?___xxtofl,w
   968  0DEA  00C4               	movwf	___flmul@b
   969  0DEB  120A  118A  2019  120A  158A  	fcall	___flmul
   970  0DF0  1283               	bcf	3,5	;RP0=0, select bank0
   971  0DF1  1303               	bcf	3,6	;RP1=0, select bank0
   972  0DF2  0847               	movf	?___flmul+3,w
   973  0DF3  00E1               	movwf	___fladd@b+3
   974  0DF4  0846               	movf	?___flmul+2,w
   975  0DF5  00E0               	movwf	___fladd@b+2
   976  0DF6  0845               	movf	?___flmul+1,w
   977  0DF7  00DF               	movwf	___fladd@b+1
   978  0DF8  0844               	movf	?___flmul,w
   979  0DF9  00DE               	movwf	___fladd@b
   980  0DFA  120A  118A  237A  120A  158A  	fcall	___fladd
   981  0DFF  1283               	bcf	3,5	;RP0=0, select bank0
   982  0E00  1303               	bcf	3,6	;RP1=0, select bank0
   983  0E01  0861               	movf	?___fladd+3,w
   984  0E02  1683               	bsf	3,5	;RP0=1, select bank1
   985  0E03  1303               	bcf	3,6	;RP1=0, select bank1
   986  0E04  00A7               	movwf	(___fltol@f1+3)^(0+128)
   987  0E05  1283               	bcf	3,5	;RP0=0, select bank0
   988  0E06  1303               	bcf	3,6	;RP1=0, select bank0
   989  0E07  0860               	movf	?___fladd+2,w
   990  0E08  1683               	bsf	3,5	;RP0=1, select bank1
   991  0E09  1303               	bcf	3,6	;RP1=0, select bank1
   992  0E0A  00A6               	movwf	(___fltol@f1+2)^(0+128)
   993  0E0B  1283               	bcf	3,5	;RP0=0, select bank0
   994  0E0C  1303               	bcf	3,6	;RP1=0, select bank0
   995  0E0D  085F               	movf	?___fladd+1,w
   996  0E0E  1683               	bsf	3,5	;RP0=1, select bank1
   997  0E0F  1303               	bcf	3,6	;RP1=0, select bank1
   998  0E10  00A5               	movwf	(___fltol@f1+1)^(0+128)
   999  0E11  1283               	bcf	3,5	;RP0=0, select bank0
  1000  0E12  1303               	bcf	3,6	;RP1=0, select bank0
  1001  0E13  085E               	movf	?___fladd,w
  1002  0E14  1683               	bsf	3,5	;RP0=1, select bank1
  1003  0E15  1303               	bcf	3,6	;RP1=0, select bank1
  1004  0E16  00A4               	movwf	___fltol@f1^(0+128)
  1005  0E17  120A  118A  2776  120A  158A  	fcall	___fltol
  1006  0E1C  1683               	bsf	3,5	;RP0=1, select bank1
  1007  0E1D  1303               	bcf	3,6	;RP1=0, select bank1
  1008  0E1E  0825               	movf	(?___fltol+1)^(0+128),w
  1009  0E1F  00AE               	movwf	(?_map+1)^(0+128)
  1010  0E20  0824               	movf	?___fltol^(0+128),w
  1011  0E21  00AD               	movwf	?_map^(0+128)
  1012  0E22                     l76:
  1013  0E22  0008               	return
  1014  0E23                     __end_of_map:
  1015                           
  1016                           	psect	text3
  1017  06BA                     __ptext3:	
  1018 ;; *************** function ___xxtofl *****************
  1019 ;; Defined at:
  1020 ;;		line 10 in file "C:\Program Files\Microchip\xc8\v2.35\pic\sources\c90\common\xxtofl.c"
  1021 ;; Parameters:    Size  Location     Type
  1022 ;;  sign            1    wreg     unsigned char 
  1023 ;;  val             4    3[COMMON] long 
  1024 ;; Auto vars:     Size  Location     Type
  1025 ;;  sign            1    4[BANK0 ] unsigned char 
  1026 ;;  arg             4    6[BANK0 ] unsigned long 
  1027 ;;  exp             1    5[BANK0 ] unsigned char 
  1028 ;; Return value:  Size  Location     Type
  1029 ;;                  4    3[COMMON] unsigned char 
  1030 ;; Registers used:
  1031 ;;		wreg, status,2, status,0
  1032 ;; Tracked objects:
  1033 ;;		On entry : 0/0
  1034 ;;		On exit  : 0/0
  1035 ;;		Unchanged: 0/0
  1036 ;; Data sizes:     COMMON   BANK0   BANK1   BANK3   BANK2
  1037 ;;      Params:         4       0       0       0       0
  1038 ;;      Locals:         0       6       0       0       0
  1039 ;;      Temps:          0       4       0       0       0
  1040 ;;      Totals:         4      10       0       0       0
  1041 ;;Total ram usage:       14 bytes
  1042 ;; Hardware stack levels used: 1
  1043 ;; Hardware stack levels required when called: 1
  1044 ;; This function calls:
  1045 ;;		Nothing
  1046 ;; This function is called by:
  1047 ;;		_map
  1048 ;; This function uses a non-reentrant model
  1049 ;;
  1050                           
  1051  06BA                     ___xxtofl:	
  1052                           ;psect for function ___xxtofl
  1053                           
  1054                           
  1055                           ;incstack = 0
  1056                           ; Regs used in ___xxtofl: [wreg+status,2+status,0]
  1057                           ;___xxtofl@sign stored from wreg
  1058  06BA  1283               	bcf	3,5	;RP0=0, select bank0
  1059  06BB  1303               	bcf	3,6	;RP1=0, select bank0
  1060  06BC  00A4               	movwf	___xxtofl@sign
  1061  06BD                     l2454:
  1062  06BD  0824               	movf	___xxtofl@sign,w
  1063  06BE  1903               	btfsc	3,2
  1064  06BF  2EC1               	goto	u4101
  1065  06C0  2EC2               	goto	u4100
  1066  06C1                     u4101:
  1067  06C1  2ED6               	goto	l2460
  1068  06C2                     u4100:
  1069  06C2                     l2456:
  1070  06C2  1FF6               	btfss	___xxtofl@val+3,7
  1071  06C3  2EC5               	goto	u4111
  1072  06C4  2EC6               	goto	u4110
  1073  06C5                     u4111:
  1074  06C5  2ED6               	goto	l2460
  1075  06C6                     u4110:
  1076  06C6                     l2458:
  1077  06C6  0973               	comf	___xxtofl@val,w
  1078  06C7  00A6               	movwf	___xxtofl@arg
  1079  06C8  0974               	comf	___xxtofl@val+1,w
  1080  06C9  00A7               	movwf	___xxtofl@arg+1
  1081  06CA  0975               	comf	___xxtofl@val+2,w
  1082  06CB  00A8               	movwf	___xxtofl@arg+2
  1083  06CC  0976               	comf	___xxtofl@val+3,w
  1084  06CD  00A9               	movwf	___xxtofl@arg+3
  1085  06CE  0AA6               	incf	___xxtofl@arg,f
  1086  06CF  1903               	skipnz
  1087  06D0  0AA7               	incf	___xxtofl@arg+1,f
  1088  06D1  1903               	skipnz
  1089  06D2  0AA8               	incf	___xxtofl@arg+2,f
  1090  06D3  1903               	skipnz
  1091  06D4  0AA9               	incf	___xxtofl@arg+3,f
  1092  06D5  2EDE               	goto	l595
  1093  06D6                     l2460:
  1094  06D6  0876               	movf	___xxtofl@val+3,w
  1095  06D7  00A9               	movwf	___xxtofl@arg+3
  1096  06D8  0875               	movf	___xxtofl@val+2,w
  1097  06D9  00A8               	movwf	___xxtofl@arg+2
  1098  06DA  0874               	movf	___xxtofl@val+1,w
  1099  06DB  00A7               	movwf	___xxtofl@arg+1
  1100  06DC  0873               	movf	___xxtofl@val,w
  1101  06DD  00A6               	movwf	___xxtofl@arg
  1102  06DE                     l595:
  1103  06DE  0876               	movf	___xxtofl@val+3,w
  1104  06DF  0475               	iorwf	___xxtofl@val+2,w
  1105  06E0  0474               	iorwf	___xxtofl@val+1,w
  1106  06E1  0473               	iorwf	___xxtofl@val,w
  1107  06E2  1D03               	skipz
  1108  06E3  2EE5               	goto	u4121
  1109  06E4  2EE6               	goto	u4120
  1110  06E5                     u4121:
  1111  06E5  2EEF               	goto	l2466
  1112  06E6                     u4120:
  1113  06E6                     l2462:
  1114  06E6  3000               	movlw	0
  1115  06E7  00F6               	movwf	?___xxtofl+3
  1116  06E8  3000               	movlw	0
  1117  06E9  00F5               	movwf	?___xxtofl+2
  1118  06EA  3000               	movlw	0
  1119  06EB  00F4               	movwf	?___xxtofl+1
  1120  06EC  3000               	movlw	0
  1121  06ED  00F3               	movwf	?___xxtofl
  1122  06EE  2F75               	goto	l597
  1123  06EF                     l2466:
  1124  06EF  3096               	movlw	150
  1125  06F0  00A0               	movwf	??___xxtofl
  1126  06F1  0820               	movf	??___xxtofl,w
  1127  06F2  00A5               	movwf	___xxtofl@exp
  1128  06F3  2F01               	goto	l2470
  1129  06F4                     l2468:
  1130  06F4  3001               	movlw	1
  1131  06F5  00A0               	movwf	??___xxtofl
  1132  06F6  0820               	movf	??___xxtofl,w
  1133  06F7  07A5               	addwf	___xxtofl@exp,f
  1134  06F8  3001               	movlw	1
  1135  06F9                     u4135:
  1136  06F9  1003               	clrc
  1137  06FA  0CA9               	rrf	___xxtofl@arg+3,f
  1138  06FB  0CA8               	rrf	___xxtofl@arg+2,f
  1139  06FC  0CA7               	rrf	___xxtofl@arg+1,f
  1140  06FD  0CA6               	rrf	___xxtofl@arg,f
  1141  06FE  3EFF               	addlw	-1
  1142  06FF  1D03               	skipz
  1143  0700  2EF9               	goto	u4135
  1144  0701                     l2470:
  1145  0701  30FE               	movlw	254
  1146  0702  0529               	andwf	___xxtofl@arg+3,w
  1147  0703  1D03               	btfss	3,2
  1148  0704  2F06               	goto	u4141
  1149  0705  2F07               	goto	u4140
  1150  0706                     u4141:
  1151  0706  2EF4               	goto	l2468
  1152  0707                     u4140:
  1153  0707  2F23               	goto	l601
  1154  0708                     l2472:
  1155  0708  3001               	movlw	1
  1156  0709  00A0               	movwf	??___xxtofl
  1157  070A  0820               	movf	??___xxtofl,w
  1158  070B  07A5               	addwf	___xxtofl@exp,f
  1159  070C                     l2474:
  1160  070C  3001               	movlw	1
  1161  070D  07A6               	addwf	___xxtofl@arg,f
  1162  070E  3000               	movlw	0
  1163  070F  1803               	skipnc
  1164  0710  3001               	movlw	1
  1165  0711  07A7               	addwf	___xxtofl@arg+1,f
  1166  0712  3000               	movlw	0
  1167  0713  1803               	skipnc
  1168  0714  3001               	movlw	1
  1169  0715  07A8               	addwf	___xxtofl@arg+2,f
  1170  0716  3000               	movlw	0
  1171  0717  1803               	skipnc
  1172  0718  3001               	movlw	1
  1173  0719  07A9               	addwf	___xxtofl@arg+3,f
  1174  071A                     l2476:
  1175  071A  3001               	movlw	1
  1176  071B                     u4155:
  1177  071B  1003               	clrc
  1178  071C  0CA9               	rrf	___xxtofl@arg+3,f
  1179  071D  0CA8               	rrf	___xxtofl@arg+2,f
  1180  071E  0CA7               	rrf	___xxtofl@arg+1,f
  1181  071F  0CA6               	rrf	___xxtofl@arg,f
  1182  0720  3EFF               	addlw	-1
  1183  0721  1D03               	skipz
  1184  0722  2F1B               	goto	u4155
  1185  0723                     l601:
  1186  0723  30FF               	movlw	255
  1187  0724  0529               	andwf	___xxtofl@arg+3,w
  1188  0725  1D03               	btfss	3,2
  1189  0726  2F28               	goto	u4161
  1190  0727  2F29               	goto	u4160
  1191  0728                     u4161:
  1192  0728  2F08               	goto	l2472
  1193  0729                     u4160:
  1194  0729  2F35               	goto	l2480
  1195  072A                     l2478:
  1196  072A  3001               	movlw	1
  1197  072B  02A5               	subwf	___xxtofl@exp,f
  1198  072C  3001               	movlw	1
  1199  072D  00A0               	movwf	??___xxtofl
  1200  072E                     u4175:
  1201  072E  1003               	clrc
  1202  072F  0DA6               	rlf	___xxtofl@arg,f
  1203  0730  0DA7               	rlf	___xxtofl@arg+1,f
  1204  0731  0DA8               	rlf	___xxtofl@arg+2,f
  1205  0732  0DA9               	rlf	___xxtofl@arg+3,f
  1206  0733  0BA0               	decfsz	??___xxtofl,f
  1207  0734  2F2E               	goto	u4175
  1208  0735                     l2480:
  1209  0735  1BA8               	btfsc	___xxtofl@arg+2,7
  1210  0736  2F38               	goto	u4181
  1211  0737  2F39               	goto	u4180
  1212  0738                     u4181:
  1213  0738  2F3F               	goto	l608
  1214  0739                     u4180:
  1215  0739                     l2482:
  1216  0739  3002               	movlw	2
  1217  073A  0225               	subwf	___xxtofl@exp,w
  1218  073B  1803               	skipnc
  1219  073C  2F3E               	goto	u4191
  1220  073D  2F3F               	goto	u4190
  1221  073E                     u4191:
  1222  073E  2F2A               	goto	l2478
  1223  073F                     u4190:
  1224  073F                     l608:
  1225  073F  1825               	btfsc	___xxtofl@exp,0
  1226  0740  2F42               	goto	u4201
  1227  0741  2F43               	goto	u4200
  1228  0742                     u4201:
  1229  0742  2F4B               	goto	l609
  1230  0743                     u4200:
  1231  0743                     l2484:
  1232  0743  30FF               	movlw	255
  1233  0744  05A6               	andwf	___xxtofl@arg,f
  1234  0745  30FF               	movlw	255
  1235  0746  05A7               	andwf	___xxtofl@arg+1,f
  1236  0747  307F               	movlw	127
  1237  0748  05A8               	andwf	___xxtofl@arg+2,f
  1238  0749  30FF               	movlw	255
  1239  074A  05A9               	andwf	___xxtofl@arg+3,f
  1240  074B                     l609:
  1241  074B  1003               	clrc
  1242  074C  0CA5               	rrf	___xxtofl@exp,f
  1243  074D                     l2486:
  1244  074D  0825               	movf	___xxtofl@exp,w
  1245  074E  00A0               	movwf	??___xxtofl
  1246  074F  01A1               	clrf	??___xxtofl+1
  1247  0750  01A2               	clrf	??___xxtofl+2
  1248  0751  01A3               	clrf	??___xxtofl+3
  1249  0752  3018               	movlw	24
  1250  0753                     u4215:
  1251  0753  1003               	clrc
  1252  0754  0DA0               	rlf	??___xxtofl,f
  1253  0755  0DA1               	rlf	??___xxtofl+1,f
  1254  0756  0DA2               	rlf	??___xxtofl+2,f
  1255  0757  0DA3               	rlf	??___xxtofl+3,f
  1256  0758                     u4210:
  1257  0758  3EFF               	addlw	-1
  1258  0759  1D03               	skipz
  1259  075A  2F53               	goto	u4215
  1260  075B  0820               	movf	??___xxtofl,w
  1261  075C  04A6               	iorwf	___xxtofl@arg,f
  1262  075D  0821               	movf	??___xxtofl+1,w
  1263  075E  04A7               	iorwf	___xxtofl@arg+1,f
  1264  075F  0822               	movf	??___xxtofl+2,w
  1265  0760  04A8               	iorwf	___xxtofl@arg+2,f
  1266  0761  0823               	movf	??___xxtofl+3,w
  1267  0762  04A9               	iorwf	___xxtofl@arg+3,f
  1268  0763                     l2488:
  1269  0763  0824               	movf	___xxtofl@sign,w
  1270  0764  1903               	btfsc	3,2
  1271  0765  2F67               	goto	u4221
  1272  0766  2F68               	goto	u4220
  1273  0767                     u4221:
  1274  0767  2F6D               	goto	l2494
  1275  0768                     u4220:
  1276  0768                     l2490:
  1277  0768  1FF6               	btfss	___xxtofl@val+3,7
  1278  0769  2F6B               	goto	u4231
  1279  076A  2F6C               	goto	u4230
  1280  076B                     u4231:
  1281  076B  2F6D               	goto	l2494
  1282  076C                     u4230:
  1283  076C                     l2492:
  1284  076C  17A9               	bsf	___xxtofl@arg+3,7
  1285  076D                     l2494:
  1286  076D  0829               	movf	___xxtofl@arg+3,w
  1287  076E  00F6               	movwf	?___xxtofl+3
  1288  076F  0828               	movf	___xxtofl@arg+2,w
  1289  0770  00F5               	movwf	?___xxtofl+2
  1290  0771  0827               	movf	___xxtofl@arg+1,w
  1291  0772  00F4               	movwf	?___xxtofl+1
  1292  0773  0826               	movf	___xxtofl@arg,w
  1293  0774  00F3               	movwf	?___xxtofl
  1294  0775                     l597:
  1295  0775  0008               	return
  1296  0776                     __end_of___xxtofl:
  1297                           
  1298                           	psect	text4
  1299  0776                     __ptext4:	
  1300 ;; *************** function ___fltol *****************
  1301 ;; Defined at:
  1302 ;;		line 43 in file "C:\Program Files\Microchip\xc8\v2.35\pic\sources\c90\common\fltol.c"
  1303 ;; Parameters:    Size  Location     Type
  1304 ;;  f1              4    4[BANK1 ] unsigned char 
  1305 ;; Auto vars:     Size  Location     Type
  1306 ;;  exp1            1    8[COMMON] unsigned char 
  1307 ;;  sign1           1    7[COMMON] unsigned char 
  1308 ;; Return value:  Size  Location     Type
  1309 ;;                  4    4[BANK1 ] long 
  1310 ;; Registers used:
  1311 ;;		wreg, status,2, status,0
  1312 ;; Tracked objects:
  1313 ;;		On entry : 0/0
  1314 ;;		On exit  : 0/0
  1315 ;;		Unchanged: 0/0
  1316 ;; Data sizes:     COMMON   BANK0   BANK1   BANK3   BANK2
  1317 ;;      Params:         0       0       4       0       0
  1318 ;;      Locals:         2       0       0       0       0
  1319 ;;      Temps:          0       0       5       0       0
  1320 ;;      Totals:         2       0       9       0       0
  1321 ;;Total ram usage:       11 bytes
  1322 ;; Hardware stack levels used: 1
  1323 ;; Hardware stack levels required when called: 1
  1324 ;; This function calls:
  1325 ;;		Nothing
  1326 ;; This function is called by:
  1327 ;;		_map
  1328 ;; This function uses a non-reentrant model
  1329 ;;
  1330                           
  1331  0776                     ___fltol:	
  1332                           ;psect for function ___fltol
  1333                           
  1334  0776                     l1942:	
  1335                           ;incstack = 0
  1336                           ; Regs used in ___fltol: [wreg+status,2+status,0]
  1337                           
  1338  0776  1003               	clrc
  1339  0777  1683               	bsf	3,5	;RP0=1, select bank1
  1340  0778  1303               	bcf	3,6	;RP1=0, select bank1
  1341  0779  0D26               	rlf	(___fltol@f1+2)^(0+128),w
  1342  077A  0D27               	rlf	(___fltol@f1+3)^(0+128),w
  1343  077B  00A8               	movwf	??___fltol^(0+128)
  1344  077C  0828               	movf	??___fltol^(0+128),w
  1345  077D  00F8               	movwf	___fltol@exp1
  1346  077E  0878               	movf	___fltol@exp1,w
  1347  077F  1D03               	btfss	3,2
  1348  0780  2F82               	goto	u2881
  1349  0781  2F83               	goto	u2880
  1350  0782                     u2881:
  1351  0782  2F8C               	goto	l1948
  1352  0783                     u2880:
  1353  0783                     l1944:
  1354  0783  3000               	movlw	0
  1355  0784  00A7               	movwf	(?___fltol+3)^(0+128)
  1356  0785  3000               	movlw	0
  1357  0786  00A6               	movwf	(?___fltol+2)^(0+128)
  1358  0787  3000               	movlw	0
  1359  0788  00A5               	movwf	(?___fltol+1)^(0+128)
  1360  0789  3000               	movlw	0
  1361  078A  00A4               	movwf	?___fltol^(0+128)
  1362  078B  2FF1               	goto	l348
  1363  078C                     l1948:
  1364  078C  0824               	movf	___fltol@f1^(0+128),w
  1365  078D  00A8               	movwf	??___fltol^(0+128)
  1366  078E  0825               	movf	(___fltol@f1+1)^(0+128),w
  1367  078F  00A9               	movwf	(??___fltol^(0+128)+1)
  1368  0790  0826               	movf	(___fltol@f1+2)^(0+128),w
  1369  0791  00AA               	movwf	(??___fltol^(0+128)+2)
  1370  0792  0827               	movf	(___fltol@f1+3)^(0+128),w
  1371  0793  00AB               	movwf	(??___fltol^(0+128)+3)
  1372  0794  301F               	movlw	31
  1373  0795                     u2895:
  1374  0795  1003               	clrc
  1375  0796  0CAB               	rrf	(??___fltol^(0+128)+3),f
  1376  0797  0CAA               	rrf	(??___fltol^(0+128)+2),f
  1377  0798  0CA9               	rrf	(??___fltol^(0+128)+1),f
  1378  0799  0CA8               	rrf	??___fltol^(0+128),f
  1379  079A                     u2890:
  1380  079A  3EFF               	addlw	-1
  1381  079B  1D03               	skipz
  1382  079C  2F95               	goto	u2895
  1383  079D  0828               	movf	??___fltol^(0+128),w
  1384  079E  00AC               	movwf	(??___fltol+4)^(0+128)
  1385  079F  082C               	movf	(??___fltol+4)^(0+128),w
  1386  07A0  00F7               	movwf	___fltol@sign1
  1387  07A1                     l1950:
  1388  07A1  17A6               	bsf	(___fltol@f1^(0+128)+2),7
  1389  07A2                     l1952:
  1390  07A2  30FF               	movlw	255
  1391  07A3  05A4               	andwf	___fltol@f1^(0+128),f
  1392  07A4  30FF               	movlw	255
  1393  07A5  05A5               	andwf	(___fltol@f1+1)^(0+128),f
  1394  07A6  30FF               	movlw	255
  1395  07A7  05A6               	andwf	(___fltol@f1+2)^(0+128),f
  1396  07A8  3000               	movlw	0
  1397  07A9  05A7               	andwf	(___fltol@f1+3)^(0+128),f
  1398  07AA                     l1954:
  1399  07AA  3096               	movlw	150
  1400  07AB  02F8               	subwf	___fltol@exp1,f
  1401  07AC                     l1956:
  1402  07AC  1FF8               	btfss	___fltol@exp1,7
  1403  07AD  2FAF               	goto	u2901
  1404  07AE  2FB0               	goto	u2900
  1405  07AF                     u2901:
  1406  07AF  2FCA               	goto	l1966
  1407  07B0                     u2900:
  1408  07B0                     l1958:
  1409  07B0  0878               	movf	___fltol@exp1,w
  1410  07B1  3A80               	xorlw	128
  1411  07B2  3E97               	addlw	151
  1412  07B3  1803               	skipnc
  1413  07B4  2FB6               	goto	u2911
  1414  07B5  2FB7               	goto	u2910
  1415  07B6                     u2911:
  1416  07B6  2FB8               	goto	l1964
  1417  07B7                     u2910:
  1418  07B7  2F83               	goto	l1944
  1419  07B8                     l1964:
  1420  07B8  3001               	movlw	1
  1421  07B9                     u2925:
  1422  07B9  1003               	clrc
  1423  07BA  0CA7               	rrf	(___fltol@f1+3)^(0+128),f
  1424  07BB  0CA6               	rrf	(___fltol@f1+2)^(0+128),f
  1425  07BC  0CA5               	rrf	(___fltol@f1+1)^(0+128),f
  1426  07BD  0CA4               	rrf	___fltol@f1^(0+128),f
  1427  07BE  3EFF               	addlw	-1
  1428  07BF  1D03               	skipz
  1429  07C0  2FB9               	goto	u2925
  1430  07C1  3001               	movlw	1
  1431  07C2  00A8               	movwf	??___fltol^(0+128)
  1432  07C3  0828               	movf	??___fltol^(0+128),w
  1433  07C4  07F8               	addwf	___fltol@exp1,f
  1434  07C5  1D03               	btfss	3,2
  1435  07C6  2FC8               	goto	u2931
  1436  07C7  2FC9               	goto	u2930
  1437  07C8                     u2931:
  1438  07C8  2FB8               	goto	l1964
  1439  07C9                     u2930:
  1440  07C9  2FE1               	goto	l1974
  1441  07CA                     l1966:
  1442  07CA  3020               	movlw	32
  1443  07CB  0278               	subwf	___fltol@exp1,w
  1444  07CC  1C03               	skipc
  1445  07CD  2FCF               	goto	u2941
  1446  07CE  2FD0               	goto	u2940
  1447  07CF                     u2941:
  1448  07CF  2FDC               	goto	l355
  1449  07D0                     u2940:
  1450  07D0  2F83               	goto	l1944
  1451  07D1                     l1972:
  1452  07D1  3001               	movlw	1
  1453  07D2  00A8               	movwf	??___fltol^(0+128)
  1454  07D3                     u2955:
  1455  07D3  1003               	clrc
  1456  07D4  0DA4               	rlf	___fltol@f1^(0+128),f
  1457  07D5  0DA5               	rlf	(___fltol@f1+1)^(0+128),f
  1458  07D6  0DA6               	rlf	(___fltol@f1+2)^(0+128),f
  1459  07D7  0DA7               	rlf	(___fltol@f1+3)^(0+128),f
  1460  07D8  0BA8               	decfsz	??___fltol^(0+128),f
  1461  07D9  2FD3               	goto	u2955
  1462  07DA  3001               	movlw	1
  1463  07DB  02F8               	subwf	___fltol@exp1,f
  1464  07DC                     l355:
  1465  07DC  0878               	movf	___fltol@exp1,w
  1466  07DD  1D03               	btfss	3,2
  1467  07DE  2FE0               	goto	u2961
  1468  07DF  2FE1               	goto	u2960
  1469  07E0                     u2961:
  1470  07E0  2FD1               	goto	l1972
  1471  07E1                     u2960:
  1472  07E1                     l1974:
  1473  07E1  0877               	movf	___fltol@sign1,w
  1474  07E2  1903               	btfsc	3,2
  1475  07E3  2FE5               	goto	u2971
  1476  07E4  2FE6               	goto	u2970
  1477  07E5                     u2971:
  1478  07E5  2FF1               	goto	l358
  1479  07E6                     u2970:
  1480  07E6                     l1976:
  1481  07E6  09A4               	comf	___fltol@f1^(0+128),f
  1482  07E7  09A5               	comf	(___fltol@f1+1)^(0+128),f
  1483  07E8  09A6               	comf	(___fltol@f1+2)^(0+128),f
  1484  07E9  09A7               	comf	(___fltol@f1+3)^(0+128),f
  1485  07EA  0AA4               	incf	___fltol@f1^(0+128),f
  1486  07EB  1903               	skipnz
  1487  07EC  0AA5               	incf	(___fltol@f1+1)^(0+128),f
  1488  07ED  1903               	skipnz
  1489  07EE  0AA6               	incf	(___fltol@f1+2)^(0+128),f
  1490  07EF  1903               	skipnz
  1491  07F0  0AA7               	incf	(___fltol@f1+3)^(0+128),f
  1492  07F1                     l358:
  1493  07F1                     l348:
  1494  07F1  0008               	return
  1495  07F2                     __end_of___fltol:
  1496                           
  1497                           	psect	text5
  1498  0019                     __ptext5:	
  1499 ;; *************** function ___flmul *****************
  1500 ;; Defined at:
  1501 ;;		line 8 in file "C:\Program Files\Microchip\xc8\v2.35\pic\sources\c90\common\sprcmul.c"
  1502 ;; Parameters:    Size  Location     Type
  1503 ;;  b               4   36[BANK0 ] long 
  1504 ;;  a               4   40[BANK0 ] long 
  1505 ;; Auto vars:     Size  Location     Type
  1506 ;;  prod            4   56[BANK0 ] struct .
  1507 ;;  grs             4   51[BANK0 ] unsigned long 
  1508 ;;  temp            2   60[BANK0 ] struct .
  1509 ;;  bexp            1   55[BANK0 ] unsigned char 
  1510 ;;  aexp            1   50[BANK0 ] unsigned char 
  1511 ;;  sign            1   49[BANK0 ] unsigned char 
  1512 ;; Return value:  Size  Location     Type
  1513 ;;                  4   36[BANK0 ] unsigned char 
  1514 ;; Registers used:
  1515 ;;		wreg, status,2, status,0, btemp+1, pclath, cstack
  1516 ;; Tracked objects:
  1517 ;;		On entry : 0/0
  1518 ;;		On exit  : 0/0
  1519 ;;		Unchanged: 0/0
  1520 ;; Data sizes:     COMMON   BANK0   BANK1   BANK3   BANK2
  1521 ;;      Params:         0       8       0       0       0
  1522 ;;      Locals:         0      13       0       0       0
  1523 ;;      Temps:          0       5       0       0       0
  1524 ;;      Totals:         0      26       0       0       0
  1525 ;;Total ram usage:       26 bytes
  1526 ;; Hardware stack levels used: 1
  1527 ;; Hardware stack levels required when called: 2
  1528 ;; This function calls:
  1529 ;;		__Umul8_16
  1530 ;; This function is called by:
  1531 ;;		_map
  1532 ;; This function uses a non-reentrant model
  1533 ;;
  1534                           
  1535  0019                     ___flmul:	
  1536                           ;psect for function ___flmul
  1537                           
  1538  0019                     l2314:	
  1539                           ;incstack = 0
  1540                           ; Regs used in ___flmul: [wreg+status,2+status,0+btemp+1+pclath+cstack]
  1541                           
  1542  0019  1283               	bcf	3,5	;RP0=0, select bank0
  1543  001A  1303               	bcf	3,6	;RP1=0, select bank0
  1544  001B  0847               	movf	___flmul@b+3,w
  1545  001C  3980               	andlw	128
  1546  001D  00CC               	movwf	??___flmul
  1547  001E  084C               	movf	??___flmul,w
  1548  001F  00D1               	movwf	___flmul@sign
  1549  0020                     l2316:
  1550  0020  0847               	movf	___flmul@b+3,w
  1551  0021  00CC               	movwf	??___flmul
  1552  0022  074C               	addwf	??___flmul,w
  1553  0023  00CD               	movwf	??___flmul+1
  1554  0024  084D               	movf	??___flmul+1,w
  1555  0025  00D7               	movwf	___flmul@bexp
  1556  0026                     l2318:
  1557  0026  1FC6               	btfss	___flmul@b+2,7
  1558  0027  2829               	goto	u3731
  1559  0028  282A               	goto	u3730
  1560  0029                     u3731:
  1561  0029  282B               	goto	l2322
  1562  002A                     u3730:
  1563  002A                     l2320:
  1564  002A  1457               	bsf	___flmul@bexp,0
  1565  002B                     l2322:
  1566  002B  0857               	movf	___flmul@bexp,w
  1567  002C  1903               	btfsc	3,2
  1568  002D  282F               	goto	u3741
  1569  002E  2830               	goto	u3740
  1570  002F                     u3741:
  1571  002F  283F               	goto	l2330
  1572  0030                     u3740:
  1573  0030                     l2324:
  1574  0030  0A57               	incf	___flmul@bexp,w
  1575  0031  1D03               	btfss	3,2
  1576  0032  2834               	goto	u3751
  1577  0033  2835               	goto	u3750
  1578  0034                     u3751:
  1579  0034  283D               	goto	l2328
  1580  0035                     u3750:
  1581  0035                     l2326:
  1582  0035  3000               	movlw	0
  1583  0036  00C7               	movwf	___flmul@b+3
  1584  0037  3000               	movlw	0
  1585  0038  00C6               	movwf	___flmul@b+2
  1586  0039  3000               	movlw	0
  1587  003A  00C5               	movwf	___flmul@b+1
  1588  003B  3000               	movlw	0
  1589  003C  00C4               	movwf	___flmul@b
  1590  003D                     l2328:
  1591  003D  17C6               	bsf	___flmul@b+2,7
  1592  003E  2847               	goto	l2332
  1593  003F                     l2330:
  1594  003F  3000               	movlw	0
  1595  0040  00C7               	movwf	___flmul@b+3
  1596  0041  3000               	movlw	0
  1597  0042  00C6               	movwf	___flmul@b+2
  1598  0043  3000               	movlw	0
  1599  0044  00C5               	movwf	___flmul@b+1
  1600  0045  3000               	movlw	0
  1601  0046  00C4               	movwf	___flmul@b
  1602  0047                     l2332:
  1603  0047  084B               	movf	___flmul@a+3,w
  1604  0048  3980               	andlw	128
  1605  0049  00CC               	movwf	??___flmul
  1606  004A  084C               	movf	??___flmul,w
  1607  004B  06D1               	xorwf	___flmul@sign,f
  1608  004C                     l2334:
  1609  004C  084B               	movf	___flmul@a+3,w
  1610  004D  00CC               	movwf	??___flmul
  1611  004E  074C               	addwf	??___flmul,w
  1612  004F  00CD               	movwf	??___flmul+1
  1613  0050  084D               	movf	??___flmul+1,w
  1614  0051  00D2               	movwf	___flmul@aexp
  1615  0052                     l2336:
  1616  0052  1FCA               	btfss	___flmul@a+2,7
  1617  0053  2855               	goto	u3761
  1618  0054  2856               	goto	u3760
  1619  0055                     u3761:
  1620  0055  2857               	goto	l2340
  1621  0056                     u3760:
  1622  0056                     l2338:
  1623  0056  1452               	bsf	___flmul@aexp,0
  1624  0057                     l2340:
  1625  0057  0852               	movf	___flmul@aexp,w
  1626  0058  1903               	btfsc	3,2
  1627  0059  285B               	goto	u3771
  1628  005A  285C               	goto	u3770
  1629  005B                     u3771:
  1630  005B  286B               	goto	l2348
  1631  005C                     u3770:
  1632  005C                     l2342:
  1633  005C  0A52               	incf	___flmul@aexp,w
  1634  005D  1D03               	btfss	3,2
  1635  005E  2860               	goto	u3781
  1636  005F  2861               	goto	u3780
  1637  0060                     u3781:
  1638  0060  2869               	goto	l2346
  1639  0061                     u3780:
  1640  0061                     l2344:
  1641  0061  3000               	movlw	0
  1642  0062  00CB               	movwf	___flmul@a+3
  1643  0063  3000               	movlw	0
  1644  0064  00CA               	movwf	___flmul@a+2
  1645  0065  3000               	movlw	0
  1646  0066  00C9               	movwf	___flmul@a+1
  1647  0067  3000               	movlw	0
  1648  0068  00C8               	movwf	___flmul@a
  1649  0069                     l2346:
  1650  0069  17CA               	bsf	___flmul@a+2,7
  1651  006A  2873               	goto	l2350
  1652  006B                     l2348:
  1653  006B  3000               	movlw	0
  1654  006C  00CB               	movwf	___flmul@a+3
  1655  006D  3000               	movlw	0
  1656  006E  00CA               	movwf	___flmul@a+2
  1657  006F  3000               	movlw	0
  1658  0070  00C9               	movwf	___flmul@a+1
  1659  0071  3000               	movlw	0
  1660  0072  00C8               	movwf	___flmul@a
  1661  0073                     l2350:
  1662  0073  0852               	movf	___flmul@aexp,w
  1663  0074  1903               	btfsc	3,2
  1664  0075  2877               	goto	u3791
  1665  0076  2878               	goto	u3790
  1666  0077                     u3791:
  1667  0077  287D               	goto	l2354
  1668  0078                     u3790:
  1669  0078                     l2352:
  1670  0078  0857               	movf	___flmul@bexp,w
  1671  0079  1D03               	btfss	3,2
  1672  007A  287C               	goto	u3801
  1673  007B  287D               	goto	u3800
  1674  007C                     u3801:
  1675  007C  2886               	goto	l2358
  1676  007D                     u3800:
  1677  007D                     l2354:
  1678  007D  3000               	movlw	0
  1679  007E  00C7               	movwf	?___flmul+3
  1680  007F  3000               	movlw	0
  1681  0080  00C6               	movwf	?___flmul+2
  1682  0081  3000               	movlw	0
  1683  0082  00C5               	movwf	?___flmul+1
  1684  0083  3000               	movlw	0
  1685  0084  00C4               	movwf	?___flmul
  1686  0085  2B79               	goto	l551
  1687  0086                     l2358:
  1688  0086  0844               	movf	___flmul@b,w
  1689  0087  00CC               	movwf	??___flmul
  1690  0088  084C               	movf	??___flmul,w
  1691  0089  00F3               	movwf	__Umul8_16@multiplicand
  1692  008A  084A               	movf	___flmul@a+2,w
  1693  008B  120A  158A  24B1  120A  118A  	fcall	__Umul8_16
  1694  0090  0874               	movf	?__Umul8_16+1,w
  1695  0091  1283               	bcf	3,5	;RP0=0, select bank0
  1696  0092  1303               	bcf	3,6	;RP1=0, select bank0
  1697  0093  00DD               	movwf	___flmul@temp+1
  1698  0094  0873               	movf	?__Umul8_16,w
  1699  0095  00DC               	movwf	___flmul@temp
  1700  0096                     l2360:
  1701  0096  085C               	movf	___flmul@temp,w
  1702  0097  00CC               	movwf	??___flmul
  1703  0098  01CD               	clrf	??___flmul+1
  1704  0099  01CE               	clrf	??___flmul+2
  1705  009A  01CF               	clrf	??___flmul+3
  1706  009B  084F               	movf	??___flmul+3,w
  1707  009C  00D6               	movwf	___flmul@grs+3
  1708  009D  084E               	movf	??___flmul+2,w
  1709  009E  00D5               	movwf	___flmul@grs+2
  1710  009F  084D               	movf	??___flmul+1,w
  1711  00A0  00D4               	movwf	___flmul@grs+1
  1712  00A1  084C               	movf	??___flmul,w
  1713  00A2  00D3               	movwf	___flmul@grs
  1714  00A3                     l2362:
  1715  00A3  085D               	movf	___flmul@temp+1,w
  1716  00A4  00CC               	movwf	??___flmul
  1717  00A5  01CD               	clrf	??___flmul+1
  1718  00A6  01CE               	clrf	??___flmul+2
  1719  00A7  01CF               	clrf	??___flmul+3
  1720  00A8  084F               	movf	??___flmul+3,w
  1721  00A9  00DB               	movwf	___flmul@prod+3
  1722  00AA  084E               	movf	??___flmul+2,w
  1723  00AB  00DA               	movwf	___flmul@prod+2
  1724  00AC  084D               	movf	??___flmul+1,w
  1725  00AD  00D9               	movwf	___flmul@prod+1
  1726  00AE  084C               	movf	??___flmul,w
  1727  00AF  00D8               	movwf	___flmul@prod
  1728  00B0  0845               	movf	___flmul@b+1,w
  1729  00B1  00CC               	movwf	??___flmul
  1730  00B2  084C               	movf	??___flmul,w
  1731  00B3  00F3               	movwf	__Umul8_16@multiplicand
  1732  00B4  0849               	movf	___flmul@a+1,w
  1733  00B5  120A  158A  24B1  120A  118A  	fcall	__Umul8_16
  1734  00BA  0874               	movf	?__Umul8_16+1,w
  1735  00BB  1283               	bcf	3,5	;RP0=0, select bank0
  1736  00BC  1303               	bcf	3,6	;RP1=0, select bank0
  1737  00BD  00DD               	movwf	___flmul@temp+1
  1738  00BE  0873               	movf	?__Umul8_16,w
  1739  00BF  00DC               	movwf	___flmul@temp
  1740  00C0                     l2364:
  1741  00C0  085C               	movf	___flmul@temp,w
  1742  00C1  00CC               	movwf	??___flmul
  1743  00C2  01CD               	clrf	??___flmul+1
  1744  00C3  01CE               	clrf	??___flmul+2
  1745  00C4  01CF               	clrf	??___flmul+3
  1746  00C5  084C               	movf	??___flmul,w
  1747  00C6  07D3               	addwf	___flmul@grs,f
  1748  00C7  084D               	movf	??___flmul+1,w
  1749  00C8  1103               	clrz
  1750  00C9  1803               	skipnc
  1751  00CA  3E01               	addlw	1
  1752  00CB  1903               	skipnz
  1753  00CC  28CE               	goto	u3811
  1754  00CD  07D4               	addwf	___flmul@grs+1,f
  1755  00CE                     u3811:
  1756  00CE  084E               	movf	??___flmul+2,w
  1757  00CF  1103               	clrz
  1758  00D0  1803               	skipnc
  1759  00D1  3E01               	addlw	1
  1760  00D2  1903               	skipnz
  1761  00D3  28D5               	goto	u3812
  1762  00D4  07D5               	addwf	___flmul@grs+2,f
  1763  00D5                     u3812:
  1764  00D5  084F               	movf	??___flmul+3,w
  1765  00D6  1103               	clrz
  1766  00D7  1803               	skipnc
  1767  00D8  3E01               	addlw	1
  1768  00D9  1903               	skipnz
  1769  00DA  28DC               	goto	u3813
  1770  00DB  07D6               	addwf	___flmul@grs+3,f
  1771  00DC                     u3813:
  1772  00DC                     l2366:
  1773  00DC  085D               	movf	___flmul@temp+1,w
  1774  00DD  00CC               	movwf	??___flmul
  1775  00DE  01CD               	clrf	??___flmul+1
  1776  00DF  01CE               	clrf	??___flmul+2
  1777  00E0  01CF               	clrf	??___flmul+3
  1778  00E1  084C               	movf	??___flmul,w
  1779  00E2  07D8               	addwf	___flmul@prod,f
  1780  00E3  084D               	movf	??___flmul+1,w
  1781  00E4  1103               	clrz
  1782  00E5  1803               	skipnc
  1783  00E6  3E01               	addlw	1
  1784  00E7  1903               	skipnz
  1785  00E8  28EA               	goto	u3821
  1786  00E9  07D9               	addwf	___flmul@prod+1,f
  1787  00EA                     u3821:
  1788  00EA  084E               	movf	??___flmul+2,w
  1789  00EB  1103               	clrz
  1790  00EC  1803               	skipnc
  1791  00ED  3E01               	addlw	1
  1792  00EE  1903               	skipnz
  1793  00EF  28F1               	goto	u3822
  1794  00F0  07DA               	addwf	___flmul@prod+2,f
  1795  00F1                     u3822:
  1796  00F1  084F               	movf	??___flmul+3,w
  1797  00F2  1103               	clrz
  1798  00F3  1803               	skipnc
  1799  00F4  3E01               	addlw	1
  1800  00F5  1903               	skipnz
  1801  00F6  28F8               	goto	u3823
  1802  00F7  07DB               	addwf	___flmul@prod+3,f
  1803  00F8                     u3823:
  1804  00F8  0846               	movf	___flmul@b+2,w
  1805  00F9  00CC               	movwf	??___flmul
  1806  00FA  084C               	movf	??___flmul,w
  1807  00FB  00F3               	movwf	__Umul8_16@multiplicand
  1808  00FC  0848               	movf	___flmul@a,w
  1809  00FD  120A  158A  24B1  120A  118A  	fcall	__Umul8_16
  1810  0102  0874               	movf	?__Umul8_16+1,w
  1811  0103  1283               	bcf	3,5	;RP0=0, select bank0
  1812  0104  1303               	bcf	3,6	;RP1=0, select bank0
  1813  0105  00DD               	movwf	___flmul@temp+1
  1814  0106  0873               	movf	?__Umul8_16,w
  1815  0107  00DC               	movwf	___flmul@temp
  1816  0108                     l2368:
  1817  0108  085C               	movf	___flmul@temp,w
  1818  0109  00CC               	movwf	??___flmul
  1819  010A  01CD               	clrf	??___flmul+1
  1820  010B  01CE               	clrf	??___flmul+2
  1821  010C  01CF               	clrf	??___flmul+3
  1822  010D  084C               	movf	??___flmul,w
  1823  010E  07D3               	addwf	___flmul@grs,f
  1824  010F  084D               	movf	??___flmul+1,w
  1825  0110  1103               	clrz
  1826  0111  1803               	skipnc
  1827  0112  3E01               	addlw	1
  1828  0113  1903               	skipnz
  1829  0114  2916               	goto	u3831
  1830  0115  07D4               	addwf	___flmul@grs+1,f
  1831  0116                     u3831:
  1832  0116  084E               	movf	??___flmul+2,w
  1833  0117  1103               	clrz
  1834  0118  1803               	skipnc
  1835  0119  3E01               	addlw	1
  1836  011A  1903               	skipnz
  1837  011B  291D               	goto	u3832
  1838  011C  07D5               	addwf	___flmul@grs+2,f
  1839  011D                     u3832:
  1840  011D  084F               	movf	??___flmul+3,w
  1841  011E  1103               	clrz
  1842  011F  1803               	skipnc
  1843  0120  3E01               	addlw	1
  1844  0121  1903               	skipnz
  1845  0122  2924               	goto	u3833
  1846  0123  07D6               	addwf	___flmul@grs+3,f
  1847  0124                     u3833:
  1848  0124                     l2370:
  1849  0124  085D               	movf	___flmul@temp+1,w
  1850  0125  00CC               	movwf	??___flmul
  1851  0126  01CD               	clrf	??___flmul+1
  1852  0127  01CE               	clrf	??___flmul+2
  1853  0128  01CF               	clrf	??___flmul+3
  1854  0129  084C               	movf	??___flmul,w
  1855  012A  07D8               	addwf	___flmul@prod,f
  1856  012B  084D               	movf	??___flmul+1,w
  1857  012C  1103               	clrz
  1858  012D  1803               	skipnc
  1859  012E  3E01               	addlw	1
  1860  012F  1903               	skipnz
  1861  0130  2932               	goto	u3841
  1862  0131  07D9               	addwf	___flmul@prod+1,f
  1863  0132                     u3841:
  1864  0132  084E               	movf	??___flmul+2,w
  1865  0133  1103               	clrz
  1866  0134  1803               	skipnc
  1867  0135  3E01               	addlw	1
  1868  0136  1903               	skipnz
  1869  0137  2939               	goto	u3842
  1870  0138  07DA               	addwf	___flmul@prod+2,f
  1871  0139                     u3842:
  1872  0139  084F               	movf	??___flmul+3,w
  1873  013A  1103               	clrz
  1874  013B  1803               	skipnc
  1875  013C  3E01               	addlw	1
  1876  013D  1903               	skipnz
  1877  013E  2940               	goto	u3843
  1878  013F  07DB               	addwf	___flmul@prod+3,f
  1879  0140                     u3843:
  1880  0140                     l2372:
  1881  0140  3008               	movlw	8
  1882  0141  00CC               	movwf	??___flmul
  1883  0142                     u3855:
  1884  0142  1003               	clrc
  1885  0143  0DD3               	rlf	___flmul@grs,f
  1886  0144  0DD4               	rlf	___flmul@grs+1,f
  1887  0145  0DD5               	rlf	___flmul@grs+2,f
  1888  0146  0DD6               	rlf	___flmul@grs+3,f
  1889  0147  0BCC               	decfsz	??___flmul,f
  1890  0148  2942               	goto	u3855
  1891  0149                     l2374:
  1892  0149  0845               	movf	___flmul@b+1,w
  1893  014A  00CC               	movwf	??___flmul
  1894  014B  084C               	movf	??___flmul,w
  1895  014C  00F3               	movwf	__Umul8_16@multiplicand
  1896  014D  0848               	movf	___flmul@a,w
  1897  014E  120A  158A  24B1  120A  118A  	fcall	__Umul8_16
  1898  0153  0874               	movf	?__Umul8_16+1,w
  1899  0154  1283               	bcf	3,5	;RP0=0, select bank0
  1900  0155  1303               	bcf	3,6	;RP1=0, select bank0
  1901  0156  00DD               	movwf	___flmul@temp+1
  1902  0157  0873               	movf	?__Umul8_16,w
  1903  0158  00DC               	movwf	___flmul@temp
  1904  0159                     l2376:
  1905  0159  085C               	movf	___flmul@temp,w
  1906  015A  00CC               	movwf	??___flmul
  1907  015B  085D               	movf	___flmul@temp+1,w
  1908  015C  00CD               	movwf	??___flmul+1
  1909  015D  01CE               	clrf	??___flmul+2
  1910  015E  01CF               	clrf	??___flmul+3
  1911  015F  084C               	movf	??___flmul,w
  1912  0160  07D3               	addwf	___flmul@grs,f
  1913  0161  084D               	movf	??___flmul+1,w
  1914  0162  1103               	clrz
  1915  0163  1803               	skipnc
  1916  0164  3E01               	addlw	1
  1917  0165  1903               	skipnz
  1918  0166  2968               	goto	u3861
  1919  0167  07D4               	addwf	___flmul@grs+1,f
  1920  0168                     u3861:
  1921  0168  084E               	movf	??___flmul+2,w
  1922  0169  1103               	clrz
  1923  016A  1803               	skipnc
  1924  016B  3E01               	addlw	1
  1925  016C  1903               	skipnz
  1926  016D  296F               	goto	u3862
  1927  016E  07D5               	addwf	___flmul@grs+2,f
  1928  016F                     u3862:
  1929  016F  084F               	movf	??___flmul+3,w
  1930  0170  1103               	clrz
  1931  0171  1803               	skipnc
  1932  0172  3E01               	addlw	1
  1933  0173  1903               	skipnz
  1934  0174  2976               	goto	u3863
  1935  0175  07D6               	addwf	___flmul@grs+3,f
  1936  0176                     u3863:
  1937  0176                     l2378:
  1938  0176  0844               	movf	___flmul@b,w
  1939  0177  00CC               	movwf	??___flmul
  1940  0178  084C               	movf	??___flmul,w
  1941  0179  00F3               	movwf	__Umul8_16@multiplicand
  1942  017A  0849               	movf	___flmul@a+1,w
  1943  017B  120A  158A  24B1  120A  118A  	fcall	__Umul8_16
  1944  0180  0874               	movf	?__Umul8_16+1,w
  1945  0181  1283               	bcf	3,5	;RP0=0, select bank0
  1946  0182  1303               	bcf	3,6	;RP1=0, select bank0
  1947  0183  00DD               	movwf	___flmul@temp+1
  1948  0184  0873               	movf	?__Umul8_16,w
  1949  0185  00DC               	movwf	___flmul@temp
  1950  0186                     l2380:
  1951  0186  085C               	movf	___flmul@temp,w
  1952  0187  00CC               	movwf	??___flmul
  1953  0188  085D               	movf	___flmul@temp+1,w
  1954  0189  00CD               	movwf	??___flmul+1
  1955  018A  01CE               	clrf	??___flmul+2
  1956  018B  01CF               	clrf	??___flmul+3
  1957  018C  084C               	movf	??___flmul,w
  1958  018D  07D3               	addwf	___flmul@grs,f
  1959  018E  084D               	movf	??___flmul+1,w
  1960  018F  1103               	clrz
  1961  0190  1803               	skipnc
  1962  0191  3E01               	addlw	1
  1963  0192  1903               	skipnz
  1964  0193  2995               	goto	u3871
  1965  0194  07D4               	addwf	___flmul@grs+1,f
  1966  0195                     u3871:
  1967  0195  084E               	movf	??___flmul+2,w
  1968  0196  1103               	clrz
  1969  0197  1803               	skipnc
  1970  0198  3E01               	addlw	1
  1971  0199  1903               	skipnz
  1972  019A  299C               	goto	u3872
  1973  019B  07D5               	addwf	___flmul@grs+2,f
  1974  019C                     u3872:
  1975  019C  084F               	movf	??___flmul+3,w
  1976  019D  1103               	clrz
  1977  019E  1803               	skipnc
  1978  019F  3E01               	addlw	1
  1979  01A0  1903               	skipnz
  1980  01A1  29A3               	goto	u3873
  1981  01A2  07D6               	addwf	___flmul@grs+3,f
  1982  01A3                     u3873:
  1983  01A3                     l2382:
  1984  01A3  3008               	movlw	8
  1985  01A4  00CC               	movwf	??___flmul
  1986  01A5                     u3885:
  1987  01A5  1003               	clrc
  1988  01A6  0DD3               	rlf	___flmul@grs,f
  1989  01A7  0DD4               	rlf	___flmul@grs+1,f
  1990  01A8  0DD5               	rlf	___flmul@grs+2,f
  1991  01A9  0DD6               	rlf	___flmul@grs+3,f
  1992  01AA  0BCC               	decfsz	??___flmul,f
  1993  01AB  29A5               	goto	u3885
  1994  01AC  0844               	movf	___flmul@b,w
  1995  01AD  00CC               	movwf	??___flmul
  1996  01AE  084C               	movf	??___flmul,w
  1997  01AF  00F3               	movwf	__Umul8_16@multiplicand
  1998  01B0  0848               	movf	___flmul@a,w
  1999  01B1  120A  158A  24B1  120A  118A  	fcall	__Umul8_16
  2000  01B6  0874               	movf	?__Umul8_16+1,w
  2001  01B7  1283               	bcf	3,5	;RP0=0, select bank0
  2002  01B8  1303               	bcf	3,6	;RP1=0, select bank0
  2003  01B9  00DD               	movwf	___flmul@temp+1
  2004  01BA  0873               	movf	?__Umul8_16,w
  2005  01BB  00DC               	movwf	___flmul@temp
  2006  01BC                     l2384:
  2007  01BC  085C               	movf	___flmul@temp,w
  2008  01BD  00CC               	movwf	??___flmul
  2009  01BE  085D               	movf	___flmul@temp+1,w
  2010  01BF  00CD               	movwf	??___flmul+1
  2011  01C0  01CE               	clrf	??___flmul+2
  2012  01C1  01CF               	clrf	??___flmul+3
  2013  01C2  084C               	movf	??___flmul,w
  2014  01C3  07D3               	addwf	___flmul@grs,f
  2015  01C4  084D               	movf	??___flmul+1,w
  2016  01C5  1103               	clrz
  2017  01C6  1803               	skipnc
  2018  01C7  3E01               	addlw	1
  2019  01C8  1903               	skipnz
  2020  01C9  29CB               	goto	u3891
  2021  01CA  07D4               	addwf	___flmul@grs+1,f
  2022  01CB                     u3891:
  2023  01CB  084E               	movf	??___flmul+2,w
  2024  01CC  1103               	clrz
  2025  01CD  1803               	skipnc
  2026  01CE  3E01               	addlw	1
  2027  01CF  1903               	skipnz
  2028  01D0  29D2               	goto	u3892
  2029  01D1  07D5               	addwf	___flmul@grs+2,f
  2030  01D2                     u3892:
  2031  01D2  084F               	movf	??___flmul+3,w
  2032  01D3  1103               	clrz
  2033  01D4  1803               	skipnc
  2034  01D5  3E01               	addlw	1
  2035  01D6  1903               	skipnz
  2036  01D7  29D9               	goto	u3893
  2037  01D8  07D6               	addwf	___flmul@grs+3,f
  2038  01D9                     u3893:
  2039  01D9                     l2386:
  2040  01D9  0845               	movf	___flmul@b+1,w
  2041  01DA  00CC               	movwf	??___flmul
  2042  01DB  084C               	movf	??___flmul,w
  2043  01DC  00F3               	movwf	__Umul8_16@multiplicand
  2044  01DD  084A               	movf	___flmul@a+2,w
  2045  01DE  120A  158A  24B1  120A  118A  	fcall	__Umul8_16
  2046  01E3  0874               	movf	?__Umul8_16+1,w
  2047  01E4  1283               	bcf	3,5	;RP0=0, select bank0
  2048  01E5  1303               	bcf	3,6	;RP1=0, select bank0
  2049  01E6  00DD               	movwf	___flmul@temp+1
  2050  01E7  0873               	movf	?__Umul8_16,w
  2051  01E8  00DC               	movwf	___flmul@temp
  2052  01E9  085C               	movf	___flmul@temp,w
  2053  01EA  00CC               	movwf	??___flmul
  2054  01EB  085D               	movf	___flmul@temp+1,w
  2055  01EC  00CD               	movwf	??___flmul+1
  2056  01ED  01CE               	clrf	??___flmul+2
  2057  01EE  01CF               	clrf	??___flmul+3
  2058  01EF  084C               	movf	??___flmul,w
  2059  01F0  07D8               	addwf	___flmul@prod,f
  2060  01F1  084D               	movf	??___flmul+1,w
  2061  01F2  1103               	clrz
  2062  01F3  1803               	skipnc
  2063  01F4  3E01               	addlw	1
  2064  01F5  1903               	skipnz
  2065  01F6  29F8               	goto	u3901
  2066  01F7  07D9               	addwf	___flmul@prod+1,f
  2067  01F8                     u3901:
  2068  01F8  084E               	movf	??___flmul+2,w
  2069  01F9  1103               	clrz
  2070  01FA  1803               	skipnc
  2071  01FB  3E01               	addlw	1
  2072  01FC  1903               	skipnz
  2073  01FD  29FF               	goto	u3902
  2074  01FE  07DA               	addwf	___flmul@prod+2,f
  2075  01FF                     u3902:
  2076  01FF  084F               	movf	??___flmul+3,w
  2077  0200  1103               	clrz
  2078  0201  1803               	skipnc
  2079  0202  3E01               	addlw	1
  2080  0203  1903               	skipnz
  2081  0204  2A06               	goto	u3903
  2082  0205  07DB               	addwf	___flmul@prod+3,f
  2083  0206                     u3903:
  2084  0206                     l2388:
  2085  0206  0846               	movf	___flmul@b+2,w
  2086  0207  00CC               	movwf	??___flmul
  2087  0208  084C               	movf	??___flmul,w
  2088  0209  00F3               	movwf	__Umul8_16@multiplicand
  2089  020A  0849               	movf	___flmul@a+1,w
  2090  020B  120A  158A  24B1  120A  118A  	fcall	__Umul8_16
  2091  0210  0874               	movf	?__Umul8_16+1,w
  2092  0211  1283               	bcf	3,5	;RP0=0, select bank0
  2093  0212  1303               	bcf	3,6	;RP1=0, select bank0
  2094  0213  00DD               	movwf	___flmul@temp+1
  2095  0214  0873               	movf	?__Umul8_16,w
  2096  0215  00DC               	movwf	___flmul@temp
  2097  0216                     l2390:
  2098  0216  085C               	movf	___flmul@temp,w
  2099  0217  00CC               	movwf	??___flmul
  2100  0218  085D               	movf	___flmul@temp+1,w
  2101  0219  00CD               	movwf	??___flmul+1
  2102  021A  01CE               	clrf	??___flmul+2
  2103  021B  01CF               	clrf	??___flmul+3
  2104  021C  084C               	movf	??___flmul,w
  2105  021D  07D8               	addwf	___flmul@prod,f
  2106  021E  084D               	movf	??___flmul+1,w
  2107  021F  1103               	clrz
  2108  0220  1803               	skipnc
  2109  0221  3E01               	addlw	1
  2110  0222  1903               	skipnz
  2111  0223  2A25               	goto	u3911
  2112  0224  07D9               	addwf	___flmul@prod+1,f
  2113  0225                     u3911:
  2114  0225  084E               	movf	??___flmul+2,w
  2115  0226  1103               	clrz
  2116  0227  1803               	skipnc
  2117  0228  3E01               	addlw	1
  2118  0229  1903               	skipnz
  2119  022A  2A2C               	goto	u3912
  2120  022B  07DA               	addwf	___flmul@prod+2,f
  2121  022C                     u3912:
  2122  022C  084F               	movf	??___flmul+3,w
  2123  022D  1103               	clrz
  2124  022E  1803               	skipnc
  2125  022F  3E01               	addlw	1
  2126  0230  1903               	skipnz
  2127  0231  2A33               	goto	u3913
  2128  0232  07DB               	addwf	___flmul@prod+3,f
  2129  0233                     u3913:
  2130  0233  0846               	movf	___flmul@b+2,w
  2131  0234  00CC               	movwf	??___flmul
  2132  0235  084C               	movf	??___flmul,w
  2133  0236  00F3               	movwf	__Umul8_16@multiplicand
  2134  0237  084A               	movf	___flmul@a+2,w
  2135  0238  120A  158A  24B1  120A  118A  	fcall	__Umul8_16
  2136  023D  0874               	movf	?__Umul8_16+1,w
  2137  023E  1283               	bcf	3,5	;RP0=0, select bank0
  2138  023F  1303               	bcf	3,6	;RP1=0, select bank0
  2139  0240  00DD               	movwf	___flmul@temp+1
  2140  0241  0873               	movf	?__Umul8_16,w
  2141  0242  00DC               	movwf	___flmul@temp
  2142  0243                     l2392:
  2143  0243  085C               	movf	___flmul@temp,w
  2144  0244  00CC               	movwf	??___flmul
  2145  0245  085D               	movf	___flmul@temp+1,w
  2146  0246  00CD               	movwf	??___flmul+1
  2147  0247  01CE               	clrf	??___flmul+2
  2148  0248  01CF               	clrf	??___flmul+3
  2149  0249  3008               	movlw	8
  2150  024A                     u3925:
  2151  024A  1003               	clrc
  2152  024B  0DCC               	rlf	??___flmul,f
  2153  024C  0DCD               	rlf	??___flmul+1,f
  2154  024D  0DCE               	rlf	??___flmul+2,f
  2155  024E  0DCF               	rlf	??___flmul+3,f
  2156  024F                     u3920:
  2157  024F  3EFF               	addlw	-1
  2158  0250  1D03               	skipz
  2159  0251  2A4A               	goto	u3925
  2160  0252  084C               	movf	??___flmul,w
  2161  0253  07D8               	addwf	___flmul@prod,f
  2162  0254  084D               	movf	??___flmul+1,w
  2163  0255  1103               	clrz
  2164  0256  1803               	skipnc
  2165  0257  3E01               	addlw	1
  2166  0258  1903               	skipnz
  2167  0259  2A5B               	goto	u3931
  2168  025A  07D9               	addwf	___flmul@prod+1,f
  2169  025B                     u3931:
  2170  025B  084E               	movf	??___flmul+2,w
  2171  025C  1103               	clrz
  2172  025D  1803               	skipnc
  2173  025E  3E01               	addlw	1
  2174  025F  1903               	skipnz
  2175  0260  2A62               	goto	u3932
  2176  0261  07DA               	addwf	___flmul@prod+2,f
  2177  0262                     u3932:
  2178  0262  084F               	movf	??___flmul+3,w
  2179  0263  1103               	clrz
  2180  0264  1803               	skipnc
  2181  0265  3E01               	addlw	1
  2182  0266  1903               	skipnz
  2183  0267  2A69               	goto	u3933
  2184  0268  07DB               	addwf	___flmul@prod+3,f
  2185  0269                     u3933:
  2186  0269                     l2394:
  2187  0269  0853               	movf	___flmul@grs,w
  2188  026A  00CC               	movwf	??___flmul
  2189  026B  0854               	movf	___flmul@grs+1,w
  2190  026C  00CD               	movwf	??___flmul+1
  2191  026D  0855               	movf	___flmul@grs+2,w
  2192  026E  00CE               	movwf	??___flmul+2
  2193  026F  0856               	movf	___flmul@grs+3,w
  2194  0270  00CF               	movwf	??___flmul+3
  2195  0271  3018               	movlw	24
  2196  0272                     u3945:
  2197  0272  1003               	clrc
  2198  0273  0CCF               	rrf	??___flmul+3,f
  2199  0274  0CCE               	rrf	??___flmul+2,f
  2200  0275  0CCD               	rrf	??___flmul+1,f
  2201  0276  0CCC               	rrf	??___flmul,f
  2202  0277                     u3940:
  2203  0277  3EFF               	addlw	-1
  2204  0278  1D03               	skipz
  2205  0279  2A72               	goto	u3945
  2206  027A  084C               	movf	??___flmul,w
  2207  027B  07D8               	addwf	___flmul@prod,f
  2208  027C  084D               	movf	??___flmul+1,w
  2209  027D  1103               	clrz
  2210  027E  1803               	skipnc
  2211  027F  3E01               	addlw	1
  2212  0280  1903               	skipnz
  2213  0281  2A83               	goto	u3951
  2214  0282  07D9               	addwf	___flmul@prod+1,f
  2215  0283                     u3951:
  2216  0283  084E               	movf	??___flmul+2,w
  2217  0284  1103               	clrz
  2218  0285  1803               	skipnc
  2219  0286  3E01               	addlw	1
  2220  0287  1903               	skipnz
  2221  0288  2A8A               	goto	u3952
  2222  0289  07DA               	addwf	___flmul@prod+2,f
  2223  028A                     u3952:
  2224  028A  084F               	movf	??___flmul+3,w
  2225  028B  1103               	clrz
  2226  028C  1803               	skipnc
  2227  028D  3E01               	addlw	1
  2228  028E  1903               	skipnz
  2229  028F  2A91               	goto	u3953
  2230  0290  07DB               	addwf	___flmul@prod+3,f
  2231  0291                     u3953:
  2232  0291                     l2396:
  2233  0291  3008               	movlw	8
  2234  0292  00CC               	movwf	??___flmul
  2235  0293                     u3965:
  2236  0293  1003               	clrc
  2237  0294  0DD3               	rlf	___flmul@grs,f
  2238  0295  0DD4               	rlf	___flmul@grs+1,f
  2239  0296  0DD5               	rlf	___flmul@grs+2,f
  2240  0297  0DD6               	rlf	___flmul@grs+3,f
  2241  0298  0BCC               	decfsz	??___flmul,f
  2242  0299  2A93               	goto	u3965
  2243  029A                     l2398:
  2244  029A  0857               	movf	___flmul@bexp,w
  2245  029B  0752               	addwf	___flmul@aexp,w
  2246  029C  00CC               	movwf	??___flmul
  2247  029D  01CD               	clrf	??___flmul+1
  2248  029E  0DCD               	rlf	??___flmul+1,f
  2249  029F  084C               	movf	??___flmul,w
  2250  02A0  3E82               	addlw	130
  2251  02A1  00DC               	movwf	___flmul@temp
  2252  02A2  084D               	movf	??___flmul+1,w
  2253  02A3  1803               	skipnc
  2254  02A4  3E01               	addlw	1
  2255  02A5  3EFF               	addlw	255
  2256  02A6  00DD               	movwf	___flmul@temp+1
  2257  02A7  2AC5               	goto	l2410
  2258  02A8                     l2400:
  2259  02A8  3001               	movlw	1
  2260  02A9  00CC               	movwf	??___flmul
  2261  02AA                     u3975:
  2262  02AA  1003               	clrc
  2263  02AB  0DD8               	rlf	___flmul@prod,f
  2264  02AC  0DD9               	rlf	___flmul@prod+1,f
  2265  02AD  0DDA               	rlf	___flmul@prod+2,f
  2266  02AE  0DDB               	rlf	___flmul@prod+3,f
  2267  02AF  0BCC               	decfsz	??___flmul,f
  2268  02B0  2AAA               	goto	u3975
  2269  02B1                     l2402:
  2270  02B1  1FD6               	btfss	___flmul@grs+3,7
  2271  02B2  2AB4               	goto	u3981
  2272  02B3  2AB5               	goto	u3980
  2273  02B4                     u3981:
  2274  02B4  2AB6               	goto	l2406
  2275  02B5                     u3980:
  2276  02B5                     l2404:
  2277  02B5  1458               	bsf	___flmul@prod,0
  2278  02B6                     l2406:
  2279  02B6  3001               	movlw	1
  2280  02B7  00CC               	movwf	??___flmul
  2281  02B8                     u3995:
  2282  02B8  1003               	clrc
  2283  02B9  0DD3               	rlf	___flmul@grs,f
  2284  02BA  0DD4               	rlf	___flmul@grs+1,f
  2285  02BB  0DD5               	rlf	___flmul@grs+2,f
  2286  02BC  0DD6               	rlf	___flmul@grs+3,f
  2287  02BD  0BCC               	decfsz	??___flmul,f
  2288  02BE  2AB8               	goto	u3995
  2289  02BF                     l2408:
  2290  02BF  30FF               	movlw	255
  2291  02C0  07DC               	addwf	___flmul@temp,f
  2292  02C1  1803               	skipnc
  2293  02C2  0ADD               	incf	___flmul@temp+1,f
  2294  02C3  30FF               	movlw	255
  2295  02C4  07DD               	addwf	___flmul@temp+1,f
  2296  02C5                     l2410:
  2297  02C5  1FDA               	btfss	___flmul@prod+2,7
  2298  02C6  2AC8               	goto	u4001
  2299  02C7  2AC9               	goto	u4000
  2300  02C8                     u4001:
  2301  02C8  2AA8               	goto	l2400
  2302  02C9                     u4000:
  2303  02C9                     l2412:
  2304  02C9  01D2               	clrf	___flmul@aexp
  2305  02CA                     l2414:
  2306  02CA  1FD6               	btfss	___flmul@grs+3,7
  2307  02CB  2ACD               	goto	u4011
  2308  02CC  2ACE               	goto	u4010
  2309  02CD                     u4011:
  2310  02CD  2AEA               	goto	l2422
  2311  02CE                     u4010:
  2312  02CE                     l2416:
  2313  02CE  30FF               	movlw	255
  2314  02CF  0553               	andwf	___flmul@grs,w
  2315  02D0  00CC               	movwf	??___flmul
  2316  02D1  30FF               	movlw	255
  2317  02D2  0554               	andwf	___flmul@grs+1,w
  2318  02D3  00CD               	movwf	??___flmul+1
  2319  02D4  30FF               	movlw	255
  2320  02D5  0555               	andwf	___flmul@grs+2,w
  2321  02D6  00CE               	movwf	??___flmul+2
  2322  02D7  307F               	movlw	127
  2323  02D8  0556               	andwf	___flmul@grs+3,w
  2324  02D9  00CF               	movwf	??___flmul+3
  2325  02DA  084F               	movf	??___flmul+3,w
  2326  02DB  044E               	iorwf	??___flmul+2,w
  2327  02DC  044D               	iorwf	??___flmul+1,w
  2328  02DD  044C               	iorwf	??___flmul,w
  2329  02DE  1903               	skipnz
  2330  02DF  2AE1               	goto	u4021
  2331  02E0  2AE2               	goto	u4020
  2332  02E1                     u4021:
  2333  02E1  2AE5               	goto	l557
  2334  02E2                     u4020:
  2335  02E2                     l2418:
  2336  02E2  01D2               	clrf	___flmul@aexp
  2337  02E3  0AD2               	incf	___flmul@aexp,f
  2338  02E4  2AEA               	goto	l2422
  2339  02E5                     l557:
  2340  02E5  1C58               	btfss	___flmul@prod,0
  2341  02E6  2AE8               	goto	u4031
  2342  02E7  2AE9               	goto	u4030
  2343  02E8                     u4031:
  2344  02E8  2AEA               	goto	l2422
  2345  02E9                     u4030:
  2346  02E9  2AE2               	goto	l2418
  2347  02EA                     l2422:
  2348  02EA  0852               	movf	___flmul@aexp,w
  2349  02EB  1903               	btfsc	3,2
  2350  02EC  2AEE               	goto	u4041
  2351  02ED  2AEF               	goto	u4040
  2352  02EE                     u4041:
  2353  02EE  2B20               	goto	l2432
  2354  02EF                     u4040:
  2355  02EF                     l2424:
  2356  02EF  3001               	movlw	1
  2357  02F0  07D8               	addwf	___flmul@prod,f
  2358  02F1  3000               	movlw	0
  2359  02F2  1803               	skipnc
  2360  02F3  3001               	movlw	1
  2361  02F4  07D9               	addwf	___flmul@prod+1,f
  2362  02F5  3000               	movlw	0
  2363  02F6  1803               	skipnc
  2364  02F7  3001               	movlw	1
  2365  02F8  07DA               	addwf	___flmul@prod+2,f
  2366  02F9  3000               	movlw	0
  2367  02FA  1803               	skipnc
  2368  02FB  3001               	movlw	1
  2369  02FC  07DB               	addwf	___flmul@prod+3,f
  2370  02FD                     l2426:
  2371  02FD  1C5B               	btfss	___flmul@prod+3,0
  2372  02FE  2B00               	goto	u4051
  2373  02FF  2B01               	goto	u4050
  2374  0300                     u4051:
  2375  0300  2B20               	goto	l2432
  2376  0301                     u4050:
  2377  0301                     l2428:
  2378  0301  0858               	movf	___flmul@prod,w
  2379  0302  00CC               	movwf	??___flmul
  2380  0303  0859               	movf	___flmul@prod+1,w
  2381  0304  00CD               	movwf	??___flmul+1
  2382  0305  085A               	movf	___flmul@prod+2,w
  2383  0306  00CE               	movwf	??___flmul+2
  2384  0307  085B               	movf	___flmul@prod+3,w
  2385  0308  00CF               	movwf	??___flmul+3
  2386  0309  3001               	movlw	1
  2387  030A  00D0               	movwf	??___flmul+4
  2388  030B                     u4065:
  2389  030B  0D4F               	rlf	??___flmul+3,w
  2390  030C  0CCF               	rrf	??___flmul+3,f
  2391  030D  0CCE               	rrf	??___flmul+2,f
  2392  030E  0CCD               	rrf	??___flmul+1,f
  2393  030F  0CCC               	rrf	??___flmul,f
  2394  0310                     u4060:
  2395  0310  0BD0               	decfsz	??___flmul+4,f
  2396  0311  2B0B               	goto	u4065
  2397  0312  084F               	movf	??___flmul+3,w
  2398  0313  00DB               	movwf	___flmul@prod+3
  2399  0314  084E               	movf	??___flmul+2,w
  2400  0315  00DA               	movwf	___flmul@prod+2
  2401  0316  084D               	movf	??___flmul+1,w
  2402  0317  00D9               	movwf	___flmul@prod+1
  2403  0318  084C               	movf	??___flmul,w
  2404  0319  00D8               	movwf	___flmul@prod
  2405  031A                     l2430:
  2406  031A  3001               	movlw	1
  2407  031B  07DC               	addwf	___flmul@temp,f
  2408  031C  1803               	skipnc
  2409  031D  0ADD               	incf	___flmul@temp+1,f
  2410  031E  3000               	movlw	0
  2411  031F  07DD               	addwf	___flmul@temp+1,f
  2412  0320                     l2432:
  2413  0320  085D               	movf	___flmul@temp+1,w
  2414  0321  3A80               	xorlw	128
  2415  0322  00FF               	movwf	btemp+1
  2416  0323  3080               	movlw	128
  2417  0324  027F               	subwf	btemp+1,w
  2418  0325  1D03               	skipz
  2419  0326  2B29               	goto	u4075
  2420  0327  30FF               	movlw	255
  2421  0328  025C               	subwf	___flmul@temp,w
  2422  0329                     u4075:
  2423  0329  1C03               	skipc
  2424  032A  2B2C               	goto	u4071
  2425  032B  2B2D               	goto	u4070
  2426  032C                     u4071:
  2427  032C  2B38               	goto	l2436
  2428  032D                     u4070:
  2429  032D                     l2434:
  2430  032D  307F               	movlw	127
  2431  032E  1283               	bcf	3,5	;RP0=0, select bank0
  2432  032F  1303               	bcf	3,6	;RP1=0, select bank0
  2433  0330  00DB               	movwf	___flmul@prod+3
  2434  0331  3080               	movlw	128
  2435  0332  00DA               	movwf	___flmul@prod+2
  2436  0333  3000               	movlw	0
  2437  0334  00D9               	movwf	___flmul@prod+1
  2438  0335  3000               	movlw	0
  2439  0336  00D8               	movwf	___flmul@prod
  2440  0337  2B6D               	goto	l563
  2441  0338                     l2436:
  2442  0338  1283               	bcf	3,5	;RP0=0, select bank0
  2443  0339  1303               	bcf	3,6	;RP1=0, select bank0
  2444  033A  085D               	movf	___flmul@temp+1,w
  2445  033B  3A80               	xorlw	128
  2446  033C  00FF               	movwf	btemp+1
  2447  033D  3080               	movlw	128
  2448  033E  027F               	subwf	btemp+1,w
  2449  033F  1D03               	skipz
  2450  0340  2B43               	goto	u4085
  2451  0341  3001               	movlw	1
  2452  0342  025C               	subwf	___flmul@temp,w
  2453  0343                     u4085:
  2454  0343  1803               	skipnc
  2455  0344  2B46               	goto	u4081
  2456  0345  2B47               	goto	u4080
  2457  0346                     u4081:
  2458  0346  2B53               	goto	l2442
  2459  0347                     u4080:
  2460  0347                     l2438:
  2461  0347  3000               	movlw	0
  2462  0348  1283               	bcf	3,5	;RP0=0, select bank0
  2463  0349  1303               	bcf	3,6	;RP1=0, select bank0
  2464  034A  00DB               	movwf	___flmul@prod+3
  2465  034B  3000               	movlw	0
  2466  034C  00DA               	movwf	___flmul@prod+2
  2467  034D  3000               	movlw	0
  2468  034E  00D9               	movwf	___flmul@prod+1
  2469  034F  3000               	movlw	0
  2470  0350  00D8               	movwf	___flmul@prod
  2471  0351                     l2440:
  2472  0351  01D1               	clrf	___flmul@sign
  2473  0352  2B6D               	goto	l563
  2474  0353                     l2442:
  2475  0353  1283               	bcf	3,5	;RP0=0, select bank0
  2476  0354  1303               	bcf	3,6	;RP1=0, select bank0
  2477  0355  085C               	movf	___flmul@temp,w
  2478  0356  00CC               	movwf	??___flmul
  2479  0357  084C               	movf	??___flmul,w
  2480  0358  00D7               	movwf	___flmul@bexp
  2481  0359  30FF               	movlw	255
  2482  035A  05D8               	andwf	___flmul@prod,f
  2483  035B  30FF               	movlw	255
  2484  035C  05D9               	andwf	___flmul@prod+1,f
  2485  035D  307F               	movlw	127
  2486  035E  05DA               	andwf	___flmul@prod+2,f
  2487  035F  3000               	movlw	0
  2488  0360  05DB               	andwf	___flmul@prod+3,f
  2489  0361                     l2444:
  2490  0361  1C57               	btfss	___flmul@bexp,0
  2491  0362  2B64               	goto	u4091
  2492  0363  2B65               	goto	u4090
  2493  0364                     u4091:
  2494  0364  2B66               	goto	l2448
  2495  0365                     u4090:
  2496  0365                     l2446:
  2497  0365  17DA               	bsf	___flmul@prod+2,7
  2498  0366                     l2448:
  2499  0366  0857               	movf	___flmul@bexp,w
  2500  0367  00CC               	movwf	??___flmul
  2501  0368  1003               	clrc
  2502  0369  0C4C               	rrf	??___flmul,w
  2503  036A  00CD               	movwf	??___flmul+1
  2504  036B  084D               	movf	??___flmul+1,w
  2505  036C  00DB               	movwf	___flmul@prod+3
  2506  036D                     l563:
  2507  036D  0851               	movf	___flmul@sign,w
  2508  036E  00CC               	movwf	??___flmul
  2509  036F  084C               	movf	??___flmul,w
  2510  0370  04DB               	iorwf	___flmul@prod+3,f
  2511  0371                     l2450:
  2512  0371  085B               	movf	___flmul@prod+3,w
  2513  0372  00C7               	movwf	?___flmul+3
  2514  0373  085A               	movf	___flmul@prod+2,w
  2515  0374  00C6               	movwf	?___flmul+2
  2516  0375  0859               	movf	___flmul@prod+1,w
  2517  0376  00C5               	movwf	?___flmul+1
  2518  0377  0858               	movf	___flmul@prod,w
  2519  0378  00C4               	movwf	?___flmul
  2520  0379                     l551:
  2521  0379  0008               	return
  2522  037A                     __end_of___flmul:
  2523                           
  2524                           	psect	text6
  2525  0CB1                     __ptext6:	
  2526 ;; *************** function __Umul8_16 *****************
  2527 ;; Defined at:
  2528 ;;		line 4 in file "C:\Program Files\Microchip\xc8\v2.35\pic\sources\c90\common\Umul8_16.c"
  2529 ;; Parameters:    Size  Location     Type
  2530 ;;  multiplier      1    wreg     unsigned char 
  2531 ;;  multiplicand    1    3[COMMON] unsigned char 
  2532 ;; Auto vars:     Size  Location     Type
  2533 ;;  multiplier      1    4[BANK0 ] unsigned char 
  2534 ;;  word_mpld       2    2[BANK0 ] unsigned int 
  2535 ;;  product         2    0[BANK0 ] unsigned int 
  2536 ;; Return value:  Size  Location     Type
  2537 ;;                  2    3[COMMON] unsigned int 
  2538 ;; Registers used:
  2539 ;;		wreg, status,2, status,0
  2540 ;; Tracked objects:
  2541 ;;		On entry : 0/0
  2542 ;;		On exit  : 0/0
  2543 ;;		Unchanged: 0/0
  2544 ;; Data sizes:     COMMON   BANK0   BANK1   BANK3   BANK2
  2545 ;;      Params:         2       0       0       0       0
  2546 ;;      Locals:         0       5       0       0       0
  2547 ;;      Temps:          2       0       0       0       0
  2548 ;;      Totals:         4       5       0       0       0
  2549 ;;Total ram usage:        9 bytes
  2550 ;; Hardware stack levels used: 1
  2551 ;; Hardware stack levels required when called: 1
  2552 ;; This function calls:
  2553 ;;		Nothing
  2554 ;; This function is called by:
  2555 ;;		___flmul
  2556 ;; This function uses a non-reentrant model
  2557 ;;
  2558                           
  2559  0CB1                     __Umul8_16:	
  2560                           ;psect for function __Umul8_16
  2561                           
  2562                           
  2563                           ;incstack = 0
  2564                           ; Regs used in __Umul8_16: [wreg+status,2+status,0]
  2565                           ;__Umul8_16@multiplier stored from wreg
  2566  0CB1  1283               	bcf	3,5	;RP0=0, select bank0
  2567  0CB2  1303               	bcf	3,6	;RP1=0, select bank0
  2568  0CB3  00A4               	movwf	__Umul8_16@multiplier
  2569  0CB4                     l1928:
  2570  0CB4  01A0               	clrf	__Umul8_16@product
  2571  0CB5  01A1               	clrf	__Umul8_16@product+1
  2572  0CB6                     l1930:
  2573  0CB6  0873               	movf	__Umul8_16@multiplicand,w
  2574  0CB7  00F5               	movwf	??__Umul8_16
  2575  0CB8  01F6               	clrf	??__Umul8_16+1
  2576  0CB9  0875               	movf	??__Umul8_16,w
  2577  0CBA  00A2               	movwf	__Umul8_16@word_mpld
  2578  0CBB  0876               	movf	??__Umul8_16+1,w
  2579  0CBC  00A3               	movwf	__Umul8_16@word_mpld+1
  2580  0CBD                     l1932:
  2581  0CBD  1C24               	btfss	__Umul8_16@multiplier,0
  2582  0CBE  2CC0               	goto	u2851
  2583  0CBF  2CC1               	goto	u2850
  2584  0CC0                     u2851:
  2585  0CC0  2CC7               	goto	l570
  2586  0CC1                     u2850:
  2587  0CC1                     l1934:
  2588  0CC1  0822               	movf	__Umul8_16@word_mpld,w
  2589  0CC2  07A0               	addwf	__Umul8_16@product,f
  2590  0CC3  1803               	skipnc
  2591  0CC4  0AA1               	incf	__Umul8_16@product+1,f
  2592  0CC5  0823               	movf	__Umul8_16@word_mpld+1,w
  2593  0CC6  07A1               	addwf	__Umul8_16@product+1,f
  2594  0CC7                     l570:
  2595  0CC7  3001               	movlw	1
  2596  0CC8                     u2865:
  2597  0CC8  1003               	clrc
  2598  0CC9  0DA2               	rlf	__Umul8_16@word_mpld,f
  2599  0CCA  0DA3               	rlf	__Umul8_16@word_mpld+1,f
  2600  0CCB  3EFF               	addlw	-1
  2601  0CCC  1D03               	skipz
  2602  0CCD  2CC8               	goto	u2865
  2603  0CCE  1003               	clrc
  2604  0CCF  0CA4               	rrf	__Umul8_16@multiplier,f
  2605  0CD0                     l1936:
  2606  0CD0  0824               	movf	__Umul8_16@multiplier,w
  2607  0CD1  1D03               	btfss	3,2
  2608  0CD2  2CD4               	goto	u2871
  2609  0CD3  2CD5               	goto	u2870
  2610  0CD4                     u2871:
  2611  0CD4  2CBD               	goto	l1932
  2612  0CD5                     u2870:
  2613  0CD5                     l1938:
  2614  0CD5  0821               	movf	__Umul8_16@product+1,w
  2615  0CD6  00F4               	movwf	?__Umul8_16+1
  2616  0CD7  0820               	movf	__Umul8_16@product,w
  2617  0CD8  00F3               	movwf	?__Umul8_16
  2618  0CD9                     l572:
  2619  0CD9  0008               	return
  2620  0CDA                     __end_of__Umul8_16:
  2621                           
  2622                           	psect	text7
  2623  0E23                     __ptext7:	
  2624 ;; *************** function ___fldiv *****************
  2625 ;; Defined at:
  2626 ;;		line 8 in file "C:\Program Files\Microchip\xc8\v2.35\pic\sources\c90\common\sprcdiv.c"
  2627 ;; Parameters:    Size  Location     Type
  2628 ;;  a               4   10[BANK0 ] unsigned int 
  2629 ;;  b               4   14[BANK0 ] unsigned int 
  2630 ;; Auto vars:     Size  Location     Type
  2631 ;;  grs             4   30[BANK0 ] unsigned long 
  2632 ;;  rem             4   23[BANK0 ] unsigned long 
  2633 ;;  new_exp         2   28[BANK0 ] int 
  2634 ;;  aexp            1   35[BANK0 ] unsigned char 
  2635 ;;  bexp            1   34[BANK0 ] unsigned char 
  2636 ;;  sign            1   27[BANK0 ] unsigned char 
  2637 ;; Return value:  Size  Location     Type
  2638 ;;                  4   10[BANK0 ] unsigned char 
  2639 ;; Registers used:
  2640 ;;		wreg, status,2, status,0, btemp+1
  2641 ;; Tracked objects:
  2642 ;;		On entry : 0/0
  2643 ;;		On exit  : 0/0
  2644 ;;		Unchanged: 0/0
  2645 ;; Data sizes:     COMMON   BANK0   BANK1   BANK3   BANK2
  2646 ;;      Params:         0       8       0       0       0
  2647 ;;      Locals:         0      13       0       0       0
  2648 ;;      Temps:          0       5       0       0       0
  2649 ;;      Totals:         0      26       0       0       0
  2650 ;;Total ram usage:       26 bytes
  2651 ;; Hardware stack levels used: 1
  2652 ;; Hardware stack levels required when called: 1
  2653 ;; This function calls:
  2654 ;;		Nothing
  2655 ;; This function is called by:
  2656 ;;		_map
  2657 ;; This function uses a non-reentrant model
  2658 ;;
  2659                           
  2660  0E23                     ___fldiv:	
  2661                           ;psect for function ___fldiv
  2662                           
  2663  0E23                     l2172:	
  2664                           ;incstack = 0
  2665                           ; Regs used in ___fldiv: [wreg+status,2+status,0+btemp+1]
  2666                           
  2667  0E23  1283               	bcf	3,5	;RP0=0, select bank0
  2668  0E24  1303               	bcf	3,6	;RP1=0, select bank0
  2669  0E25  0831               	movf	___fldiv@b+3,w
  2670  0E26  3980               	andlw	128
  2671  0E27  00B2               	movwf	??___fldiv
  2672  0E28  0832               	movf	??___fldiv,w
  2673  0E29  00BB               	movwf	___fldiv@sign
  2674  0E2A                     l2174:
  2675  0E2A  0831               	movf	___fldiv@b+3,w
  2676  0E2B  00B2               	movwf	??___fldiv
  2677  0E2C  0732               	addwf	??___fldiv,w
  2678  0E2D  00B3               	movwf	??___fldiv+1
  2679  0E2E  0833               	movf	??___fldiv+1,w
  2680  0E2F  00C2               	movwf	___fldiv@bexp
  2681  0E30                     l2176:
  2682  0E30  1FB0               	btfss	___fldiv@b+2,7
  2683  0E31  2E33               	goto	u3441
  2684  0E32  2E34               	goto	u3440
  2685  0E33                     u3441:
  2686  0E33  2E35               	goto	l2180
  2687  0E34                     u3440:
  2688  0E34                     l2178:
  2689  0E34  1442               	bsf	___fldiv@bexp,0
  2690  0E35                     l2180:
  2691  0E35  0842               	movf	___fldiv@bexp,w
  2692  0E36  1903               	btfsc	3,2
  2693  0E37  2E39               	goto	u3451
  2694  0E38  2E3A               	goto	u3450
  2695  0E39                     u3451:
  2696  0E39  2E4A               	goto	l2190
  2697  0E3A                     u3450:
  2698  0E3A                     l2182:
  2699  0E3A  0A42               	incf	___fldiv@bexp,w
  2700  0E3B  1D03               	btfss	3,2
  2701  0E3C  2E3E               	goto	u3461
  2702  0E3D  2E3F               	goto	u3460
  2703  0E3E                     u3461:
  2704  0E3E  2E47               	goto	l2186
  2705  0E3F                     u3460:
  2706  0E3F                     l2184:
  2707  0E3F  3000               	movlw	0
  2708  0E40  00B1               	movwf	___fldiv@b+3
  2709  0E41  3000               	movlw	0
  2710  0E42  00B0               	movwf	___fldiv@b+2
  2711  0E43  3000               	movlw	0
  2712  0E44  00AF               	movwf	___fldiv@b+1
  2713  0E45  3000               	movlw	0
  2714  0E46  00AE               	movwf	___fldiv@b
  2715  0E47                     l2186:
  2716  0E47  17B0               	bsf	___fldiv@b+2,7
  2717  0E48                     l2188:
  2718  0E48  01B1               	clrf	___fldiv@b+3
  2719  0E49  2E52               	goto	l2192
  2720  0E4A                     l2190:
  2721  0E4A  3000               	movlw	0
  2722  0E4B  00B1               	movwf	___fldiv@b+3
  2723  0E4C  3000               	movlw	0
  2724  0E4D  00B0               	movwf	___fldiv@b+2
  2725  0E4E  3000               	movlw	0
  2726  0E4F  00AF               	movwf	___fldiv@b+1
  2727  0E50  3000               	movlw	0
  2728  0E51  00AE               	movwf	___fldiv@b
  2729  0E52                     l2192:
  2730  0E52  082D               	movf	___fldiv@a+3,w
  2731  0E53  3980               	andlw	128
  2732  0E54  00B2               	movwf	??___fldiv
  2733  0E55  0832               	movf	??___fldiv,w
  2734  0E56  06BB               	xorwf	___fldiv@sign,f
  2735  0E57                     l2194:
  2736  0E57  082D               	movf	___fldiv@a+3,w
  2737  0E58  00B2               	movwf	??___fldiv
  2738  0E59  0732               	addwf	??___fldiv,w
  2739  0E5A  00B3               	movwf	??___fldiv+1
  2740  0E5B  0833               	movf	??___fldiv+1,w
  2741  0E5C  00C3               	movwf	___fldiv@aexp
  2742  0E5D                     l2196:
  2743  0E5D  1FAC               	btfss	___fldiv@a+2,7
  2744  0E5E  2E60               	goto	u3471
  2745  0E5F  2E61               	goto	u3470
  2746  0E60                     u3471:
  2747  0E60  2E62               	goto	l2200
  2748  0E61                     u3470:
  2749  0E61                     l2198:
  2750  0E61  1443               	bsf	___fldiv@aexp,0
  2751  0E62                     l2200:
  2752  0E62  0843               	movf	___fldiv@aexp,w
  2753  0E63  1903               	btfsc	3,2
  2754  0E64  2E66               	goto	u3481
  2755  0E65  2E67               	goto	u3480
  2756  0E66                     u3481:
  2757  0E66  2E77               	goto	l2210
  2758  0E67                     u3480:
  2759  0E67                     l2202:
  2760  0E67  0A43               	incf	___fldiv@aexp,w
  2761  0E68  1D03               	btfss	3,2
  2762  0E69  2E6B               	goto	u3491
  2763  0E6A  2E6C               	goto	u3490
  2764  0E6B                     u3491:
  2765  0E6B  2E74               	goto	l2206
  2766  0E6C                     u3490:
  2767  0E6C                     l2204:
  2768  0E6C  3000               	movlw	0
  2769  0E6D  00AD               	movwf	___fldiv@a+3
  2770  0E6E  3000               	movlw	0
  2771  0E6F  00AC               	movwf	___fldiv@a+2
  2772  0E70  3000               	movlw	0
  2773  0E71  00AB               	movwf	___fldiv@a+1
  2774  0E72  3000               	movlw	0
  2775  0E73  00AA               	movwf	___fldiv@a
  2776  0E74                     l2206:
  2777  0E74  17AC               	bsf	___fldiv@a+2,7
  2778  0E75                     l2208:
  2779  0E75  01AD               	clrf	___fldiv@a+3
  2780  0E76  2E7F               	goto	l511
  2781  0E77                     l2210:
  2782  0E77  3000               	movlw	0
  2783  0E78  00AD               	movwf	___fldiv@a+3
  2784  0E79  3000               	movlw	0
  2785  0E7A  00AC               	movwf	___fldiv@a+2
  2786  0E7B  3000               	movlw	0
  2787  0E7C  00AB               	movwf	___fldiv@a+1
  2788  0E7D  3000               	movlw	0
  2789  0E7E  00AA               	movwf	___fldiv@a
  2790  0E7F                     l511:
  2791  0E7F  082D               	movf	___fldiv@a+3,w
  2792  0E80  042C               	iorwf	___fldiv@a+2,w
  2793  0E81  042B               	iorwf	___fldiv@a+1,w
  2794  0E82  042A               	iorwf	___fldiv@a,w
  2795  0E83  1D03               	skipz
  2796  0E84  2E86               	goto	u3501
  2797  0E85  2E87               	goto	u3500
  2798  0E86                     u3501:
  2799  0E86  2EA0               	goto	l2220
  2800  0E87                     u3500:
  2801  0E87                     l2212:
  2802  0E87  3000               	movlw	0
  2803  0E88  00B1               	movwf	___fldiv@b+3
  2804  0E89  3000               	movlw	0
  2805  0E8A  00B0               	movwf	___fldiv@b+2
  2806  0E8B  3000               	movlw	0
  2807  0E8C  00AF               	movwf	___fldiv@b+1
  2808  0E8D  3000               	movlw	0
  2809  0E8E  00AE               	movwf	___fldiv@b
  2810  0E8F  3080               	movlw	128
  2811  0E90  04B0               	iorwf	___fldiv@b+2,f
  2812  0E91  307F               	movlw	127
  2813  0E92  04B1               	iorwf	___fldiv@b+3,f
  2814  0E93                     l2214:
  2815  0E93  083B               	movf	___fldiv@sign,w
  2816  0E94  00B2               	movwf	??___fldiv
  2817  0E95  0832               	movf	??___fldiv,w
  2818  0E96  04B1               	iorwf	___fldiv@b+3,f
  2819  0E97                     l2216:
  2820  0E97  0831               	movf	___fldiv@b+3,w
  2821  0E98  00AD               	movwf	?___fldiv+3
  2822  0E99  0830               	movf	___fldiv@b+2,w
  2823  0E9A  00AC               	movwf	?___fldiv+2
  2824  0E9B  082F               	movf	___fldiv@b+1,w
  2825  0E9C  00AB               	movwf	?___fldiv+1
  2826  0E9D  082E               	movf	___fldiv@b,w
  2827  0E9E  00AA               	movwf	?___fldiv
  2828  0E9F  2FFF               	goto	l513
  2829  0EA0                     l2220:
  2830  0EA0  0842               	movf	___fldiv@bexp,w
  2831  0EA1  1D03               	btfss	3,2
  2832  0EA2  2EA4               	goto	u3511
  2833  0EA3  2EA5               	goto	u3510
  2834  0EA4                     u3511:
  2835  0EA4  2EAE               	goto	l2226
  2836  0EA5                     u3510:
  2837  0EA5                     l2222:
  2838  0EA5  3000               	movlw	0
  2839  0EA6  00AD               	movwf	?___fldiv+3
  2840  0EA7  3000               	movlw	0
  2841  0EA8  00AC               	movwf	?___fldiv+2
  2842  0EA9  3000               	movlw	0
  2843  0EAA  00AB               	movwf	?___fldiv+1
  2844  0EAB  3000               	movlw	0
  2845  0EAC  00AA               	movwf	?___fldiv
  2846  0EAD  2FFF               	goto	l513
  2847  0EAE                     l2226:
  2848  0EAE  0842               	movf	___fldiv@bexp,w
  2849  0EAF  00B2               	movwf	??___fldiv
  2850  0EB0  01B3               	clrf	??___fldiv+1
  2851  0EB1  0833               	movf	??___fldiv+1,w
  2852  0EB2  00B5               	movwf	??___fldiv+3
  2853  0EB3  0843               	movf	___fldiv@aexp,w
  2854  0EB4  0232               	subwf	??___fldiv,w
  2855  0EB5  00B4               	movwf	??___fldiv+2
  2856  0EB6  1C03               	skipc
  2857  0EB7  03B5               	decf	??___fldiv+3,f
  2858  0EB8  0834               	movf	??___fldiv+2,w
  2859  0EB9  3E7F               	addlw	127
  2860  0EBA  00BC               	movwf	___fldiv@new_exp
  2861  0EBB  0835               	movf	??___fldiv+3,w
  2862  0EBC  1803               	skipnc
  2863  0EBD  3E01               	addlw	1
  2864  0EBE  3E00               	addlw	0
  2865  0EBF  00BD               	movwf	___fldiv@new_exp+1
  2866  0EC0                     l2228:
  2867  0EC0  0831               	movf	___fldiv@b+3,w
  2868  0EC1  00BA               	movwf	___fldiv@rem+3
  2869  0EC2  0830               	movf	___fldiv@b+2,w
  2870  0EC3  00B9               	movwf	___fldiv@rem+2
  2871  0EC4  082F               	movf	___fldiv@b+1,w
  2872  0EC5  00B8               	movwf	___fldiv@rem+1
  2873  0EC6  082E               	movf	___fldiv@b,w
  2874  0EC7  00B7               	movwf	___fldiv@rem
  2875  0EC8                     l2230:
  2876  0EC8  3000               	movlw	0
  2877  0EC9  00B1               	movwf	___fldiv@b+3
  2878  0ECA  3000               	movlw	0
  2879  0ECB  00B0               	movwf	___fldiv@b+2
  2880  0ECC  3000               	movlw	0
  2881  0ECD  00AF               	movwf	___fldiv@b+1
  2882  0ECE  3000               	movlw	0
  2883  0ECF  00AE               	movwf	___fldiv@b
  2884  0ED0                     l2232:
  2885  0ED0  3000               	movlw	0
  2886  0ED1  00C1               	movwf	___fldiv@grs+3
  2887  0ED2  3000               	movlw	0
  2888  0ED3  00C0               	movwf	___fldiv@grs+2
  2889  0ED4  3000               	movlw	0
  2890  0ED5  00BF               	movwf	___fldiv@grs+1
  2891  0ED6  3000               	movlw	0
  2892  0ED7  00BE               	movwf	___fldiv@grs
  2893  0ED8                     l2234:
  2894  0ED8  01C3               	clrf	___fldiv@aexp
  2895  0ED9  2F24               	goto	l2254
  2896  0EDA                     l2236:
  2897  0EDA  0843               	movf	___fldiv@aexp,w
  2898  0EDB  1903               	btfsc	3,2
  2899  0EDC  2EDE               	goto	u3521
  2900  0EDD  2EDF               	goto	u3520
  2901  0EDE                     u3521:
  2902  0EDE  2EFF               	goto	l2246
  2903  0EDF                     u3520:
  2904  0EDF                     l2238:
  2905  0EDF  3001               	movlw	1
  2906  0EE0  00B2               	movwf	??___fldiv
  2907  0EE1                     u3535:
  2908  0EE1  1003               	clrc
  2909  0EE2  0DB7               	rlf	___fldiv@rem,f
  2910  0EE3  0DB8               	rlf	___fldiv@rem+1,f
  2911  0EE4  0DB9               	rlf	___fldiv@rem+2,f
  2912  0EE5  0DBA               	rlf	___fldiv@rem+3,f
  2913  0EE6  0BB2               	decfsz	??___fldiv,f
  2914  0EE7  2EE1               	goto	u3535
  2915  0EE8  3001               	movlw	1
  2916  0EE9  00B2               	movwf	??___fldiv
  2917  0EEA                     u3545:
  2918  0EEA  1003               	clrc
  2919  0EEB  0DAE               	rlf	___fldiv@b,f
  2920  0EEC  0DAF               	rlf	___fldiv@b+1,f
  2921  0EED  0DB0               	rlf	___fldiv@b+2,f
  2922  0EEE  0DB1               	rlf	___fldiv@b+3,f
  2923  0EEF  0BB2               	decfsz	??___fldiv,f
  2924  0EF0  2EEA               	goto	u3545
  2925  0EF1                     l2240:
  2926  0EF1  1FC1               	btfss	___fldiv@grs+3,7
  2927  0EF2  2EF4               	goto	u3551
  2928  0EF3  2EF5               	goto	u3550
  2929  0EF4                     u3551:
  2930  0EF4  2EF6               	goto	l2244
  2931  0EF5                     u3550:
  2932  0EF5                     l2242:
  2933  0EF5  142E               	bsf	___fldiv@b,0
  2934  0EF6                     l2244:
  2935  0EF6  3001               	movlw	1
  2936  0EF7  00B2               	movwf	??___fldiv
  2937  0EF8                     u3565:
  2938  0EF8  1003               	clrc
  2939  0EF9  0DBE               	rlf	___fldiv@grs,f
  2940  0EFA  0DBF               	rlf	___fldiv@grs+1,f
  2941  0EFB  0DC0               	rlf	___fldiv@grs+2,f
  2942  0EFC  0DC1               	rlf	___fldiv@grs+3,f
  2943  0EFD  0BB2               	decfsz	??___fldiv,f
  2944  0EFE  2EF8               	goto	u3565
  2945  0EFF                     l2246:
  2946  0EFF  082D               	movf	___fldiv@a+3,w
  2947  0F00  023A               	subwf	___fldiv@rem+3,w
  2948  0F01  1D03               	skipz
  2949  0F02  2F0D               	goto	u3575
  2950  0F03  082C               	movf	___fldiv@a+2,w
  2951  0F04  0239               	subwf	___fldiv@rem+2,w
  2952  0F05  1D03               	skipz
  2953  0F06  2F0D               	goto	u3575
  2954  0F07  082B               	movf	___fldiv@a+1,w
  2955  0F08  0238               	subwf	___fldiv@rem+1,w
  2956  0F09  1D03               	skipz
  2957  0F0A  2F0D               	goto	u3575
  2958  0F0B  082A               	movf	___fldiv@a,w
  2959  0F0C  0237               	subwf	___fldiv@rem,w
  2960  0F0D                     u3575:
  2961  0F0D  1C03               	skipc
  2962  0F0E  2F10               	goto	u3571
  2963  0F0F  2F11               	goto	u3570
  2964  0F10                     u3571:
  2965  0F10  2F20               	goto	l2252
  2966  0F11                     u3570:
  2967  0F11                     l2248:
  2968  0F11  1741               	bsf	___fldiv@grs+3,6
  2969  0F12                     l2250:
  2970  0F12  082A               	movf	___fldiv@a,w
  2971  0F13  02B7               	subwf	___fldiv@rem,f
  2972  0F14  082B               	movf	___fldiv@a+1,w
  2973  0F15  1C03               	skipc
  2974  0F16  0F2B               	incfsz	___fldiv@a+1,w
  2975  0F17  02B8               	subwf	___fldiv@rem+1,f
  2976  0F18  082C               	movf	___fldiv@a+2,w
  2977  0F19  1C03               	skipc
  2978  0F1A  0F2C               	incfsz	___fldiv@a+2,w
  2979  0F1B  02B9               	subwf	___fldiv@rem+2,f
  2980  0F1C  082D               	movf	___fldiv@a+3,w
  2981  0F1D  1C03               	skipc
  2982  0F1E  0F2D               	incfsz	___fldiv@a+3,w
  2983  0F1F  02BA               	subwf	___fldiv@rem+3,f
  2984  0F20                     l2252:
  2985  0F20  3001               	movlw	1
  2986  0F21  00B2               	movwf	??___fldiv
  2987  0F22  0832               	movf	??___fldiv,w
  2988  0F23  07C3               	addwf	___fldiv@aexp,f
  2989  0F24                     l2254:
  2990  0F24  301A               	movlw	26
  2991  0F25  0243               	subwf	___fldiv@aexp,w
  2992  0F26  1C03               	skipc
  2993  0F27  2F29               	goto	u3581
  2994  0F28  2F2A               	goto	u3580
  2995  0F29                     u3581:
  2996  0F29  2EDA               	goto	l2236
  2997  0F2A                     u3580:
  2998  0F2A                     l2256:
  2999  0F2A  083A               	movf	___fldiv@rem+3,w
  3000  0F2B  0439               	iorwf	___fldiv@rem+2,w
  3001  0F2C  0438               	iorwf	___fldiv@rem+1,w
  3002  0F2D  0437               	iorwf	___fldiv@rem,w
  3003  0F2E  1903               	skipnz
  3004  0F2F  2F31               	goto	u3591
  3005  0F30  2F32               	goto	u3590
  3006  0F31                     u3591:
  3007  0F31  2F51               	goto	l2270
  3008  0F32                     u3590:
  3009  0F32                     l2258:
  3010  0F32  143E               	bsf	___fldiv@grs,0
  3011  0F33  2F51               	goto	l2270
  3012  0F34                     l2260:
  3013  0F34  3001               	movlw	1
  3014  0F35  00B2               	movwf	??___fldiv
  3015  0F36                     u3605:
  3016  0F36  1003               	clrc
  3017  0F37  0DAE               	rlf	___fldiv@b,f
  3018  0F38  0DAF               	rlf	___fldiv@b+1,f
  3019  0F39  0DB0               	rlf	___fldiv@b+2,f
  3020  0F3A  0DB1               	rlf	___fldiv@b+3,f
  3021  0F3B  0BB2               	decfsz	??___fldiv,f
  3022  0F3C  2F36               	goto	u3605
  3023  0F3D                     l2262:
  3024  0F3D  1FC1               	btfss	___fldiv@grs+3,7
  3025  0F3E  2F40               	goto	u3611
  3026  0F3F  2F41               	goto	u3610
  3027  0F40                     u3611:
  3028  0F40  2F42               	goto	l2266
  3029  0F41                     u3610:
  3030  0F41                     l2264:
  3031  0F41  142E               	bsf	___fldiv@b,0
  3032  0F42                     l2266:
  3033  0F42  3001               	movlw	1
  3034  0F43  00B2               	movwf	??___fldiv
  3035  0F44                     u3625:
  3036  0F44  1003               	clrc
  3037  0F45  0DBE               	rlf	___fldiv@grs,f
  3038  0F46  0DBF               	rlf	___fldiv@grs+1,f
  3039  0F47  0DC0               	rlf	___fldiv@grs+2,f
  3040  0F48  0DC1               	rlf	___fldiv@grs+3,f
  3041  0F49  0BB2               	decfsz	??___fldiv,f
  3042  0F4A  2F44               	goto	u3625
  3043  0F4B                     l2268:
  3044  0F4B  30FF               	movlw	255
  3045  0F4C  07BC               	addwf	___fldiv@new_exp,f
  3046  0F4D  1803               	skipnc
  3047  0F4E  0ABD               	incf	___fldiv@new_exp+1,f
  3048  0F4F  30FF               	movlw	255
  3049  0F50  07BD               	addwf	___fldiv@new_exp+1,f
  3050  0F51                     l2270:
  3051  0F51  1FB0               	btfss	___fldiv@b+2,7
  3052  0F52  2F54               	goto	u3631
  3053  0F53  2F55               	goto	u3630
  3054  0F54                     u3631:
  3055  0F54  2F34               	goto	l2260
  3056  0F55                     u3630:
  3057  0F55                     l2272:
  3058  0F55  01C3               	clrf	___fldiv@aexp
  3059  0F56                     l2274:
  3060  0F56  1FC1               	btfss	___fldiv@grs+3,7
  3061  0F57  2F59               	goto	u3641
  3062  0F58  2F5A               	goto	u3640
  3063  0F59                     u3641:
  3064  0F59  2F76               	goto	l2282
  3065  0F5A                     u3640:
  3066  0F5A                     l2276:
  3067  0F5A  30FF               	movlw	255
  3068  0F5B  053E               	andwf	___fldiv@grs,w
  3069  0F5C  00B2               	movwf	??___fldiv
  3070  0F5D  30FF               	movlw	255
  3071  0F5E  053F               	andwf	___fldiv@grs+1,w
  3072  0F5F  00B3               	movwf	??___fldiv+1
  3073  0F60  30FF               	movlw	255
  3074  0F61  0540               	andwf	___fldiv@grs+2,w
  3075  0F62  00B4               	movwf	??___fldiv+2
  3076  0F63  307F               	movlw	127
  3077  0F64  0541               	andwf	___fldiv@grs+3,w
  3078  0F65  00B5               	movwf	??___fldiv+3
  3079  0F66  0835               	movf	??___fldiv+3,w
  3080  0F67  0434               	iorwf	??___fldiv+2,w
  3081  0F68  0433               	iorwf	??___fldiv+1,w
  3082  0F69  0432               	iorwf	??___fldiv,w
  3083  0F6A  1903               	skipnz
  3084  0F6B  2F6D               	goto	u3651
  3085  0F6C  2F6E               	goto	u3650
  3086  0F6D                     u3651:
  3087  0F6D  2F71               	goto	l527
  3088  0F6E                     u3650:
  3089  0F6E                     l2278:
  3090  0F6E  01C3               	clrf	___fldiv@aexp
  3091  0F6F  0AC3               	incf	___fldiv@aexp,f
  3092  0F70  2F76               	goto	l2282
  3093  0F71                     l527:
  3094  0F71  1C2E               	btfss	___fldiv@b,0
  3095  0F72  2F74               	goto	u3661
  3096  0F73  2F75               	goto	u3660
  3097  0F74                     u3661:
  3098  0F74  2F76               	goto	l2282
  3099  0F75                     u3660:
  3100  0F75  2F6E               	goto	l2278
  3101  0F76                     l2282:
  3102  0F76  0843               	movf	___fldiv@aexp,w
  3103  0F77  1903               	btfsc	3,2
  3104  0F78  2F7A               	goto	u3671
  3105  0F79  2F7B               	goto	u3670
  3106  0F7A                     u3671:
  3107  0F7A  2FAC               	goto	l2292
  3108  0F7B                     u3670:
  3109  0F7B                     l2284:
  3110  0F7B  3001               	movlw	1
  3111  0F7C  07AE               	addwf	___fldiv@b,f
  3112  0F7D  3000               	movlw	0
  3113  0F7E  1803               	skipnc
  3114  0F7F  3001               	movlw	1
  3115  0F80  07AF               	addwf	___fldiv@b+1,f
  3116  0F81  3000               	movlw	0
  3117  0F82  1803               	skipnc
  3118  0F83  3001               	movlw	1
  3119  0F84  07B0               	addwf	___fldiv@b+2,f
  3120  0F85  3000               	movlw	0
  3121  0F86  1803               	skipnc
  3122  0F87  3001               	movlw	1
  3123  0F88  07B1               	addwf	___fldiv@b+3,f
  3124  0F89                     l2286:
  3125  0F89  1C31               	btfss	___fldiv@b+3,0
  3126  0F8A  2F8C               	goto	u3681
  3127  0F8B  2F8D               	goto	u3680
  3128  0F8C                     u3681:
  3129  0F8C  2FAC               	goto	l2292
  3130  0F8D                     u3680:
  3131  0F8D                     l2288:
  3132  0F8D  082E               	movf	___fldiv@b,w
  3133  0F8E  00B2               	movwf	??___fldiv
  3134  0F8F  082F               	movf	___fldiv@b+1,w
  3135  0F90  00B3               	movwf	??___fldiv+1
  3136  0F91  0830               	movf	___fldiv@b+2,w
  3137  0F92  00B4               	movwf	??___fldiv+2
  3138  0F93  0831               	movf	___fldiv@b+3,w
  3139  0F94  00B5               	movwf	??___fldiv+3
  3140  0F95  3001               	movlw	1
  3141  0F96  00B6               	movwf	??___fldiv+4
  3142  0F97                     u3695:
  3143  0F97  0D35               	rlf	??___fldiv+3,w
  3144  0F98  0CB5               	rrf	??___fldiv+3,f
  3145  0F99  0CB4               	rrf	??___fldiv+2,f
  3146  0F9A  0CB3               	rrf	??___fldiv+1,f
  3147  0F9B  0CB2               	rrf	??___fldiv,f
  3148  0F9C                     u3690:
  3149  0F9C  0BB6               	decfsz	??___fldiv+4,f
  3150  0F9D  2F97               	goto	u3695
  3151  0F9E  0835               	movf	??___fldiv+3,w
  3152  0F9F  00B1               	movwf	___fldiv@b+3
  3153  0FA0  0834               	movf	??___fldiv+2,w
  3154  0FA1  00B0               	movwf	___fldiv@b+2
  3155  0FA2  0833               	movf	??___fldiv+1,w
  3156  0FA3  00AF               	movwf	___fldiv@b+1
  3157  0FA4  0832               	movf	??___fldiv,w
  3158  0FA5  00AE               	movwf	___fldiv@b
  3159  0FA6                     l2290:
  3160  0FA6  3001               	movlw	1
  3161  0FA7  07BC               	addwf	___fldiv@new_exp,f
  3162  0FA8  1803               	skipnc
  3163  0FA9  0ABD               	incf	___fldiv@new_exp+1,f
  3164  0FAA  3000               	movlw	0
  3165  0FAB  07BD               	addwf	___fldiv@new_exp+1,f
  3166  0FAC                     l2292:
  3167  0FAC  083D               	movf	___fldiv@new_exp+1,w
  3168  0FAD  3A80               	xorlw	128
  3169  0FAE  00FF               	movwf	btemp+1
  3170  0FAF  3080               	movlw	128
  3171  0FB0  027F               	subwf	btemp+1,w
  3172  0FB1  1D03               	skipz
  3173  0FB2  2FB5               	goto	u3705
  3174  0FB3  30FF               	movlw	255
  3175  0FB4  023C               	subwf	___fldiv@new_exp,w
  3176  0FB5                     u3705:
  3177  0FB5  1C03               	skipc
  3178  0FB6  2FB8               	goto	u3701
  3179  0FB7  2FB9               	goto	u3700
  3180  0FB8                     u3701:
  3181  0FB8  2FC7               	goto	l2296
  3182  0FB9                     u3700:
  3183  0FB9                     l2294:
  3184  0FB9  30FF               	movlw	255
  3185  0FBA  1283               	bcf	3,5	;RP0=0, select bank0
  3186  0FBB  1303               	bcf	3,6	;RP1=0, select bank0
  3187  0FBC  00BC               	movwf	___fldiv@new_exp
  3188  0FBD  3000               	movlw	0
  3189  0FBE  00BD               	movwf	___fldiv@new_exp+1
  3190  0FBF  3000               	movlw	0
  3191  0FC0  00B1               	movwf	___fldiv@b+3
  3192  0FC1  3000               	movlw	0
  3193  0FC2  00B0               	movwf	___fldiv@b+2
  3194  0FC3  3000               	movlw	0
  3195  0FC4  00AF               	movwf	___fldiv@b+1
  3196  0FC5  3000               	movlw	0
  3197  0FC6  00AE               	movwf	___fldiv@b
  3198  0FC7                     l2296:
  3199  0FC7  1283               	bcf	3,5	;RP0=0, select bank0
  3200  0FC8  1303               	bcf	3,6	;RP1=0, select bank0
  3201  0FC9  083D               	movf	___fldiv@new_exp+1,w
  3202  0FCA  3A80               	xorlw	128
  3203  0FCB  00FF               	movwf	btemp+1
  3204  0FCC  3080               	movlw	128
  3205  0FCD  027F               	subwf	btemp+1,w
  3206  0FCE  1D03               	skipz
  3207  0FCF  2FD2               	goto	u3715
  3208  0FD0  3001               	movlw	1
  3209  0FD1  023C               	subwf	___fldiv@new_exp,w
  3210  0FD2                     u3715:
  3211  0FD2  1803               	skipnc
  3212  0FD3  2FD5               	goto	u3711
  3213  0FD4  2FD6               	goto	u3710
  3214  0FD5                     u3711:
  3215  0FD5  2FE3               	goto	l533
  3216  0FD6                     u3710:
  3217  0FD6                     l2298:
  3218  0FD6  1283               	bcf	3,5	;RP0=0, select bank0
  3219  0FD7  1303               	bcf	3,6	;RP1=0, select bank0
  3220  0FD8  01BC               	clrf	___fldiv@new_exp
  3221  0FD9  01BD               	clrf	___fldiv@new_exp+1
  3222  0FDA                     l2300:
  3223  0FDA  3000               	movlw	0
  3224  0FDB  00B1               	movwf	___fldiv@b+3
  3225  0FDC  3000               	movlw	0
  3226  0FDD  00B0               	movwf	___fldiv@b+2
  3227  0FDE  3000               	movlw	0
  3228  0FDF  00AF               	movwf	___fldiv@b+1
  3229  0FE0  3000               	movlw	0
  3230  0FE1  00AE               	movwf	___fldiv@b
  3231  0FE2                     l2302:
  3232  0FE2  01BB               	clrf	___fldiv@sign
  3233  0FE3                     l533:
  3234  0FE3  1283               	bcf	3,5	;RP0=0, select bank0
  3235  0FE4  1303               	bcf	3,6	;RP1=0, select bank0
  3236  0FE5  083C               	movf	___fldiv@new_exp,w
  3237  0FE6  00B2               	movwf	??___fldiv
  3238  0FE7  0832               	movf	??___fldiv,w
  3239  0FE8  00C2               	movwf	___fldiv@bexp
  3240  0FE9                     l2304:
  3241  0FE9  1C42               	btfss	___fldiv@bexp,0
  3242  0FEA  2FEC               	goto	u3721
  3243  0FEB  2FED               	goto	u3720
  3244  0FEC                     u3721:
  3245  0FEC  2FEF               	goto	l2308
  3246  0FED                     u3720:
  3247  0FED                     l2306:
  3248  0FED  17B0               	bsf	___fldiv@b+2,7
  3249  0FEE  2FF3               	goto	l535
  3250  0FEF                     l2308:
  3251  0FEF  307F               	movlw	127
  3252  0FF0  00B2               	movwf	??___fldiv
  3253  0FF1  0832               	movf	??___fldiv,w
  3254  0FF2  05B0               	andwf	___fldiv@b+2,f
  3255  0FF3                     l535:
  3256  0FF3  0842               	movf	___fldiv@bexp,w
  3257  0FF4  00B2               	movwf	??___fldiv
  3258  0FF5  1003               	clrc
  3259  0FF6  0C32               	rrf	??___fldiv,w
  3260  0FF7  00B3               	movwf	??___fldiv+1
  3261  0FF8  0833               	movf	??___fldiv+1,w
  3262  0FF9  00B1               	movwf	___fldiv@b+3
  3263  0FFA  083B               	movf	___fldiv@sign,w
  3264  0FFB  00B2               	movwf	??___fldiv
  3265  0FFC  0832               	movf	??___fldiv,w
  3266  0FFD  04B1               	iorwf	___fldiv@b+3,f
  3267  0FFE  2E97               	goto	l2216
  3268  0FFF                     l513:
  3269  0FFF  0008               	return
  3270  1000                     __end_of___fldiv:
  3271                           
  3272                           	psect	text8
  3273  037A                     __ptext8:	
  3274 ;; *************** function ___fladd *****************
  3275 ;; Defined at:
  3276 ;;		line 10 in file "C:\Program Files\Microchip\xc8\v2.35\pic\sources\c90\common\sprcadd.c"
  3277 ;; Parameters:    Size  Location     Type
  3278 ;;  b               4   62[BANK0 ] unsigned char 
  3279 ;;  a               4   66[BANK0 ] unsigned char 
  3280 ;; Auto vars:     Size  Location     Type
  3281 ;;  grs             1    3[BANK1 ] unsigned char 
  3282 ;;  bexp            1    2[BANK1 ] unsigned char 
  3283 ;;  aexp            1    1[BANK1 ] unsigned char 
  3284 ;;  signs           1    0[BANK1 ] unsigned char 
  3285 ;; Return value:  Size  Location     Type
  3286 ;;                  4   62[BANK0 ] unsigned char 
  3287 ;; Registers used:
  3288 ;;		wreg, status,2, status,0, btemp+1
  3289 ;; Tracked objects:
  3290 ;;		On entry : 0/0
  3291 ;;		On exit  : 0/0
  3292 ;;		Unchanged: 0/0
  3293 ;; Data sizes:     COMMON   BANK0   BANK1   BANK3   BANK2
  3294 ;;      Params:         0       8       0       0       0
  3295 ;;      Locals:         0       0       4       0       0
  3296 ;;      Temps:          0       8       0       0       0
  3297 ;;      Totals:         0      16       4       0       0
  3298 ;;Total ram usage:       20 bytes
  3299 ;; Hardware stack levels used: 1
  3300 ;; Hardware stack levels required when called: 1
  3301 ;; This function calls:
  3302 ;;		Nothing
  3303 ;; This function is called by:
  3304 ;;		_map
  3305 ;; This function uses a non-reentrant model
  3306 ;;
  3307                           
  3308  037A                     ___fladd:	
  3309                           ;psect for function ___fladd
  3310                           
  3311  037A                     l1978:	
  3312                           ;incstack = 0
  3313                           ; Regs used in ___fladd: [wreg+status,2+status,0+btemp+1]
  3314                           
  3315  037A  1283               	bcf	3,5	;RP0=0, select bank0
  3316  037B  1303               	bcf	3,6	;RP1=0, select bank0
  3317  037C  0861               	movf	___fladd@b+3,w
  3318  037D  3980               	andlw	128
  3319  037E  00E6               	movwf	??___fladd
  3320  037F  0866               	movf	??___fladd,w
  3321  0380  1683               	bsf	3,5	;RP0=1, select bank1
  3322  0381  1303               	bcf	3,6	;RP1=0, select bank1
  3323  0382  00A0               	movwf	___fladd@signs^(0+128)
  3324  0383                     l1980:
  3325  0383  1283               	bcf	3,5	;RP0=0, select bank0
  3326  0384  1303               	bcf	3,6	;RP1=0, select bank0
  3327  0385  0861               	movf	___fladd@b+3,w
  3328  0386  00E6               	movwf	??___fladd
  3329  0387  0766               	addwf	??___fladd,w
  3330  0388  00E7               	movwf	??___fladd+1
  3331  0389  0867               	movf	??___fladd+1,w
  3332  038A  1683               	bsf	3,5	;RP0=1, select bank1
  3333  038B  1303               	bcf	3,6	;RP1=0, select bank1
  3334  038C  00A2               	movwf	___fladd@bexp^(0+128)
  3335  038D                     l1982:
  3336  038D  1283               	bcf	3,5	;RP0=0, select bank0
  3337  038E  1303               	bcf	3,6	;RP1=0, select bank0
  3338  038F  1FE0               	btfss	___fladd@b+2,7
  3339  0390  2B92               	goto	u2981
  3340  0391  2B93               	goto	u2980
  3341  0392                     u2981:
  3342  0392  2B96               	goto	l1986
  3343  0393                     u2980:
  3344  0393                     l1984:
  3345  0393  1683               	bsf	3,5	;RP0=1, select bank1
  3346  0394  1303               	bcf	3,6	;RP1=0, select bank1
  3347  0395  1422               	bsf	___fladd@bexp^(0+128),0
  3348  0396                     l1986:
  3349  0396  1683               	bsf	3,5	;RP0=1, select bank1
  3350  0397  1303               	bcf	3,6	;RP1=0, select bank1
  3351  0398  0822               	movf	___fladd@bexp^(0+128),w
  3352  0399  1903               	btfsc	3,2
  3353  039A  2B9C               	goto	u2991
  3354  039B  2B9D               	goto	u2990
  3355  039C                     u2991:
  3356  039C  2BB0               	goto	l1996
  3357  039D                     u2990:
  3358  039D                     l1988:
  3359  039D  0A22               	incf	___fladd@bexp^(0+128),w
  3360  039E  1D03               	btfss	3,2
  3361  039F  2BA1               	goto	u3001
  3362  03A0  2BA2               	goto	u3000
  3363  03A1                     u3001:
  3364  03A1  2BAC               	goto	l1992
  3365  03A2                     u3000:
  3366  03A2                     l1990:
  3367  03A2  3000               	movlw	0
  3368  03A3  1283               	bcf	3,5	;RP0=0, select bank0
  3369  03A4  1303               	bcf	3,6	;RP1=0, select bank0
  3370  03A5  00E1               	movwf	___fladd@b+3
  3371  03A6  3000               	movlw	0
  3372  03A7  00E0               	movwf	___fladd@b+2
  3373  03A8  3000               	movlw	0
  3374  03A9  00DF               	movwf	___fladd@b+1
  3375  03AA  3000               	movlw	0
  3376  03AB  00DE               	movwf	___fladd@b
  3377  03AC                     l1992:
  3378  03AC  1283               	bcf	3,5	;RP0=0, select bank0
  3379  03AD  17E0               	bsf	___fladd@b+2,7
  3380  03AE                     l1994:
  3381  03AE  01E1               	clrf	___fladd@b+3
  3382  03AF  2BBA               	goto	l1998
  3383  03B0                     l1996:
  3384  03B0  3000               	movlw	0
  3385  03B1  1283               	bcf	3,5	;RP0=0, select bank0
  3386  03B2  1303               	bcf	3,6	;RP1=0, select bank0
  3387  03B3  00E1               	movwf	___fladd@b+3
  3388  03B4  3000               	movlw	0
  3389  03B5  00E0               	movwf	___fladd@b+2
  3390  03B6  3000               	movlw	0
  3391  03B7  00DF               	movwf	___fladd@b+1
  3392  03B8  3000               	movlw	0
  3393  03B9  00DE               	movwf	___fladd@b
  3394  03BA                     l1998:
  3395  03BA  0865               	movf	___fladd@a+3,w
  3396  03BB  3980               	andlw	128
  3397  03BC  00E6               	movwf	??___fladd
  3398  03BD  0866               	movf	??___fladd,w
  3399  03BE  1683               	bsf	3,5	;RP0=1, select bank1
  3400  03BF  1303               	bcf	3,6	;RP1=0, select bank1
  3401  03C0  00A1               	movwf	___fladd@aexp^(0+128)
  3402  03C1                     l2000:
  3403  03C1  0821               	movf	___fladd@aexp^(0+128),w
  3404  03C2  0620               	xorwf	___fladd@signs^(0+128),w
  3405  03C3  1903               	skipnz
  3406  03C4  2BC6               	goto	u3011
  3407  03C5  2BC7               	goto	u3010
  3408  03C6                     u3011:
  3409  03C6  2BC8               	goto	l2004
  3410  03C7                     u3010:
  3411  03C7                     l2002:
  3412  03C7  1720               	bsf	___fladd@signs^(0+128),6
  3413  03C8                     l2004:
  3414  03C8  1283               	bcf	3,5	;RP0=0, select bank0
  3415  03C9  1303               	bcf	3,6	;RP1=0, select bank0
  3416  03CA  0865               	movf	___fladd@a+3,w
  3417  03CB  00E6               	movwf	??___fladd
  3418  03CC  0766               	addwf	??___fladd,w
  3419  03CD  00E7               	movwf	??___fladd+1
  3420  03CE  0867               	movf	??___fladd+1,w
  3421  03CF  1683               	bsf	3,5	;RP0=1, select bank1
  3422  03D0  1303               	bcf	3,6	;RP1=0, select bank1
  3423  03D1  00A1               	movwf	___fladd@aexp^(0+128)
  3424  03D2                     l2006:
  3425  03D2  1283               	bcf	3,5	;RP0=0, select bank0
  3426  03D3  1303               	bcf	3,6	;RP1=0, select bank0
  3427  03D4  1FE4               	btfss	___fladd@a+2,7
  3428  03D5  2BD7               	goto	u3021
  3429  03D6  2BD8               	goto	u3020
  3430  03D7                     u3021:
  3431  03D7  2BDB               	goto	l2010
  3432  03D8                     u3020:
  3433  03D8                     l2008:
  3434  03D8  1683               	bsf	3,5	;RP0=1, select bank1
  3435  03D9  1303               	bcf	3,6	;RP1=0, select bank1
  3436  03DA  1421               	bsf	___fladd@aexp^(0+128),0
  3437  03DB                     l2010:
  3438  03DB  1683               	bsf	3,5	;RP0=1, select bank1
  3439  03DC  1303               	bcf	3,6	;RP1=0, select bank1
  3440  03DD  0821               	movf	___fladd@aexp^(0+128),w
  3441  03DE  1903               	btfsc	3,2
  3442  03DF  2BE1               	goto	u3031
  3443  03E0  2BE2               	goto	u3030
  3444  03E1                     u3031:
  3445  03E1  2BF5               	goto	l2020
  3446  03E2                     u3030:
  3447  03E2                     l2012:
  3448  03E2  0A21               	incf	___fladd@aexp^(0+128),w
  3449  03E3  1D03               	btfss	3,2
  3450  03E4  2BE6               	goto	u3041
  3451  03E5  2BE7               	goto	u3040
  3452  03E6                     u3041:
  3453  03E6  2BF1               	goto	l2016
  3454  03E7                     u3040:
  3455  03E7                     l2014:
  3456  03E7  3000               	movlw	0
  3457  03E8  1283               	bcf	3,5	;RP0=0, select bank0
  3458  03E9  1303               	bcf	3,6	;RP1=0, select bank0
  3459  03EA  00E5               	movwf	___fladd@a+3
  3460  03EB  3000               	movlw	0
  3461  03EC  00E4               	movwf	___fladd@a+2
  3462  03ED  3000               	movlw	0
  3463  03EE  00E3               	movwf	___fladd@a+1
  3464  03EF  3000               	movlw	0
  3465  03F0  00E2               	movwf	___fladd@a
  3466  03F1                     l2016:
  3467  03F1  1283               	bcf	3,5	;RP0=0, select bank0
  3468  03F2  17E4               	bsf	___fladd@a+2,7
  3469  03F3                     l2018:
  3470  03F3  01E5               	clrf	___fladd@a+3
  3471  03F4  2BFF               	goto	l455
  3472  03F5                     l2020:
  3473  03F5  3000               	movlw	0
  3474  03F6  1283               	bcf	3,5	;RP0=0, select bank0
  3475  03F7  1303               	bcf	3,6	;RP1=0, select bank0
  3476  03F8  00E5               	movwf	___fladd@a+3
  3477  03F9  3000               	movlw	0
  3478  03FA  00E4               	movwf	___fladd@a+2
  3479  03FB  3000               	movlw	0
  3480  03FC  00E3               	movwf	___fladd@a+1
  3481  03FD  3000               	movlw	0
  3482  03FE  00E2               	movwf	___fladd@a
  3483  03FF                     l455:
  3484  03FF  1683               	bsf	3,5	;RP0=1, select bank1
  3485  0400  1303               	bcf	3,6	;RP1=0, select bank1
  3486  0401  0822               	movf	___fladd@bexp^(0+128),w
  3487  0402  0221               	subwf	___fladd@aexp^(0+128),w
  3488  0403  1803               	skipnc
  3489  0404  2C06               	goto	u3051
  3490  0405  2C07               	goto	u3050
  3491  0406                     u3051:
  3492  0406  2C7D               	goto	l2056
  3493  0407                     u3050:
  3494  0407                     l2022:
  3495  0407  1F20               	btfss	___fladd@signs^(0+128),6
  3496  0408  2C0A               	goto	u3061
  3497  0409  2C0B               	goto	u3060
  3498  040A                     u3061:
  3499  040A  2C13               	goto	l2026
  3500  040B                     u3060:
  3501  040B                     l2024:
  3502  040B  3080               	movlw	128
  3503  040C  1283               	bcf	3,5	;RP0=0, select bank0
  3504  040D  1303               	bcf	3,6	;RP1=0, select bank0
  3505  040E  00E6               	movwf	??___fladd
  3506  040F  0866               	movf	??___fladd,w
  3507  0410  1683               	bsf	3,5	;RP0=1, select bank1
  3508  0411  1303               	bcf	3,6	;RP1=0, select bank1
  3509  0412  06A0               	xorwf	___fladd@signs^(0+128),f
  3510  0413                     l2026:
  3511  0413  0822               	movf	___fladd@bexp^(0+128),w
  3512  0414  1283               	bcf	3,5	;RP0=0, select bank0
  3513  0415  1303               	bcf	3,6	;RP1=0, select bank0
  3514  0416  00E6               	movwf	??___fladd
  3515  0417  0866               	movf	??___fladd,w
  3516  0418  1683               	bsf	3,5	;RP0=1, select bank1
  3517  0419  1303               	bcf	3,6	;RP1=0, select bank1
  3518  041A  00A3               	movwf	___fladd@grs^(0+128)
  3519  041B                     l2028:
  3520  041B  0821               	movf	___fladd@aexp^(0+128),w
  3521  041C  1283               	bcf	3,5	;RP0=0, select bank0
  3522  041D  1303               	bcf	3,6	;RP1=0, select bank0
  3523  041E  00E6               	movwf	??___fladd
  3524  041F  0866               	movf	??___fladd,w
  3525  0420  1683               	bsf	3,5	;RP0=1, select bank1
  3526  0421  1303               	bcf	3,6	;RP1=0, select bank1
  3527  0422  00A2               	movwf	___fladd@bexp^(0+128)
  3528  0423                     l2030:
  3529  0423  0823               	movf	___fladd@grs^(0+128),w
  3530  0424  1283               	bcf	3,5	;RP0=0, select bank0
  3531  0425  1303               	bcf	3,6	;RP1=0, select bank0
  3532  0426  00E6               	movwf	??___fladd
  3533  0427  0866               	movf	??___fladd,w
  3534  0428  1683               	bsf	3,5	;RP0=1, select bank1
  3535  0429  1303               	bcf	3,6	;RP1=0, select bank1
  3536  042A  00A1               	movwf	___fladd@aexp^(0+128)
  3537  042B                     l2032:
  3538  042B  1283               	bcf	3,5	;RP0=0, select bank0
  3539  042C  1303               	bcf	3,6	;RP1=0, select bank0
  3540  042D  085E               	movf	___fladd@b,w
  3541  042E  00E6               	movwf	??___fladd
  3542  042F  0866               	movf	??___fladd,w
  3543  0430  1683               	bsf	3,5	;RP0=1, select bank1
  3544  0431  1303               	bcf	3,6	;RP1=0, select bank1
  3545  0432  00A3               	movwf	___fladd@grs^(0+128)
  3546  0433                     l2034:
  3547  0433  1283               	bcf	3,5	;RP0=0, select bank0
  3548  0434  1303               	bcf	3,6	;RP1=0, select bank0
  3549  0435  0862               	movf	___fladd@a,w
  3550  0436  00E6               	movwf	??___fladd
  3551  0437  0866               	movf	??___fladd,w
  3552  0438  00DE               	movwf	___fladd@b
  3553  0439                     l2036:
  3554  0439  1683               	bsf	3,5	;RP0=1, select bank1
  3555  043A  1303               	bcf	3,6	;RP1=0, select bank1
  3556  043B  0823               	movf	___fladd@grs^(0+128),w
  3557  043C  1283               	bcf	3,5	;RP0=0, select bank0
  3558  043D  1303               	bcf	3,6	;RP1=0, select bank0
  3559  043E  00E6               	movwf	??___fladd
  3560  043F  0866               	movf	??___fladd,w
  3561  0440  00E2               	movwf	___fladd@a
  3562  0441                     l2038:
  3563  0441  085F               	movf	___fladd@b+1,w
  3564  0442  00E6               	movwf	??___fladd
  3565  0443  0866               	movf	??___fladd,w
  3566  0444  1683               	bsf	3,5	;RP0=1, select bank1
  3567  0445  1303               	bcf	3,6	;RP1=0, select bank1
  3568  0446  00A3               	movwf	___fladd@grs^(0+128)
  3569  0447                     l2040:
  3570  0447  1283               	bcf	3,5	;RP0=0, select bank0
  3571  0448  1303               	bcf	3,6	;RP1=0, select bank0
  3572  0449  0863               	movf	___fladd@a+1,w
  3573  044A  00E6               	movwf	??___fladd
  3574  044B  0866               	movf	??___fladd,w
  3575  044C  00DF               	movwf	___fladd@b+1
  3576  044D                     l2042:
  3577  044D  1683               	bsf	3,5	;RP0=1, select bank1
  3578  044E  1303               	bcf	3,6	;RP1=0, select bank1
  3579  044F  0823               	movf	___fladd@grs^(0+128),w
  3580  0450  1283               	bcf	3,5	;RP0=0, select bank0
  3581  0451  1303               	bcf	3,6	;RP1=0, select bank0
  3582  0452  00E6               	movwf	??___fladd
  3583  0453  0866               	movf	??___fladd,w
  3584  0454  00E3               	movwf	___fladd@a+1
  3585  0455                     l2044:
  3586  0455  0860               	movf	___fladd@b+2,w
  3587  0456  00E6               	movwf	??___fladd
  3588  0457  0866               	movf	??___fladd,w
  3589  0458  1683               	bsf	3,5	;RP0=1, select bank1
  3590  0459  1303               	bcf	3,6	;RP1=0, select bank1
  3591  045A  00A3               	movwf	___fladd@grs^(0+128)
  3592  045B                     l2046:
  3593  045B  1283               	bcf	3,5	;RP0=0, select bank0
  3594  045C  1303               	bcf	3,6	;RP1=0, select bank0
  3595  045D  0864               	movf	___fladd@a+2,w
  3596  045E  00E6               	movwf	??___fladd
  3597  045F  0866               	movf	??___fladd,w
  3598  0460  00E0               	movwf	___fladd@b+2
  3599  0461                     l2048:
  3600  0461  1683               	bsf	3,5	;RP0=1, select bank1
  3601  0462  1303               	bcf	3,6	;RP1=0, select bank1
  3602  0463  0823               	movf	___fladd@grs^(0+128),w
  3603  0464  1283               	bcf	3,5	;RP0=0, select bank0
  3604  0465  1303               	bcf	3,6	;RP1=0, select bank0
  3605  0466  00E6               	movwf	??___fladd
  3606  0467  0866               	movf	??___fladd,w
  3607  0468  00E4               	movwf	___fladd@a+2
  3608  0469                     l2050:
  3609  0469  0861               	movf	___fladd@b+3,w
  3610  046A  00E6               	movwf	??___fladd
  3611  046B  0866               	movf	??___fladd,w
  3612  046C  1683               	bsf	3,5	;RP0=1, select bank1
  3613  046D  1303               	bcf	3,6	;RP1=0, select bank1
  3614  046E  00A3               	movwf	___fladd@grs^(0+128)
  3615  046F                     l2052:
  3616  046F  1283               	bcf	3,5	;RP0=0, select bank0
  3617  0470  1303               	bcf	3,6	;RP1=0, select bank0
  3618  0471  0865               	movf	___fladd@a+3,w
  3619  0472  00E6               	movwf	??___fladd
  3620  0473  0866               	movf	??___fladd,w
  3621  0474  00E1               	movwf	___fladd@b+3
  3622  0475                     l2054:
  3623  0475  1683               	bsf	3,5	;RP0=1, select bank1
  3624  0476  1303               	bcf	3,6	;RP1=0, select bank1
  3625  0477  0823               	movf	___fladd@grs^(0+128),w
  3626  0478  1283               	bcf	3,5	;RP0=0, select bank0
  3627  0479  1303               	bcf	3,6	;RP1=0, select bank0
  3628  047A  00E6               	movwf	??___fladd
  3629  047B  0866               	movf	??___fladd,w
  3630  047C  00E5               	movwf	___fladd@a+3
  3631  047D                     l2056:
  3632  047D  1683               	bsf	3,5	;RP0=1, select bank1
  3633  047E  1303               	bcf	3,6	;RP1=0, select bank1
  3634  047F  01A3               	clrf	___fladd@grs^(0+128)
  3635  0480                     l2058:
  3636  0480  0821               	movf	___fladd@aexp^(0+128),w
  3637  0481  1283               	bcf	3,5	;RP0=0, select bank0
  3638  0482  1303               	bcf	3,6	;RP1=0, select bank0
  3639  0483  00E6               	movwf	??___fladd
  3640  0484  01E7               	clrf	??___fladd+1
  3641  0485  0867               	movf	??___fladd+1,w
  3642  0486  00E9               	movwf	??___fladd+3
  3643  0487  1683               	bsf	3,5	;RP0=1, select bank1
  3644  0488  1303               	bcf	3,6	;RP1=0, select bank1
  3645  0489  0822               	movf	___fladd@bexp^(0+128),w
  3646  048A  1283               	bcf	3,5	;RP0=0, select bank0
  3647  048B  1303               	bcf	3,6	;RP1=0, select bank0
  3648  048C  0266               	subwf	??___fladd,w
  3649  048D  00E8               	movwf	??___fladd+2
  3650  048E  1C03               	skipc
  3651  048F  03E9               	decf	??___fladd+3,f
  3652  0490  0869               	movf	??___fladd+3,w
  3653  0491  3A80               	xorlw	128
  3654  0492  00FF               	movwf	btemp+1
  3655  0493  3080               	movlw	128
  3656  0494  027F               	subwf	btemp+1,w
  3657  0495  1D03               	skipz
  3658  0496  2C99               	goto	u3075
  3659  0497  301A               	movlw	26
  3660  0498  0268               	subwf	??___fladd+2,w
  3661  0499                     u3075:
  3662  0499  1C03               	skipc
  3663  049A  2C9C               	goto	u3071
  3664  049B  2C9D               	goto	u3070
  3665  049C                     u3071:
  3666  049C  2CEF               	goto	l2074
  3667  049D                     u3070:
  3668  049D                     l2060:
  3669  049D  1283               	bcf	3,5	;RP0=0, select bank0
  3670  049E  1303               	bcf	3,6	;RP1=0, select bank0
  3671  049F  0861               	movf	___fladd@b+3,w
  3672  04A0  0460               	iorwf	___fladd@b+2,w
  3673  04A1  045F               	iorwf	___fladd@b+1,w
  3674  04A2  045E               	iorwf	___fladd@b,w
  3675  04A3  1D03               	skipz
  3676  04A4  2CA6               	goto	u3081
  3677  04A5  2CA8               	goto	u3080
  3678  04A6                     u3081:
  3679  04A6  3001               	movlw	1
  3680  04A7  2CA9               	goto	u3090
  3681  04A8                     u3080:
  3682  04A8  3000               	movlw	0
  3683  04A9                     u3090:
  3684  04A9  00E6               	movwf	??___fladd
  3685  04AA  0866               	movf	??___fladd,w
  3686  04AB  1683               	bsf	3,5	;RP0=1, select bank1
  3687  04AC  1303               	bcf	3,6	;RP1=0, select bank1
  3688  04AD  00A3               	movwf	___fladd@grs^(0+128)
  3689  04AE  3000               	movlw	0
  3690  04AF  1283               	bcf	3,5	;RP0=0, select bank0
  3691  04B0  1303               	bcf	3,6	;RP1=0, select bank0
  3692  04B1  00E1               	movwf	___fladd@b+3
  3693  04B2  3000               	movlw	0
  3694  04B3  00E0               	movwf	___fladd@b+2
  3695  04B4  3000               	movlw	0
  3696  04B5  00DF               	movwf	___fladd@b+1
  3697  04B6  3000               	movlw	0
  3698  04B7  00DE               	movwf	___fladd@b
  3699  04B8  1683               	bsf	3,5	;RP0=1, select bank1
  3700  04B9  1303               	bcf	3,6	;RP1=0, select bank1
  3701  04BA  0821               	movf	___fladd@aexp^(0+128),w
  3702  04BB  1283               	bcf	3,5	;RP0=0, select bank0
  3703  04BC  1303               	bcf	3,6	;RP1=0, select bank0
  3704  04BD  00E6               	movwf	??___fladd
  3705  04BE  0866               	movf	??___fladd,w
  3706  04BF  1683               	bsf	3,5	;RP0=1, select bank1
  3707  04C0  1303               	bcf	3,6	;RP1=0, select bank1
  3708  04C1  00A2               	movwf	___fladd@bexp^(0+128)
  3709  04C2  2CF7               	goto	l459
  3710  04C3                     l461:
  3711  04C3  1C23               	btfss	___fladd@grs^(0+128),0
  3712  04C4  2CC6               	goto	u3101
  3713  04C5  2CC7               	goto	u3100
  3714  04C6                     u3101:
  3715  04C6  2CD4               	goto	l2064
  3716  04C7                     u3100:
  3717  04C7                     l2062:
  3718  04C7  0823               	movf	___fladd@grs^(0+128),w
  3719  04C8  1283               	bcf	3,5	;RP0=0, select bank0
  3720  04C9  1303               	bcf	3,6	;RP1=0, select bank0
  3721  04CA  00E6               	movwf	??___fladd
  3722  04CB  1003               	clrc
  3723  04CC  0C66               	rrf	??___fladd,w
  3724  04CD  3801               	iorlw	1
  3725  04CE  00E7               	movwf	??___fladd+1
  3726  04CF  0867               	movf	??___fladd+1,w
  3727  04D0  1683               	bsf	3,5	;RP0=1, select bank1
  3728  04D1  1303               	bcf	3,6	;RP1=0, select bank1
  3729  04D2  00A3               	movwf	___fladd@grs^(0+128)
  3730  04D3  2CD6               	goto	l2066
  3731  04D4                     l2064:
  3732  04D4  1003               	clrc
  3733  04D5  0CA3               	rrf	___fladd@grs^(0+128),f
  3734  04D6                     l2066:
  3735  04D6  1283               	bcf	3,5	;RP0=0, select bank0
  3736  04D7  1303               	bcf	3,6	;RP1=0, select bank0
  3737  04D8  1C5E               	btfss	___fladd@b,0
  3738  04D9  2CDB               	goto	u3111
  3739  04DA  2CDC               	goto	u3110
  3740  04DB                     u3111:
  3741  04DB  2CDF               	goto	l2070
  3742  04DC                     u3110:
  3743  04DC                     l2068:
  3744  04DC  1683               	bsf	3,5	;RP0=1, select bank1
  3745  04DD  1303               	bcf	3,6	;RP1=0, select bank1
  3746  04DE  17A3               	bsf	___fladd@grs^(0+128),7
  3747  04DF                     l2070:
  3748  04DF  3001               	movlw	1
  3749  04E0  1283               	bcf	3,5	;RP0=0, select bank0
  3750  04E1  00E6               	movwf	??___fladd
  3751  04E2                     u3125:
  3752  04E2  0D61               	rlf	___fladd@b+3,w
  3753  04E3  0CE1               	rrf	___fladd@b+3,f
  3754  04E4  0CE0               	rrf	___fladd@b+2,f
  3755  04E5  0CDF               	rrf	___fladd@b+1,f
  3756  04E6  0CDE               	rrf	___fladd@b,f
  3757  04E7  0BE6               	decfsz	??___fladd& (0+127),f
  3758  04E8  2CE2               	goto	u3125
  3759  04E9                     l2072:
  3760  04E9  3001               	movlw	1
  3761  04EA  00E6               	movwf	??___fladd
  3762  04EB  0866               	movf	??___fladd,w
  3763  04EC  1683               	bsf	3,5	;RP0=1, select bank1
  3764  04ED  1303               	bcf	3,6	;RP1=0, select bank1
  3765  04EE  07A2               	addwf	___fladd@bexp^(0+128),f
  3766  04EF                     l2074:
  3767  04EF  1683               	bsf	3,5	;RP0=1, select bank1
  3768  04F0  1303               	bcf	3,6	;RP1=0, select bank1
  3769  04F1  0821               	movf	___fladd@aexp^(0+128),w
  3770  04F2  0222               	subwf	___fladd@bexp^(0+128),w
  3771  04F3  1C03               	skipc
  3772  04F4  2CF6               	goto	u3131
  3773  04F5  2CF7               	goto	u3130
  3774  04F6                     u3131:
  3775  04F6  2CC3               	goto	l461
  3776  04F7                     u3130:
  3777  04F7                     l459:
  3778  04F7  1B20               	btfsc	___fladd@signs^(0+128),6
  3779  04F8  2CFA               	goto	u3141
  3780  04F9  2CFB               	goto	u3140
  3781  04FA                     u3141:
  3782  04FA  2D57               	goto	l2100
  3783  04FB                     u3140:
  3784  04FB                     l2076:
  3785  04FB  0822               	movf	___fladd@bexp^(0+128),w
  3786  04FC  1D03               	btfss	3,2
  3787  04FD  2CFF               	goto	u3151
  3788  04FE  2D00               	goto	u3150
  3789  04FF                     u3151:
  3790  04FF  2D0B               	goto	l2082
  3791  0500                     u3150:
  3792  0500                     l2078:
  3793  0500  3000               	movlw	0
  3794  0501  1283               	bcf	3,5	;RP0=0, select bank0
  3795  0502  1303               	bcf	3,6	;RP1=0, select bank0
  3796  0503  00E1               	movwf	?___fladd+3
  3797  0504  3000               	movlw	0
  3798  0505  00E0               	movwf	?___fladd+2
  3799  0506  3000               	movlw	0
  3800  0507  00DF               	movwf	?___fladd+1
  3801  0508  3000               	movlw	0
  3802  0509  00DE               	movwf	?___fladd
  3803  050A  2EB9               	goto	l468
  3804  050B                     l2082:
  3805  050B  1283               	bcf	3,5	;RP0=0, select bank0
  3806  050C  1303               	bcf	3,6	;RP1=0, select bank0
  3807  050D  0862               	movf	___fladd@a,w
  3808  050E  07DE               	addwf	___fladd@b,f
  3809  050F  0863               	movf	___fladd@a+1,w
  3810  0510  1103               	clrz
  3811  0511  1803               	skipnc
  3812  0512  3E01               	addlw	1
  3813  0513  1903               	skipnz
  3814  0514  2D16               	goto	u3161
  3815  0515  07DF               	addwf	___fladd@b+1,f
  3816  0516                     u3161:
  3817  0516  0864               	movf	___fladd@a+2,w
  3818  0517  1103               	clrz
  3819  0518  1803               	skipnc
  3820  0519  3E01               	addlw	1
  3821  051A  1903               	skipnz
  3822  051B  2D1D               	goto	u3162
  3823  051C  07E0               	addwf	___fladd@b+2,f
  3824  051D                     u3162:
  3825  051D  0865               	movf	___fladd@a+3,w
  3826  051E  1103               	clrz
  3827  051F  1803               	skipnc
  3828  0520  3E01               	addlw	1
  3829  0521  1903               	skipnz
  3830  0522  2D24               	goto	u3163
  3831  0523  07E1               	addwf	___fladd@b+3,f
  3832  0524                     u3163:
  3833  0524                     l2084:
  3834  0524  1C61               	btfss	___fladd@b+3,0
  3835  0525  2D27               	goto	u3171
  3836  0526  2D28               	goto	u3170
  3837  0527                     u3171:
  3838  0527  2E1D               	goto	l2134
  3839  0528                     u3170:
  3840  0528                     l2086:
  3841  0528  1683               	bsf	3,5	;RP0=1, select bank1
  3842  0529  1303               	bcf	3,6	;RP1=0, select bank1
  3843  052A  1C23               	btfss	___fladd@grs^(0+128),0
  3844  052B  2D2D               	goto	u3181
  3845  052C  2D2E               	goto	u3180
  3846  052D                     u3181:
  3847  052D  2D3B               	goto	l2090
  3848  052E                     u3180:
  3849  052E                     l2088:
  3850  052E  0823               	movf	___fladd@grs^(0+128),w
  3851  052F  1283               	bcf	3,5	;RP0=0, select bank0
  3852  0530  1303               	bcf	3,6	;RP1=0, select bank0
  3853  0531  00E6               	movwf	??___fladd
  3854  0532  1003               	clrc
  3855  0533  0C66               	rrf	??___fladd,w
  3856  0534  3801               	iorlw	1
  3857  0535  00E7               	movwf	??___fladd+1
  3858  0536  0867               	movf	??___fladd+1,w
  3859  0537  1683               	bsf	3,5	;RP0=1, select bank1
  3860  0538  1303               	bcf	3,6	;RP1=0, select bank1
  3861  0539  00A3               	movwf	___fladd@grs^(0+128)
  3862  053A  2D3D               	goto	l2092
  3863  053B                     l2090:
  3864  053B  1003               	clrc
  3865  053C  0CA3               	rrf	___fladd@grs^(0+128),f
  3866  053D                     l2092:
  3867  053D  1283               	bcf	3,5	;RP0=0, select bank0
  3868  053E  1303               	bcf	3,6	;RP1=0, select bank0
  3869  053F  1C5E               	btfss	___fladd@b,0
  3870  0540  2D42               	goto	u3191
  3871  0541  2D43               	goto	u3190
  3872  0542                     u3191:
  3873  0542  2D46               	goto	l2096
  3874  0543                     u3190:
  3875  0543                     l2094:
  3876  0543  1683               	bsf	3,5	;RP0=1, select bank1
  3877  0544  1303               	bcf	3,6	;RP1=0, select bank1
  3878  0545  17A3               	bsf	___fladd@grs^(0+128),7
  3879  0546                     l2096:
  3880  0546  3001               	movlw	1
  3881  0547  1283               	bcf	3,5	;RP0=0, select bank0
  3882  0548  00E6               	movwf	??___fladd
  3883  0549                     u3205:
  3884  0549  0D61               	rlf	___fladd@b+3,w
  3885  054A  0CE1               	rrf	___fladd@b+3,f
  3886  054B  0CE0               	rrf	___fladd@b+2,f
  3887  054C  0CDF               	rrf	___fladd@b+1,f
  3888  054D  0CDE               	rrf	___fladd@b,f
  3889  054E  0BE6               	decfsz	??___fladd& (0+127),f
  3890  054F  2D49               	goto	u3205
  3891  0550                     l2098:
  3892  0550  3001               	movlw	1
  3893  0551  00E6               	movwf	??___fladd
  3894  0552  0866               	movf	??___fladd,w
  3895  0553  1683               	bsf	3,5	;RP0=1, select bank1
  3896  0554  1303               	bcf	3,6	;RP1=0, select bank1
  3897  0555  07A2               	addwf	___fladd@bexp^(0+128),f
  3898  0556  2E1D               	goto	l2134
  3899  0557                     l2100:
  3900  0557  1283               	bcf	3,5	;RP0=0, select bank0
  3901  0558  1303               	bcf	3,6	;RP1=0, select bank0
  3902  0559  0861               	movf	___fladd@b+3,w
  3903  055A  3A80               	xorlw	128
  3904  055B  00FF               	movwf	btemp+1
  3905  055C  0865               	movf	___fladd@a+3,w
  3906  055D  3A80               	xorlw	128
  3907  055E  027F               	subwf	btemp+1,w
  3908  055F  1D03               	skipz
  3909  0560  2D6B               	goto	u3213
  3910  0561  0864               	movf	___fladd@a+2,w
  3911  0562  0260               	subwf	___fladd@b+2,w
  3912  0563  1D03               	skipz
  3913  0564  2D6B               	goto	u3213
  3914  0565  0863               	movf	___fladd@a+1,w
  3915  0566  025F               	subwf	___fladd@b+1,w
  3916  0567  1D03               	skipz
  3917  0568  2D6B               	goto	u3213
  3918  0569  0862               	movf	___fladd@a,w
  3919  056A  025E               	subwf	___fladd@b,w
  3920  056B                     u3213:
  3921  056B  1803               	skipnc
  3922  056C  2D6E               	goto	u3211
  3923  056D  2D6F               	goto	u3210
  3924  056E                     u3211:
  3925  056E  2DCB               	goto	l2110
  3926  056F                     u3210:
  3927  056F                     l2102:
  3928  056F  30FF               	movlw	255
  3929  0570  00E6               	movwf	??___fladd
  3930  0571  30FF               	movlw	255
  3931  0572  00E7               	movwf	??___fladd+1
  3932  0573  30FF               	movlw	255
  3933  0574  00E8               	movwf	??___fladd+2
  3934  0575  30FF               	movlw	255
  3935  0576  00E9               	movwf	??___fladd+3
  3936  0577  0862               	movf	___fladd@a,w
  3937  0578  00EA               	movwf	??___fladd+4
  3938  0579  0863               	movf	___fladd@a+1,w
  3939  057A  00EB               	movwf	??___fladd+5
  3940  057B  0864               	movf	___fladd@a+2,w
  3941  057C  00EC               	movwf	??___fladd+6
  3942  057D  0865               	movf	___fladd@a+3,w
  3943  057E  00ED               	movwf	??___fladd+7
  3944  057F  085E               	movf	___fladd@b,w
  3945  0580  02EA               	subwf	??___fladd+4,f
  3946  0581  085F               	movf	___fladd@b+1,w
  3947  0582  1C03               	skipc
  3948  0583  0F5F               	incfsz	___fladd@b+1,w
  3949  0584  2D86               	goto	u3221
  3950  0585  2D87               	goto	u3222
  3951  0586                     u3221:
  3952  0586  02EB               	subwf	??___fladd+5,f
  3953  0587                     u3222:
  3954  0587  0860               	movf	___fladd@b+2,w
  3955  0588  1C03               	skipc
  3956  0589  0F60               	incfsz	___fladd@b+2,w
  3957  058A  2D8C               	goto	u3223
  3958  058B  2D8D               	goto	u3224
  3959  058C                     u3223:
  3960  058C  02EC               	subwf	??___fladd+6,f
  3961  058D                     u3224:
  3962  058D  0861               	movf	___fladd@b+3,w
  3963  058E  1C03               	skipc
  3964  058F  0F61               	incfsz	___fladd@b+3,w
  3965  0590  2D92               	goto	u3225
  3966  0591  2D93               	goto	u3226
  3967  0592                     u3225:
  3968  0592  02ED               	subwf	??___fladd+7,f
  3969  0593                     u3226:
  3970  0593  086A               	movf	??___fladd+4,w
  3971  0594  07E6               	addwf	??___fladd,f
  3972  0595  086B               	movf	??___fladd+5,w
  3973  0596  1803               	skipnc
  3974  0597  0F6B               	incfsz	??___fladd+5,w
  3975  0598  2D9A               	goto	u3230
  3976  0599  2D9B               	goto	u3231
  3977  059A                     u3230:
  3978  059A  07E7               	addwf	??___fladd+1,f
  3979  059B                     u3231:
  3980  059B  086C               	movf	??___fladd+6,w
  3981  059C  1803               	skipnc
  3982  059D  0F6C               	incfsz	??___fladd+6,w
  3983  059E  2DA0               	goto	u3232
  3984  059F  2DA1               	goto	u3233
  3985  05A0                     u3232:
  3986  05A0  07E8               	addwf	??___fladd+2,f
  3987  05A1                     u3233:
  3988  05A1  086D               	movf	??___fladd+7,w
  3989  05A2  1803               	skipnc
  3990  05A3  0A6D               	incf	??___fladd+7,w
  3991  05A4  07E9               	addwf	??___fladd+3,f
  3992  05A5  0869               	movf	??___fladd+3,w
  3993  05A6  00E1               	movwf	___fladd@b+3
  3994  05A7  0868               	movf	??___fladd+2,w
  3995  05A8  00E0               	movwf	___fladd@b+2
  3996  05A9  0867               	movf	??___fladd+1,w
  3997  05AA  00DF               	movwf	___fladd@b+1
  3998  05AB  0866               	movf	??___fladd,w
  3999  05AC  00DE               	movwf	___fladd@b
  4000  05AD                     l2104:
  4001  05AD  3080               	movlw	128
  4002  05AE  00E6               	movwf	??___fladd
  4003  05AF  0866               	movf	??___fladd,w
  4004  05B0  1683               	bsf	3,5	;RP0=1, select bank1
  4005  05B1  1303               	bcf	3,6	;RP1=0, select bank1
  4006  05B2  06A0               	xorwf	___fladd@signs^(0+128),f
  4007  05B3  09A3               	comf	___fladd@grs^(0+128),f
  4008  05B4  0AA3               	incf	___fladd@grs^(0+128),f
  4009  05B5                     l2106:
  4010  05B5  0823               	movf	___fladd@grs^(0+128),w
  4011  05B6  1D03               	btfss	3,2
  4012  05B7  2DB9               	goto	u3241
  4013  05B8  2DBA               	goto	u3240
  4014  05B9                     u3241:
  4015  05B9  2DD9               	goto	l476
  4016  05BA                     u3240:
  4017  05BA                     l2108:
  4018  05BA  3001               	movlw	1
  4019  05BB  1283               	bcf	3,5	;RP0=0, select bank0
  4020  05BC  1303               	bcf	3,6	;RP1=0, select bank0
  4021  05BD  07DE               	addwf	___fladd@b,f
  4022  05BE  3000               	movlw	0
  4023  05BF  1803               	skipnc
  4024  05C0  3001               	movlw	1
  4025  05C1  07DF               	addwf	___fladd@b+1,f
  4026  05C2  3000               	movlw	0
  4027  05C3  1803               	skipnc
  4028  05C4  3001               	movlw	1
  4029  05C5  07E0               	addwf	___fladd@b+2,f
  4030  05C6  3000               	movlw	0
  4031  05C7  1803               	skipnc
  4032  05C8  3001               	movlw	1
  4033  05C9  07E1               	addwf	___fladd@b+3,f
  4034  05CA  2DD9               	goto	l476
  4035  05CB                     l2110:
  4036  05CB  0862               	movf	___fladd@a,w
  4037  05CC  02DE               	subwf	___fladd@b,f
  4038  05CD  0863               	movf	___fladd@a+1,w
  4039  05CE  1C03               	skipc
  4040  05CF  0F63               	incfsz	___fladd@a+1,w
  4041  05D0  02DF               	subwf	___fladd@b+1,f
  4042  05D1  0864               	movf	___fladd@a+2,w
  4043  05D2  1C03               	skipc
  4044  05D3  0F64               	incfsz	___fladd@a+2,w
  4045  05D4  02E0               	subwf	___fladd@b+2,f
  4046  05D5  0865               	movf	___fladd@a+3,w
  4047  05D6  1C03               	skipc
  4048  05D7  0F65               	incfsz	___fladd@a+3,w
  4049  05D8  02E1               	subwf	___fladd@b+3,f
  4050  05D9                     l476:
  4051  05D9  1283               	bcf	3,5	;RP0=0, select bank0
  4052  05DA  0861               	movf	___fladd@b+3,w
  4053  05DB  0460               	iorwf	___fladd@b+2,w
  4054  05DC  045F               	iorwf	___fladd@b+1,w
  4055  05DD  045E               	iorwf	___fladd@b,w
  4056  05DE  1D03               	skipz
  4057  05DF  2DE1               	goto	u3251
  4058  05E0  2DE2               	goto	u3250
  4059  05E1                     u3251:
  4060  05E1  2E18               	goto	l2132
  4061  05E2                     u3250:
  4062  05E2                     l2112:
  4063  05E2  1683               	bsf	3,5	;RP0=1, select bank1
  4064  05E3  1303               	bcf	3,6	;RP1=0, select bank1
  4065  05E4  0823               	movf	___fladd@grs^(0+128),w
  4066  05E5  1D03               	btfss	3,2
  4067  05E6  2DE8               	goto	u3261
  4068  05E7  2DE9               	goto	u3260
  4069  05E8                     u3261:
  4070  05E8  2E18               	goto	l2132
  4071  05E9                     u3260:
  4072  05E9                     l2114:
  4073  05E9  3000               	movlw	0
  4074  05EA  1283               	bcf	3,5	;RP0=0, select bank0
  4075  05EB  1303               	bcf	3,6	;RP1=0, select bank0
  4076  05EC  00E1               	movwf	?___fladd+3
  4077  05ED  3000               	movlw	0
  4078  05EE  00E0               	movwf	?___fladd+2
  4079  05EF  3000               	movlw	0
  4080  05F0  00DF               	movwf	?___fladd+1
  4081  05F1  3000               	movlw	0
  4082  05F2  00DE               	movwf	?___fladd
  4083  05F3  2EB9               	goto	l468
  4084  05F4                     l2118:
  4085  05F4  3001               	movlw	1
  4086  05F5  00E6               	movwf	??___fladd
  4087  05F6                     u3275:
  4088  05F6  1003               	clrc
  4089  05F7  0DDE               	rlf	___fladd@b,f
  4090  05F8  0DDF               	rlf	___fladd@b+1,f
  4091  05F9  0DE0               	rlf	___fladd@b+2,f
  4092  05FA  0DE1               	rlf	___fladd@b+3,f
  4093  05FB  0BE6               	decfsz	??___fladd,f
  4094  05FC  2DF6               	goto	u3275
  4095  05FD                     l2120:
  4096  05FD  1683               	bsf	3,5	;RP0=1, select bank1
  4097  05FE  1303               	bcf	3,6	;RP1=0, select bank1
  4098  05FF  1FA3               	btfss	___fladd@grs^(0+128),7
  4099  0600  2E02               	goto	u3281
  4100  0601  2E03               	goto	u3280
  4101  0602                     u3281:
  4102  0602  2E06               	goto	l480
  4103  0603                     u3280:
  4104  0603                     l2122:
  4105  0603  1283               	bcf	3,5	;RP0=0, select bank0
  4106  0604  1303               	bcf	3,6	;RP1=0, select bank0
  4107  0605  145E               	bsf	___fladd@b,0
  4108  0606                     l480:
  4109  0606  1683               	bsf	3,5	;RP0=1, select bank1
  4110  0607  1303               	bcf	3,6	;RP1=0, select bank1
  4111  0608  1C23               	btfss	___fladd@grs^(0+128),0
  4112  0609  2E0B               	goto	u3291
  4113  060A  2E0C               	goto	u3290
  4114  060B                     u3291:
  4115  060B  2E0F               	goto	l2126
  4116  060C                     u3290:
  4117  060C                     l2124:
  4118  060C  1403               	setc
  4119  060D  0DA3               	rlf	___fladd@grs^(0+128),f
  4120  060E  2E11               	goto	l2128
  4121  060F                     l2126:
  4122  060F  1003               	clrc
  4123  0610  0DA3               	rlf	___fladd@grs^(0+128),f
  4124  0611                     l2128:
  4125  0611  0822               	movf	___fladd@bexp^(0+128),w
  4126  0612  1903               	btfsc	3,2
  4127  0613  2E15               	goto	u3301
  4128  0614  2E16               	goto	u3300
  4129  0615                     u3301:
  4130  0615  2E18               	goto	l2132
  4131  0616                     u3300:
  4132  0616                     l2130:
  4133  0616  3001               	movlw	1
  4134  0617  02A2               	subwf	___fladd@bexp^(0+128),f
  4135  0618                     l2132:
  4136  0618  1283               	bcf	3,5	;RP0=0, select bank0
  4137  0619  1FE0               	btfss	___fladd@b+2,7
  4138  061A  2E1C               	goto	u3311
  4139  061B  2E1D               	goto	u3310
  4140  061C                     u3311:
  4141  061C  2DF4               	goto	l2118
  4142  061D                     u3310:
  4143  061D                     l2134:
  4144  061D  1683               	bsf	3,5	;RP0=1, select bank1
  4145  061E  1303               	bcf	3,6	;RP1=0, select bank1
  4146  061F  01A1               	clrf	___fladd@aexp^(0+128)
  4147  0620                     l2136:
  4148  0620  1FA3               	btfss	___fladd@grs^(0+128),7
  4149  0621  2E23               	goto	u3321
  4150  0622  2E24               	goto	u3320
  4151  0623                     u3321:
  4152  0623  2E36               	goto	l2144
  4153  0624                     u3320:
  4154  0624                     l2138:
  4155  0624  0823               	movf	___fladd@grs^(0+128),w
  4156  0625  397F               	andlw	127
  4157  0626  1903               	btfsc	3,2
  4158  0627  2E29               	goto	u3331
  4159  0628  2E2A               	goto	u3330
  4160  0629                     u3331:
  4161  0629  2E2F               	goto	l486
  4162  062A                     u3330:
  4163  062A                     l2140:
  4164  062A  1683               	bsf	3,5	;RP0=1, select bank1
  4165  062B  1303               	bcf	3,6	;RP1=0, select bank1
  4166  062C  01A1               	clrf	___fladd@aexp^(0+128)
  4167  062D  0AA1               	incf	___fladd@aexp^(0+128),f
  4168  062E  2E36               	goto	l2144
  4169  062F                     l486:
  4170  062F  1283               	bcf	3,5	;RP0=0, select bank0
  4171  0630  1303               	bcf	3,6	;RP1=0, select bank0
  4172  0631  1C5E               	btfss	___fladd@b,0
  4173  0632  2E34               	goto	u3341
  4174  0633  2E35               	goto	u3340
  4175  0634                     u3341:
  4176  0634  2E36               	goto	l2144
  4177  0635                     u3340:
  4178  0635  2E2A               	goto	l2140
  4179  0636                     l2144:
  4180  0636  1683               	bsf	3,5	;RP0=1, select bank1
  4181  0637  1303               	bcf	3,6	;RP1=0, select bank1
  4182  0638  0821               	movf	___fladd@aexp^(0+128),w
  4183  0639  1903               	btfsc	3,2
  4184  063A  2E3C               	goto	u3351
  4185  063B  2E3D               	goto	u3350
  4186  063C                     u3351:
  4187  063C  2E79               	goto	l489
  4188  063D                     u3350:
  4189  063D                     l2146:
  4190  063D  3001               	movlw	1
  4191  063E  1283               	bcf	3,5	;RP0=0, select bank0
  4192  063F  1303               	bcf	3,6	;RP1=0, select bank0
  4193  0640  07DE               	addwf	___fladd@b,f
  4194  0641  3000               	movlw	0
  4195  0642  1803               	skipnc
  4196  0643  3001               	movlw	1
  4197  0644  07DF               	addwf	___fladd@b+1,f
  4198  0645  3000               	movlw	0
  4199  0646  1803               	skipnc
  4200  0647  3001               	movlw	1
  4201  0648  07E0               	addwf	___fladd@b+2,f
  4202  0649  3000               	movlw	0
  4203  064A  1803               	skipnc
  4204  064B  3001               	movlw	1
  4205  064C  07E1               	addwf	___fladd@b+3,f
  4206  064D                     l2148:
  4207  064D  1C61               	btfss	___fladd@b+3,0
  4208  064E  2E50               	goto	u3361
  4209  064F  2E51               	goto	u3360
  4210  0650                     u3361:
  4211  0650  2E79               	goto	l489
  4212  0651                     u3360:
  4213  0651                     l2150:
  4214  0651  085E               	movf	___fladd@b,w
  4215  0652  00E6               	movwf	??___fladd
  4216  0653  085F               	movf	___fladd@b+1,w
  4217  0654  00E7               	movwf	??___fladd+1
  4218  0655  0860               	movf	___fladd@b+2,w
  4219  0656  00E8               	movwf	??___fladd+2
  4220  0657  0861               	movf	___fladd@b+3,w
  4221  0658  00E9               	movwf	??___fladd+3
  4222  0659  3001               	movlw	1
  4223  065A  00EA               	movwf	??___fladd+4
  4224  065B                     u3375:
  4225  065B  0D69               	rlf	??___fladd+3,w
  4226  065C  0CE9               	rrf	??___fladd+3,f
  4227  065D  0CE8               	rrf	??___fladd+2,f
  4228  065E  0CE7               	rrf	??___fladd+1,f
  4229  065F  0CE6               	rrf	??___fladd,f
  4230  0660                     u3370:
  4231  0660  0BEA               	decfsz	??___fladd+4,f
  4232  0661  2E5B               	goto	u3375
  4233  0662  0869               	movf	??___fladd+3,w
  4234  0663  00E1               	movwf	___fladd@b+3
  4235  0664  0868               	movf	??___fladd+2,w
  4236  0665  00E0               	movwf	___fladd@b+2
  4237  0666  0867               	movf	??___fladd+1,w
  4238  0667  00DF               	movwf	___fladd@b+1
  4239  0668  0866               	movf	??___fladd,w
  4240  0669  00DE               	movwf	___fladd@b
  4241  066A  1683               	bsf	3,5	;RP0=1, select bank1
  4242  066B  1303               	bcf	3,6	;RP1=0, select bank1
  4243  066C  0A22               	incf	___fladd@bexp^(0+128),w
  4244  066D  1903               	btfsc	3,2
  4245  066E  2E70               	goto	u3381
  4246  066F  2E71               	goto	u3380
  4247  0670                     u3381:
  4248  0670  2E79               	goto	l489
  4249  0671                     u3380:
  4250  0671                     l2152:
  4251  0671  3001               	movlw	1
  4252  0672  1283               	bcf	3,5	;RP0=0, select bank0
  4253  0673  1303               	bcf	3,6	;RP1=0, select bank0
  4254  0674  00E6               	movwf	??___fladd
  4255  0675  0866               	movf	??___fladd,w
  4256  0676  1683               	bsf	3,5	;RP0=1, select bank1
  4257  0677  1303               	bcf	3,6	;RP1=0, select bank1
  4258  0678  07A2               	addwf	___fladd@bexp^(0+128),f
  4259  0679                     l489:
  4260  0679  1683               	bsf	3,5	;RP0=1, select bank1
  4261  067A  1303               	bcf	3,6	;RP1=0, select bank1
  4262  067B  0A22               	incf	___fladd@bexp^(0+128),w
  4263  067C  1903               	btfsc	3,2
  4264  067D  2E7F               	goto	u3391
  4265  067E  2E80               	goto	u3390
  4266  067F                     u3391:
  4267  067F  2E85               	goto	l2156
  4268  0680                     u3390:
  4269  0680                     l2154:
  4270  0680  0822               	movf	___fladd@bexp^(0+128),w
  4271  0681  1D03               	btfss	3,2
  4272  0682  2E84               	goto	u3401
  4273  0683  2E85               	goto	u3400
  4274  0684                     u3401:
  4275  0684  2E97               	goto	l2162
  4276  0685                     u3400:
  4277  0685                     l2156:
  4278  0685  3000               	movlw	0
  4279  0686  1283               	bcf	3,5	;RP0=0, select bank0
  4280  0687  1303               	bcf	3,6	;RP1=0, select bank0
  4281  0688  00E1               	movwf	___fladd@b+3
  4282  0689  3000               	movlw	0
  4283  068A  00E0               	movwf	___fladd@b+2
  4284  068B  3000               	movlw	0
  4285  068C  00DF               	movwf	___fladd@b+1
  4286  068D  3000               	movlw	0
  4287  068E  00DE               	movwf	___fladd@b
  4288  068F                     l2158:
  4289  068F  1683               	bsf	3,5	;RP0=1, select bank1
  4290  0690  1303               	bcf	3,6	;RP1=0, select bank1
  4291  0691  0822               	movf	___fladd@bexp^(0+128),w
  4292  0692  1D03               	btfss	3,2
  4293  0693  2E95               	goto	u3411
  4294  0694  2E96               	goto	u3410
  4295  0695                     u3411:
  4296  0695  2E97               	goto	l2162
  4297  0696                     u3410:
  4298  0696                     l2160:
  4299  0696  01A0               	clrf	___fladd@signs^(0+128)
  4300  0697                     l2162:
  4301  0697  1C22               	btfss	___fladd@bexp^(0+128),0
  4302  0698  2E9A               	goto	u3421
  4303  0699  2E9B               	goto	u3420
  4304  069A                     u3421:
  4305  069A  2E9F               	goto	l2166
  4306  069B                     u3420:
  4307  069B                     l2164:
  4308  069B  1283               	bcf	3,5	;RP0=0, select bank0
  4309  069C  1303               	bcf	3,6	;RP1=0, select bank0
  4310  069D  17E0               	bsf	___fladd@b+2,7
  4311  069E  2EA5               	goto	l497
  4312  069F                     l2166:
  4313  069F  307F               	movlw	127
  4314  06A0  1283               	bcf	3,5	;RP0=0, select bank0
  4315  06A1  1303               	bcf	3,6	;RP1=0, select bank0
  4316  06A2  00E6               	movwf	??___fladd
  4317  06A3  0866               	movf	??___fladd,w
  4318  06A4  05E0               	andwf	___fladd@b+2,f
  4319  06A5                     l497:
  4320  06A5  1683               	bsf	3,5	;RP0=1, select bank1
  4321  06A6  1303               	bcf	3,6	;RP1=0, select bank1
  4322  06A7  0822               	movf	___fladd@bexp^(0+128),w
  4323  06A8  1283               	bcf	3,5	;RP0=0, select bank0
  4324  06A9  1303               	bcf	3,6	;RP1=0, select bank0
  4325  06AA  00E6               	movwf	??___fladd
  4326  06AB  1003               	clrc
  4327  06AC  0C66               	rrf	??___fladd,w
  4328  06AD  00E7               	movwf	??___fladd+1
  4329  06AE  0867               	movf	??___fladd+1,w
  4330  06AF  00E1               	movwf	___fladd@b+3
  4331  06B0                     l2168:
  4332  06B0  1683               	bsf	3,5	;RP0=1, select bank1
  4333  06B1  1303               	bcf	3,6	;RP1=0, select bank1
  4334  06B2  1FA0               	btfss	___fladd@signs^(0+128),7
  4335  06B3  2EB5               	goto	u3431
  4336  06B4  2EB6               	goto	u3430
  4337  06B5                     u3431:
  4338  06B5  2EB9               	goto	l498
  4339  06B6                     u3430:
  4340  06B6                     l2170:
  4341  06B6  1283               	bcf	3,5	;RP0=0, select bank0
  4342  06B7  1303               	bcf	3,6	;RP1=0, select bank0
  4343  06B8  17E1               	bsf	___fladd@b+3,7
  4344  06B9                     l498:
  4345  06B9                     l468:
  4346  06B9  0008               	return
  4347  06BA                     __end_of___fladd:
  4348                           
  4349                           	psect	text9
  4350  0C89                     __ptext9:	
  4351 ;; *************** function _isr *****************
  4352 ;; Defined at:
  4353 ;;		line 39 in file "SPI_SLAVE_2.c"
  4354 ;; Parameters:    Size  Location     Type
  4355 ;;		None
  4356 ;; Auto vars:     Size  Location     Type
  4357 ;;		None
  4358 ;; Return value:  Size  Location     Type
  4359 ;;                  1    wreg      void 
  4360 ;; Registers used:
  4361 ;;		wreg
  4362 ;; Tracked objects:
  4363 ;;		On entry : 0/0
  4364 ;;		On exit  : 0/0
  4365 ;;		Unchanged: 0/0
  4366 ;; Data sizes:     COMMON   BANK0   BANK1   BANK3   BANK2
  4367 ;;      Params:         0       0       0       0       0
  4368 ;;      Locals:         0       0       0       0       0
  4369 ;;      Temps:          3       0       0       0       0
  4370 ;;      Totals:         3       0       0       0       0
  4371 ;;Total ram usage:        3 bytes
  4372 ;; Hardware stack levels used: 1
  4373 ;; This function calls:
  4374 ;;		Nothing
  4375 ;; This function is called by:
  4376 ;;		Interrupt level 1
  4377 ;; This function uses a non-reentrant model
  4378 ;;
  4379                           
  4380  0C89                     _isr:	
  4381                           ;psect for function _isr
  4382                           
  4383  0C89                     i1l1912:
  4384                           
  4385                           ;SPI_SLAVE_2.c: 40:     if (PIR1bits.SSPIF){
  4386  0C89  1283               	bcf	3,5	;RP0=0, select bank0
  4387  0C8A  1303               	bcf	3,6	;RP1=0, select bank0
  4388  0C8B  1D8C               	btfss	12,3	;volatile
  4389  0C8C  2C8E               	goto	u283_21
  4390  0C8D  2C8F               	goto	u283_20
  4391  0C8E                     u283_21:
  4392  0C8E  2CAA               	goto	i1l59
  4393  0C8F                     u283_20:
  4394  0C8F                     i1l1914:
  4395                           
  4396                           ;SPI_SLAVE_2.c: 41:         SSPBUF = 0xDD;
  4397  0C8F  30DD               	movlw	221
  4398  0C90  0093               	movwf	19	;volatile
  4399                           
  4400                           ;SPI_SLAVE_2.c: 42:         _delay((unsigned long)((1)*(1000000/4000.0)));
  4401  0C91  3053               	movlw	83
  4402  0C92  00F0               	movwf	??_isr
  4403  0C93                     u424_27:
  4404  0C93  0BF0               	decfsz	??_isr,f
  4405  0C94  2C93               	goto	u424_27
  4406  0C95                     i1l56:	
  4407                           ;SPI_SLAVE_2.c: 44:         while (!SSPSTATbits.BF){}
  4408                           
  4409  0C95  1683               	bsf	3,5	;RP0=1, select bank1
  4410  0C96  1303               	bcf	3,6	;RP1=0, select bank1
  4411  0C97  1C14               	btfss	20,0	;volatile
  4412  0C98  2C9A               	goto	u284_21
  4413  0C99  2C9B               	goto	u284_20
  4414  0C9A                     u284_21:
  4415  0C9A  2C95               	goto	i1l56
  4416  0C9B                     u284_20:
  4417  0C9B                     i1l1916:
  4418                           
  4419                           ;SPI_SLAVE_2.c: 45:         PWM = SSPBUF;
  4420  0C9B  1283               	bcf	3,5	;RP0=0, select bank0
  4421  0C9C  1303               	bcf	3,6	;RP1=0, select bank0
  4422  0C9D  0813               	movf	19,w	;volatile
  4423  0C9E  00F0               	movwf	??_isr
  4424  0C9F  0870               	movf	??_isr,w
  4425  0CA0  1683               	bsf	3,5	;RP0=1, select bank1
  4426  0CA1  1303               	bcf	3,6	;RP1=0, select bank1
  4427  0CA2  00B5               	movwf	_PWM^(0+128)
  4428                           
  4429                           ;SPI_SLAVE_2.c: 47:         _delay((unsigned long)((1)*(1000000/4000.0)));
  4430  0CA3  3053               	movlw	83
  4431  0CA4  00F0               	movwf	??_isr
  4432  0CA5                     u425_27:
  4433  0CA5  0BF0               	decfsz	??_isr,f
  4434  0CA6  2CA5               	goto	u425_27
  4435  0CA7                     i1l1918:
  4436                           
  4437                           ;SPI_SLAVE_2.c: 49:         PIR1bits.SSPIF = 0;
  4438  0CA7  1283               	bcf	3,5	;RP0=0, select bank0
  4439  0CA8  1303               	bcf	3,6	;RP1=0, select bank0
  4440  0CA9  118C               	bcf	12,3	;volatile
  4441  0CAA                     i1l59:
  4442  0CAA  0872               	movf	??_isr+2,w
  4443  0CAB  008A               	movwf	10
  4444  0CAC  0E71               	swapf	??_isr+1,w
  4445  0CAD  0083               	movwf	3
  4446  0CAE  0EFE               	swapf	btemp,f
  4447  0CAF  0E7E               	swapf	btemp,w
  4448  0CB0  0009               	retfie
  4449  0CB1                     __end_of_isr:
  4450  007E                     btemp	set	126	;btemp
  4451  007E                     wtemp0	set	126
  4452                           
  4453                           	psect	intentry
  4454  0004                     __pintentry:	
  4455                           ;incstack = 0
  4456                           ; Regs used in _isr: [wreg]
  4457                           
  4458  0004                     interrupt_function:
  4459  007E                     saved_w	set	btemp
  4460  0004  00FE               	movwf	btemp
  4461  0005  0E03               	swapf	3,w
  4462  0006  00F1               	movwf	??_isr+1
  4463  0007  080A               	movf	10,w
  4464  0008  00F2               	movwf	??_isr+2
  4465  0009  120A  158A  2C89   	ljmp	_isr
  4466                           
  4467                           	psect	idloc
  4468                           
  4469                           ;Config register IDLOC0 @ 0x2000
  4470                           ;	unspecified, using default values
  4471  2000                     	org	8192
  4472  2000  3FFF               	dw	16383
  4473                           
  4474                           ;Config register IDLOC1 @ 0x2001
  4475                           ;	unspecified, using default values
  4476  2001                     	org	8193
  4477  2001  3FFF               	dw	16383
  4478                           
  4479                           ;Config register IDLOC2 @ 0x2002
  4480                           ;	unspecified, using default values
  4481  2002                     	org	8194
  4482  2002  3FFF               	dw	16383
  4483                           
  4484                           ;Config register IDLOC3 @ 0x2003
  4485                           ;	unspecified, using default values
  4486  2003                     	org	8195
  4487  2003  3FFF               	dw	16383
  4488                           
  4489                           	psect	config
  4490                           
  4491                           ;Config register CONFIG1 @ 0x2007
  4492                           ;	Oscillator Selection bits
  4493                           ;	FOSC = INTRC_NOCLKOUT, INTOSCIO oscillator: I/O function on RA6/OSC2/CLKOUT pin, I/O f
      +                          unction on RA7/OSC1/CLKIN
  4494                           ;	Watchdog Timer Enable bit
  4495                           ;	WDTE = OFF, WDT disabled and can be enabled by SWDTEN bit of the WDTCON register
  4496                           ;	Power-up Timer Enable bit
  4497                           ;	PWRTE = OFF, PWRT disabled
  4498                           ;	RE3/MCLR pin function select bit
  4499                           ;	MCLRE = OFF, RE3/MCLR pin function is digital input, MCLR internally tied to VDD
  4500                           ;	Code Protection bit
  4501                           ;	CP = OFF, Program memory code protection is disabled
  4502                           ;	Data Code Protection bit
  4503                           ;	CPD = OFF, Data memory code protection is disabled
  4504                           ;	Brown Out Reset Selection bits
  4505                           ;	BOREN = OFF, BOR disabled
  4506                           ;	Internal External Switchover bit
  4507                           ;	IESO = OFF, Internal/External Switchover mode is disabled
  4508                           ;	Fail-Safe Clock Monitor Enabled bit
  4509                           ;	FCMEN = OFF, Fail-Safe Clock Monitor is disabled
  4510                           ;	Low Voltage Programming Enable bit
  4511                           ;	LVP = OFF, RB3 pin has digital I/O, HV on MCLR must be used for programming
  4512                           ;	In-Circuit Debugger Mode bit
  4513                           ;	DEBUG = 0x1, unprogrammed default
  4514  2007                     	org	8199
  4515  2007  20D4               	dw	8404
  4516                           
  4517                           ;Config register CONFIG2 @ 0x2008
  4518                           ;	Brown-out Reset Selection bit
  4519                           ;	BOR4V = BOR40V, Brown-out Reset set to 4.0V
  4520                           ;	Flash Program Memory Self Write Enable bits
  4521                           ;	WRT = OFF, Write protection off
  4522  2008                     	org	8200
  4523  2008  3FFF               	dw	16383

Data Sizes:
    Strings     0
    Constant    0
    Data        0
    BSS         4
    Persistent  0
    Stack       0

Auto Spaces:
    Space          Size  Autos    Used
    COMMON           14     10      11
    BANK0            80     80      80
    BANK1            80     19      22
    BANK3            96      0       0
    BANK2            96      0       0

Pointer List with Targets:

    None.

Critical Paths under _main in COMMON

    _main->_map
    _map->___fltol
    ___fltol->___xxtofl
    ___flmul->__Umul8_16
    ___flmul->___xxtofl
    ___fldiv->___xxtofl
    ___fladd->___xxtofl

Critical Paths under _isr in COMMON

    None.

Critical Paths under _main in BANK0

    _map->___fladd
    ___fltol->___fladd
    ___flmul->___fldiv
    ___fldiv->___xxtofl
    ___fladd->___flmul

Critical Paths under _isr in BANK0

    None.

Critical Paths under _main in BANK1

    _main->_map
    _map->___fltol
    ___fltol->___fladd

Critical Paths under _isr in BANK1

    None.

Critical Paths under _main in BANK3

    None.

Critical Paths under _isr in BANK3

    None.

Critical Paths under _main in BANK2

    None.

Critical Paths under _isr in BANK2

    None.

Call Graph Tables:

 ---------------------------------------------------------------------------------
 (Depth) Function   	        Calls       Base Space   Used Autos Params    Refs
 ---------------------------------------------------------------------------------
 (0) _main                                                 2     2      0   10318
                                             78 BANK0      2     2      0
                                _map
                              _setup
 ---------------------------------------------------------------------------------
 (1) _setup                                                0     0      0       0
 ---------------------------------------------------------------------------------
 (1) _map                                                  7     1      6   10318
                                              9 COMMON     1     1      0
                                             13 BANK1      6     0      6
                            ___fladd
                            ___fldiv
                            ___flmul
                            ___fltol
                           ___xxtofl
 ---------------------------------------------------------------------------------
 (2) ___xxtofl                                            14    10      4     836
                                              3 COMMON     4     0      4
                                              0 BANK0     10    10      0
 ---------------------------------------------------------------------------------
 (2) ___fltol                                             11     7      4     427
                                              7 COMMON     2     2      0
                                              4 BANK1      9     5      4
                            ___fladd (ARG)
                            ___fldiv (ARG)
                            ___flmul (ARG)
                           ___xxtofl (ARG)
 ---------------------------------------------------------------------------------
 (2) ___flmul                                             26    18      8    3353
                                             36 BANK0     26    18      8
                          __Umul8_16
                            ___fldiv (ARG)
                           ___xxtofl (ARG)
 ---------------------------------------------------------------------------------
 (3) __Umul8_16                                            9     7      2     980
                                              3 COMMON     4     2      2
                                              0 BANK0      5     5      0
 ---------------------------------------------------------------------------------
 (2) ___fldiv                                             26    18      8    1863
                                             10 BANK0     26    18      8
                           ___xxtofl (ARG)
 ---------------------------------------------------------------------------------
 (2) ___fladd                                             20    12      8    3262
                                             62 BANK0     16     8      8
                                              0 BANK1      4     4      0
                            ___fldiv (ARG)
                            ___flmul (ARG)
                           ___xxtofl (ARG)
 ---------------------------------------------------------------------------------
 Estimated maximum stack depth 3
 ---------------------------------------------------------------------------------
 (Depth) Function   	        Calls       Base Space   Used Autos Params    Refs
 ---------------------------------------------------------------------------------
 (4) _isr                                                  3     3      0       0
                                              0 COMMON     3     3      0
 ---------------------------------------------------------------------------------
 Estimated maximum stack depth 4
 ---------------------------------------------------------------------------------

 Call Graph Graphs:

 _main (ROOT)
   _map
     ___fladd
       ___fldiv (ARG)
         ___xxtofl (ARG)
       ___flmul (ARG)
         __Umul8_16
         ___fldiv (ARG)
         ___xxtofl (ARG)
       ___xxtofl (ARG)
     ___fldiv
     ___flmul
     ___fltol
       ___fladd (ARG)
       ___fldiv (ARG)
       ___flmul (ARG)
       ___xxtofl (ARG)
     ___xxtofl
   _setup

 _isr (ROOT)

 Address spaces:
Name               Size   Autos  Total    Cost      Usage
BITCOMMON            E      0       0       0        0.0%
EEDATA             100      0       0       0        0.0%
NULL                 0      0       0       0        0.0%
CODE                 0      0       0       0        0.0%
COMMON               E      A       B       1       78.6%
BITSFR0              0      0       0       1        0.0%
SFR0                 0      0       0       1        0.0%
BITSFR1              0      0       0       2        0.0%
SFR1                 0      0       0       2        0.0%
STACK                0      0       0       2        0.0%
ABS                  0      0      71       3        0.0%
BITBANK0            50      0       0       4        0.0%
BITSFR3              0      0       0       4        0.0%
SFR3                 0      0       0       4        0.0%
BANK0               50     50      50       5      100.0%
BITSFR2              0      0       0       5        0.0%
SFR2                 0      0       0       5        0.0%
BITBANK1            50      0       0       6        0.0%
BANK1               50     13      16       7       27.5%
BITBANK3            60      0       0       8        0.0%
BANK3               60      0       0       9        0.0%
BITBANK2            60      0       0      10        0.0%
BANK2               60      0       0      11        0.0%
DATA                 0      0      71      12        0.0%


Microchip Technology PIC Macro Assembler V2.35 build 20211206165544 
Symbol Table                                                                                   Wed May 11 19:35:31 2022

           ___fldiv@aexp 0043             ___fldiv@bexp 0042             ___fldiv@sign 003B  
            _SSPSTATbits 0094                       l70 0D5C                       l72 0D60  
                     l73 0D6C                       l76 0E22      __Umul8_16@word_mpld 0022  
                    l511 0E7F                      l513 0FFF                      l601 0723  
                    l355 07DC                      l348 07F1                      l461 04C3  
                    l533 0FE3                      l358 07F1                      l455 03FF  
                    l535 0FF3                      l527 0F71                      l551 0379  
                    l480 0606                      l608 073F                      l609 074B  
                    l570 0CC7                      l459 04F7                      l563 036D  
                    l476 05D9                      l468 06B9                      l572 0CD9  
                    l557 02E5                      l486 062F                      l497 06A5  
                    l489 0679                      l498 06B9                      l595 06DE  
                    l597 0775                      _PR2 0092                      _PWM 00B5  
                    _map 0D6D                      _isr 0C89             ___flmul@aexp 0052  
           ___flmul@bexp 0057             ___flmul@sign 0051             ___flmul@temp 005C  
           ___flmul@prod 0058             ___fltol@exp1 0078                     l2000 03C1  
                   l2010 03DB                     l2002 03C7                     l2100 0557  
                   l2012 03E2                     l2020 03F5                     l2004 03C8  
                   l2102 056F                     l2110 05CB                     l2030 0423  
                   l2022 0407                     l2014 03E7                     l2006 03D2  
                   l2120 05FD                     l2112 05E2                     l2104 05AD  
                   l2040 0447                     l2032 042B                     l2024 040B  
                   l2016 03F1                     l2008 03D8                     l2200 0E62  
                   l2130 0616                     l2122 0603                     l2114 05E9  
                   l2106 05B5                     l2050 0469                     l2042 044D  
                   l2034 0433                     l2026 0413                     l2018 03F3  
                   l2202 0E67                     l2210 0E77                     l2140 062A  
                   l2124 060C                     l2132 0618                     l2108 05BA  
                   l2060 049D                     l2052 046F                     l2044 0455  
                   l2036 0439                     l2028 041B                     l2300 0FDA  
                   l2212 0E87                     l2220 0EA0                     l2204 0E6C  
                   l2150 0651                     l2126 060F                     l2118 05F4  
                   l2134 061D                     l2070 04DF                     l2062 04C7  
                   l2054 0475                     l2046 045B                     l2038 0441  
                   l2302 0FE2                     l2230 0EC8                     l2222 0EA5  
                   l2214 0E93                     l2206 0E74                     l2160 0696  
                   l2152 0671                     l2144 0636                     l2136 0620  
                   l2128 0611                     l2072 04E9                     l2064 04D4  
                   l2048 0461                     l2056 047D                     l2304 0FE9  
                   l2240 0EF1                     l2232 0ED0                     l2216 0E97  
                   l2208 0E75                     l2400 02A8                     l2320 002A  
                   l2170 06B6                     l2162 0697                     l2154 0680  
                   l2146 063D                     l2138 0624                     l2090 053B  
                   l2082 050B                     l2066 04D6                     l2074 04EF  
                   l2058 0480                     l2306 0FED                     l2250 0F12  
                   l2242 0EF5                     l2234 0ED8                     l2226 0EAE  
                   l2402 02B1                     l2410 02C5                     l2330 003F  
                   l2322 002B                     l2314 0019                     l2164 069B  
                   l2156 0685                     l2148 064D                     l2092 053D  
                   l2084 0524                     l2076 04FB                     l2068 04DC  
                   l2308 0FEF                     l2260 0F34                     l2252 0F20  
                   l2244 0EF6                     l2236 0EDA                     l2228 0EC0  
                   l2180 0E35                     l2172 0E23                     l2412 02C9  
                   l2404 02B5                     l2340 0057                     l2332 0047  
                   l2324 0030                     l2316 0020                     l2166 069F  
                   l2158 068F                     l2094 0543                     l2086 0528  
                   l2078 0500                     l2262 0F3D                     l2270 0F51  
                   l2238 0EDF                     l2246 0EFF                     l2254 0F24  
                   l2182 0E3A                     l2190 0E4A                     l2174 0E2A  
                   l2430 031A                     l2422 02EA                     l2414 02CA  
                   l2406 02B6                     l2350 0073                     l2342 005C  
                   l2334 004C                     l2326 0035                     l2318 0026  
                   l2502 0CDA                     l2168 06B0                     l2096 0546  
                   l2088 052E                     l2272 0F55                     l2264 0F41  
                   l2256 0F2A                     l2248 0F11                     l2192 0E52  
                   l2184 0E3F                     l2176 0E30                     l2440 0351  
                   l2424 02EF                     l2432 0320                     l2416 02CE  
                   l2408 02BF                     l2360 0096                     l2352 0078  
                   l2344 0061                     l2336 0052                     l2328 003D  
                   l2504 0CDF                     l2098 0550                     l2290 0FA6  
                   l2282 0F76                     l2274 0F56                     l2266 0F42  
                   l2258 0F32                     l2194 0E57                     l2186 0E47  
                   l2178 0E34                     l2450 0371                     l2442 0353  
                   l2434 032D                     l2426 02FD                     l2418 02E2  
                   l2370 0124                     l2362 00A3                     l2354 007D  
                   l2346 0069                     l2338 0056                     l2506 0CFE  
                   l2284 0F7B                     l2292 0FAC                     l2276 0F5A  
                   l2268 0F4B                     l2196 0E5D                     l2188 0E48  
                   l2444 0361                     l2436 0338                     l2428 0301  
                   l2380 0186                     l2372 0140                     l2364 00C0  
                   l2348 006B                     l2460 06D6                     l1900 0D54  
                   l2508 0D10                     l2294 0FB9                     l2286 0F89  
                   l2278 0F6E                     l2198 0E61                     l2446 0365  
                   l2438 0347                     l2390 0216                     l2382 01A3  
                   l2374 0149                     l2366 00DC                     l2358 0086  
                   l2470 0701                     l2462 06E6                     l2454 06BD  
                   l1902 0D58                     l2296 0FC7                     l2288 0F8D  
                   l2448 0366                     l2392 0243                     l2384 01BC  
                   l2376 0159                     l2368 0108                     l2480 0735  
                   l2472 0708                     l2456 06C2                     l1904 0D59  
                   l2298 0FD6                     l1930 0CB6                     l2394 0269  
                   l2386 01D9                     l2378 0176                     l2490 0768  
                   l2482 0739                     l2474 070C                     l2466 06EF  
                   l2458 06C6                     l1906 0D5B                     l1932 0CBD  
                   l2396 0291                     l2388 0206                     l2492 076C  
                   l2484 0743                     l2476 071A                     l2468 06F4  
                   l1934 0CC1                     l2398 029A                     l1950 07A1  
                   l1942 0776                     l2494 076D                     l2486 074D  
                   l2478 072A                     l1870 0D25                     l1936 0CD0  
                   l1928 0CB4                     l1952 07A2                     l1944 0783  
                   l2488 0763                     l1880 0D3A                     l1872 0D29  
                   l1938 0CD5                     l1954 07AA                     l2498 0D6E  
                   l1890 0D46                     l1882 0D40                     l1874 0D30  
                   l1980 0383                     l1972 07D1                     l1964 07B8  
                   l1956 07AC                     l1948 078C                     l1892 0D47  
                   l1884 0D41                     l1876 0D33                     l1868 0D21  
                   l1990 03A2                     l1982 038D                     l1974 07E1  
                   l1958 07B0                     l1966 07CA                     l1894 0D4C  
                   l1886 0D42                     l1878 0D39                     ?_map 00AD  
                   l1992 03AC                     l1984 0393                     l1976 07E6  
                   l1896 0D4E                     l1888 0D45                     l1994 03AE  
                   l1986 0396                     l1978 037A                     l1898 0D52  
                   l1988 039D                     l1996 03B0                     l1998 03BA  
                   ?_isr 0070                     _CCP1 00B3                     u3000 03A2  
                   u3001 03A1                     u3010 03C7                     u3011 03C6  
                   u3100 04C7                     u3020 03D8                     u3101 04C6  
                   u3021 03D7                     u3110 04DC                     u3030 03E2  
                   u3111 04DB                     u3031 03E1                     u3040 03E7  
                   u4000 02C9                     u3041 03E6                     u4001 02C8  
                   u3210 056F                     u3130 04F7                     u3050 0407  
                   u4010 02CE                     u3211 056E                     u3131 04F6  
                   u3051 0406                     u4011 02CD                     u3300 0616  
                   u3140 04FB                     u3060 040B                     u4020 02E2  
                   u4100 06C2                     u3301 0615                     u3221 0586  
                   u3213 056B                     u3205 0549                     u3141 04FA  
                   u3125 04E2                     u3061 040A                     u4021 02E1  
                   u4101 06C1                     u3310 061D                     u3230 059A  
                   u3222 0587                     u3150 0500                     u3070 049D  
                   u4030 02E9                     u4110 06C6                     u3311 061C  
                   u3231 059B                     u3223 058C                     u3151 04FF  
                   u3071 049C                     u4031 02E8                     u4111 06C5  
                   u3400 0685                     u3320 0624                     u3240 05BA  
                   u3232 05A0                     u3224 058D                     u3080 04A8  
                   u4040 02EF                     u4200 0743                     u4120 06E6  
                   u3401 0684                     u3321 0623                     u3241 05B9  
                   u3233 05A1                     u3225 0592                     u3161 0516  
                   u3081 04A6                     u4041 02EE                     u4201 0742  
                   u4121 06E5                     u3410 0696                     u3330 062A  
                   u3250 05E2                     u3226 0593                     u3170 0528  
                   u3162 051D                     u3090 04A9                     u4050 0301  
                   u4210 0758                     u3411 0695                     u3331 0629  
                   u3251 05E1                     u3171 0527                     u3163 0524  
                   u3075 0499                     u4051 0300                     u3420 069B  
                   u3340 0635                     u3260 05E9                     u3180 052E  
                   u3500 0E87                     u4060 0310                     u4220 0768  
                   u4140 0707                     u3421 069A                     u3341 0634  
                   u3261 05E8                     u3181 052D                     u3501 0E86  
                   u4221 0767                     u4141 0706                     u3430 06B6  
                   u3350 063D                     u3190 0543                     u3510 0EA5  
                   u4070 032D                     u4230 076C                     u3431 06B5  
                   u3351 063C                     u3191 0542                     u3511 0EA4  
                   u4071 032C                     u4231 076B                     u4215 0753  
                   u4135 06F9                     u3360 0651                     u3280 0603  
                   u3520 0EDF                     u3440 0E34                     u4080 0347  
                   u4160 0729                     u3361 0650                     u3281 0602  
                   u3521 0EDE                     u3441 0E33                     u4081 0346  
                   u4065 030B                     u4161 0728                     u3370 0660  
                   u3290 060C                     u3610 0F41                     u3450 0E3A  
                   u4090 0365                     u3291 060B                     u3275 05F6  
                   u3611 0F40                     u3451 0E39                     u4091 0364  
                   u4075 0329                     u4155 071B                     u3380 0671  
                   u3700 0FB9                     u3460 0E3F                     u2900 07B0  
                   u4180 0739                     u2820 0D60                     u3381 0670  
                   u3701 0FB8                     u3605 0F36                     u3461 0E3E  
                   u4085 0343                     u2901 07AF                     u4181 0738  
                   u2821 0D5F                     u3390 0680                     u3710 0FD6  
                   u3630 0F55                     u3550 0EF5                     u3470 0E61  
                   u2910 07B7                     u4190 073F                     u3391 067F  
                   u3375 065B                     u3711 0FD5                     u3631 0F54  
                   u3551 0EF4                     u3535 0EE1                     u3471 0E60  
                   u2911 07B6                     u4191 073E                     u4175 072E  
                   u3720 0FED                     u3640 0F5A                     u3480 0E67  
                   u3800 007D                     u3721 0FEC                     u3705 0FB5  
                   u3641 0F59                     u3625 0F44                     u3545 0EEA  
                   u3481 0E66                     u3801 007C                     u3650 0F6E  
                   u3570 0F11                     u3490 0E6C                     u2850 0CC1  
                   u3730 002A                     u2930 07C9                     u3715 0FD2  
                   u3651 0F6D                     u3571 0F10                     u3491 0E6B  
                   u2851 0CC0                     u3811 00CE                     u3731 0029  
                   u2931 07C8                     u3660 0F75                     u3580 0F2A  
                   u3812 00D5                     u3740 0030                     u2940 07D0  
                   u3661 0F74                     u3581 0F29                     u3565 0EF8  
                   u3901 01F8                     u3821 00EA                     u3813 00DC  
                   u3741 002F                     u2941 07CF                     u2925 07B9  
                   u3670 0F7B                     u3590 0F32                     u2870 0CD5  
                   u3902 01FF                     u3822 00F1                     u3750 0035  
                   u3671 0F7A                     u3591 0F31                     u3575 0F0D  
                   u2871 0CD4                     u3911 0225                     u3903 0206  
                   u3831 0116                     u3823 00F8                     u3751 0034  
                   u3680 0F8D                     u3920 024F                     u3912 022C  
                   u3832 011D                     u3760 0056                     u2960 07E1  
                   u2880 0783                     u3681 0F8C                     u2865 0CC8  
                   u3913 0233                     u3841 0132                     u3833 0124  
                   u3761 0055                     u2961 07E0                     u2881 0782  
                   u3690 0F9C                     u3842 0139                     u3770 005C  
                   u2970 07E6                     u2890 079A                     u3931 025B  
                   u3843 0140                     u3771 005B                     u2971 07E5  
                   u2955 07D3                     u2980 0393                     u3940 0277  
                   u3932 0262                     u3780 0061                     u2981 0392  
                   u3933 0269                     u3925 024A                     u3861 0168  
                   u3781 0060                     u2990 039D                     u3862 016F  
                   u3790 0078                     u2991 039C                     u3695 0F97  
                   u3951 0283                     u3871 0195                     u3863 0176  
                   u3855 0142                     u3791 0077                     u2895 0795  
                   i1l56 0C95                     u3952 028A                     u3872 019C  
                   u3953 0291                     u3945 0272                     u3873 01A3  
                   i1l59 0CAA                     u3891 01CB                     u3980 02B5  
                   u3892 01D2                     u3981 02B4                     u3965 0293  
                   u3893 01D9                     u3885 01A5                     u3975 02AA  
                   u3995 02B8                     _main 0CDA                     map@x 0079  
                   btemp 007E                     start 000C          ___fldiv@new_exp 003C  
                  ??_map 0079                    ??_isr 0070            ___fltol@sign1 0077  
        __end_of___fladd 06BA                    ?_main 0070          __end_of___fldiv 1000  
        __end_of___flmul 037A          __end_of___fltol 07F2                    _ANSEL 0188  
                  _PORTA 0005                    _PORTC 0007                    _TRISA 0085  
                  _TRISC 0087                    map@x0 00AD                    map@x1 00AE  
                  map@y0 00AF                    map@y1 00B1                    _setup 0D21  
                  pclath 000A                    status 0003                    wtemp0 007E  
        __initialization 000F             __end_of_main 0D21                   ??_main 006E  
                 _CCPR1L 0015                   ?_setup 0070                   _ANSELH 0189  
                 i1l1912 0C89                   i1l1914 0C8F                   i1l1916 0C9B  
                 i1l1918 0CA7                   u424_27 0C93                   u425_27 0CA5  
                 u283_20 0C8F                   u283_21 0C8E                   u284_20 0C9B  
                 u284_21 0C9A                   _SSPBUF 0013         __end_of___xxtofl 0776  
              ??___fladd 0066                ??___fldiv 0032                ??___flmul 004C  
              ??___fltol 00A8                   saved_w 007E             ___xxtofl@arg 0026  
           ___xxtofl@exp 0025             ___xxtofl@val 0073  __end_of__initialization 0015  
             ___fltol@f1 00A4           __pcstackCOMMON 0070            __end_of_setup 0D6D  
                ??_setup 0073               __pbssBANK1 00B3        __end_of__Umul8_16 0CDA  
             __pmaintext 0CDA               __pintentry 0004                  _CCP1CON 0017  
              ?___xxtofl 0073                  ___fladd 037A                  ___fldiv 0E23  
                ___flmul 0019                  ___fltol 0776                  __ptext1 0D21  
                __ptext2 0D6D                  __ptext3 06BA                  __ptext4 0776  
                __ptext5 0019                  __ptext6 0CB1                  __ptext7 0E23  
                __ptext8 037A                  __ptext9 0C89                _T2CONbits 0012  
             ??___xxtofl 0020     end_of_initialization 0015              ___fladd@grs 00A3  
          ___xxtofl@sign 0024                _TRISCbits 0087              ___fldiv@grs 003E  
            ___fldiv@rem 0037              ___flmul@grs 0053              _CCP1CONbits 0017  
    start_initialization 000F              __end_of_map 0E23              __end_of_isr 0CB1  
              __Umul8_16 0CB1                ___fladd@a 0062                ___fladd@b 005E  
              ___fldiv@a 002A                ___fldiv@b 002E                ___flmul@a 0048  
              ___flmul@b 0044              __pbssCOMMON 007A                ___latbits 0002  
          __pcstackBANK0 0020            __pcstackBANK1 00A0                 ?___fladd 005E  
               ?___fldiv 002A                 ?___flmul 0044                 ?___fltol 00A4  
             ?__Umul8_16 0073        interrupt_function 0004                 _PIE1bits 008C  
               _PIR1bits 000C              ??__Umul8_16 0075                 ___xxtofl 06BA  
           _val_temporal 007A               _INTCONbits 000B                 intlevel1 0000  
             _OSCCONbits 008F   __Umul8_16@multiplicand 0073            ___fladd@signs 00A0  
           ___fladd@aexp 00A1             ___fladd@bexp 00A2     __Umul8_16@multiplier 0024  
             _SSPCONbits 0014        __Umul8_16@product 0020  
