

Microchip MPLAB XC8 Assembler V2.35 build 20211206165544 
                                                                                               Sat May 21 12:35:05 2022

Microchip MPLAB XC8 C Compiler v2.35 (Free license) build 20211206165544 Og1 
     1                           	processor	16F887
     2                           	pagewidth 120
     3                           	opt	flic
     4                           	psect	cinit,global,class=CODE,merge=1,delta=2
     5                           	psect	bssBANK1,global,class=BANK1,space=1,delta=1,noexec
     6                           	psect	cstackBANK1,global,class=BANK1,space=1,delta=1,noexec
     7                           	psect	cstackCOMMON,global,class=COMMON,space=1,delta=1,noexec
     8                           	psect	cstackBANK0,global,class=BANK0,space=1,delta=1,noexec
     9                           	psect	maintext,global,class=CODE,split=1,delta=2
    10                           	psect	text1,local,class=CODE,merge=1,delta=2
    11                           	psect	text2,local,class=CODE,merge=1,delta=2
    12                           	psect	intentry,global,class=CODE,delta=2
    13                           	psect	text3,local,class=CODE,merge=1,delta=2
    14                           	psect	text4,local,class=CODE,merge=1,delta=2
    15                           	psect	text5,local,class=CODE,merge=1,delta=2
    16                           	psect	text6,local,class=CODE,merge=1,delta=2
    17                           	psect	text7,local,class=CODE,merge=1,delta=2
    18                           	psect	text8,local,class=CODE,merge=1,delta=2,group=1
    19                           	psect	text9,local,class=CODE,merge=1,delta=2,group=1
    20                           	psect	text10,local,class=CODE,merge=1,delta=2,group=1
    21                           	psect	text11,local,class=CODE,merge=1,delta=2,group=1
    22                           	psect	text12,local,class=CODE,merge=1,delta=2,group=1
    23                           	psect	text13,local,class=CODE,merge=1,delta=2,group=1
    24                           	psect	idloc,global,abs,ovrld,class=IDLOC,space=5,delta=2,noexec
    25                           	psect	config,global,abs,ovrld,class=CONFIG,space=4,delta=2,noexec
    26                           	dabs	1,0x7E,2
    27  0000                     
    28                           ; Version 2.40
    29                           ; Generated 17/11/2021 GMT
    30                           ; 
    31                           ; Copyright © 2021, Microchip Technology Inc. and its subsidiaries ("Microchip")
    32                           ; All rights reserved.
    33                           ; 
    34                           ; This software is developed by Microchip Technology Inc. and its subsidiaries ("Microch
      +                          ip").
    35                           ; 
    36                           ; Redistribution and use in source and binary forms, with or without modification, are
    37                           ; permitted provided that the following conditions are met:
    38                           ; 
    39                           ;     1. Redistributions of source code must retain the above copyright notice, this lis
      +                          t of
    40                           ;        conditions and the following disclaimer.
    41                           ; 
    42                           ;     2. Redistributions in binary form must reproduce the above copyright notice, this 
      +                          list
    43                           ;        of conditions and the following disclaimer in the documentation and/or other
    44                           ;        materials provided with the distribution. Publication is not required when
    45                           ;        this file is used in an embedded application.
    46                           ; 
    47                           ;     3. Microchip's name may not be used to endorse or promote products derived from th
      +                          is
    48                           ;        software without specific prior written permission.
    49                           ; 
    50                           ; THIS SOFTWARE IS PROVIDED BY MICROCHIP "AS IS" AND ANY EXPRESS OR IMPLIED WARRANTIES,
    51                           ; INCLUDING, BUT NOT LIMITED TO, THE IMPLIED WARRANTIES OF MERCHANTABILITY AND FITNESS F
      +                          OR
    52                           ; PURPOSE ARE DISCLAIMED.  IN NO EVENT SHALL MICROCHIP BE LIABLE FOR ANY DIRECT, INDIREC
      +                          T,
    53                           ; INCIDENTAL, SPECIAL, EXEMPLARY, OR CONSEQUENTIAL DAMAGES (INCLUDING BUT NOT LIMITED TO
    54                           ; PROCUREMENT OF SUBSTITUTE GOODS OR SERVICES; LOSS OF USE, DATA OR PROFITS; OR BUSINESS
    55                           ; INTERRUPTION) HOWSOEVER CAUSED AND ON ANY THEORY OF LIABILITY, WHETHER IN CONTRACT, ST
      +                          RICT
    56                           ; LIABILITY, OR TORT (INCLUDING NEGLIGENCE OR OTHERWISE) ARISING IN ANY WAY OUT OF THE U
      +                          SE OF
    57                           ; THIS SOFTWARE, EVEN IF ADVISED OF THE POSSIBILITY OF SUCH DAMAGE.
    58                           ; 
    59                           ; 
    60                           ; Code-generator required, PIC16F887 Definitions
    61                           ; 
    62                           ; SFR Addresses
    63  0000                     	;# 
    64  0001                     	;# 
    65  0002                     	;# 
    66  0003                     	;# 
    67  0004                     	;# 
    68  0005                     	;# 
    69  0006                     	;# 
    70  0007                     	;# 
    71  0008                     	;# 
    72  0009                     	;# 
    73  000A                     	;# 
    74  000B                     	;# 
    75  000C                     	;# 
    76  000D                     	;# 
    77  000E                     	;# 
    78  000E                     	;# 
    79  000F                     	;# 
    80  0010                     	;# 
    81  0011                     	;# 
    82  0012                     	;# 
    83  0013                     	;# 
    84  0014                     	;# 
    85  0015                     	;# 
    86  0015                     	;# 
    87  0016                     	;# 
    88  0017                     	;# 
    89  0018                     	;# 
    90  0019                     	;# 
    91  001A                     	;# 
    92  001B                     	;# 
    93  001B                     	;# 
    94  001C                     	;# 
    95  001D                     	;# 
    96  001E                     	;# 
    97  001F                     	;# 
    98  0081                     	;# 
    99  0085                     	;# 
   100  0086                     	;# 
   101  0087                     	;# 
   102  0088                     	;# 
   103  0089                     	;# 
   104  008C                     	;# 
   105  008D                     	;# 
   106  008E                     	;# 
   107  008F                     	;# 
   108  0090                     	;# 
   109  0091                     	;# 
   110  0092                     	;# 
   111  0093                     	;# 
   112  0093                     	;# 
   113  0093                     	;# 
   114  0094                     	;# 
   115  0095                     	;# 
   116  0096                     	;# 
   117  0097                     	;# 
   118  0098                     	;# 
   119  0099                     	;# 
   120  009A                     	;# 
   121  009B                     	;# 
   122  009C                     	;# 
   123  009D                     	;# 
   124  009E                     	;# 
   125  009F                     	;# 
   126  0105                     	;# 
   127  0107                     	;# 
   128  0108                     	;# 
   129  0109                     	;# 
   130  010C                     	;# 
   131  010C                     	;# 
   132  010D                     	;# 
   133  010E                     	;# 
   134  010F                     	;# 
   135  0185                     	;# 
   136  0187                     	;# 
   137  0188                     	;# 
   138  0189                     	;# 
   139  018C                     	;# 
   140  018D                     	;# 
   141  0000                     	;# 
   142  0001                     	;# 
   143  0002                     	;# 
   144  0003                     	;# 
   145  0004                     	;# 
   146  0005                     	;# 
   147  0006                     	;# 
   148  0007                     	;# 
   149  0008                     	;# 
   150  0009                     	;# 
   151  000A                     	;# 
   152  000B                     	;# 
   153  000C                     	;# 
   154  000D                     	;# 
   155  000E                     	;# 
   156  000E                     	;# 
   157  000F                     	;# 
   158  0010                     	;# 
   159  0011                     	;# 
   160  0012                     	;# 
   161  0013                     	;# 
   162  0014                     	;# 
   163  0015                     	;# 
   164  0015                     	;# 
   165  0016                     	;# 
   166  0017                     	;# 
   167  0018                     	;# 
   168  0019                     	;# 
   169  001A                     	;# 
   170  001B                     	;# 
   171  001B                     	;# 
   172  001C                     	;# 
   173  001D                     	;# 
   174  001E                     	;# 
   175  001F                     	;# 
   176  0081                     	;# 
   177  0085                     	;# 
   178  0086                     	;# 
   179  0087                     	;# 
   180  0088                     	;# 
   181  0089                     	;# 
   182  008C                     	;# 
   183  008D                     	;# 
   184  008E                     	;# 
   185  008F                     	;# 
   186  0090                     	;# 
   187  0091                     	;# 
   188  0092                     	;# 
   189  0093                     	;# 
   190  0093                     	;# 
   191  0093                     	;# 
   192  0094                     	;# 
   193  0095                     	;# 
   194  0096                     	;# 
   195  0097                     	;# 
   196  0098                     	;# 
   197  0099                     	;# 
   198  009A                     	;# 
   199  009B                     	;# 
   200  009C                     	;# 
   201  009D                     	;# 
   202  009E                     	;# 
   203  009F                     	;# 
   204  0105                     	;# 
   205  0107                     	;# 
   206  0108                     	;# 
   207  0109                     	;# 
   208  010C                     	;# 
   209  010C                     	;# 
   210  010D                     	;# 
   211  010E                     	;# 
   212  010F                     	;# 
   213  0185                     	;# 
   214  0187                     	;# 
   215  0188                     	;# 
   216  0189                     	;# 
   217  018C                     	;# 
   218  018D                     	;# 
   219  0012                     _T2CONbits	set	18
   220  001B                     _CCPR2L	set	27
   221  0015                     _CCPR1L	set	21
   222  001D                     _CCP2CONbits	set	29
   223  0017                     _CCP1CONbits	set	23
   224  001D                     _CCP2CON	set	29
   225  0017                     _CCP1CON	set	23
   226  0009                     _PORTE	set	9
   227  0008                     _PORTD	set	8
   228  0007                     _PORTC	set	7
   229  0005                     _PORTA	set	5
   230  001E                     _ADRESH	set	30
   231  001F                     _ADCON0bits	set	31
   232  000C                     _PIR1bits	set	12
   233  0009                     _PORTEbits	set	9
   234  0006                     _PORTBbits	set	6
   235  000B                     _INTCONbits	set	11
   236  008C                     _PIE1bits	set	140
   237  0096                     _IOCBbits	set	150
   238  0095                     _WPUBbits	set	149
   239  0081                     _OPTION_REGbits	set	129
   240  0086                     _TRISBbits	set	134
   241  0092                     _PR2	set	146
   242  0087                     _TRISCbits	set	135
   243  009F                     _ADCON1bits	set	159
   244  0089                     _TRISE	set	137
   245  0088                     _TRISD	set	136
   246  0087                     _TRISC	set	135
   247  0085                     _TRISA	set	133
   248  008F                     _OSCCONbits	set	143
   249  010C                     _EEDAT	set	268
   250  010D                     _EEADR	set	269
   251  018D                     _EECON2	set	397
   252  018C                     _EECON1bits	set	396
   253  0189                     _ANSELH	set	393
   254  0188                     _ANSEL	set	392
   255                           
   256                           	psect	cinit
   257  0013                     start_initialization:	
   258                           ; #config settings
   259                           
   260  0013                     __initialization:
   261                           
   262                           ; Clear objects allocated to BANK1
   263  0013  1683               	bsf	3,5	;RP0=1, select bank1
   264  0014  1303               	bcf	3,6	;RP1=0, select bank1
   265  0015  01B3               	clrf	__pbssBANK1& (0+127)
   266  0016  01B4               	clrf	(__pbssBANK1+1)& (0+127)
   267  0017  01B5               	clrf	(__pbssBANK1+2)& (0+127)
   268  0018  01B6               	clrf	(__pbssBANK1+3)& (0+127)
   269  0019  01B7               	clrf	(__pbssBANK1+4)& (0+127)
   270  001A  01B8               	clrf	(__pbssBANK1+5)& (0+127)
   271  001B  01B9               	clrf	(__pbssBANK1+6)& (0+127)
   272  001C  01BA               	clrf	(__pbssBANK1+7)& (0+127)
   273  001D  01BB               	clrf	(__pbssBANK1+8)& (0+127)
   274  001E  01BC               	clrf	(__pbssBANK1+9)& (0+127)
   275  001F  01BD               	clrf	(__pbssBANK1+10)& (0+127)
   276  0020                     end_of_initialization:	
   277                           ;End of C runtime variable initialization code
   278                           
   279  0020                     __end_of__initialization:
   280  0020  0183               	clrf	3
   281  0021  120A  158A  2B94   	ljmp	_main	;jump to C main() function
   282                           
   283                           	psect	bssBANK1
   284  00B3                     __pbssBANK1:
   285  00B3                     _pot:
   286  00B3                     	ds	2
   287  00B5                     _pot3:
   288  00B5                     	ds	2
   289  00B7                     _CCP2:
   290  00B7                     	ds	2
   291  00B9                     _CCP1:
   292  00B9                     	ds	2
   293  00BB                     _POT2:
   294  00BB                     	ds	1
   295  00BC                     _POT1:
   296  00BC                     	ds	1
   297  00BD                     _modo:
   298  00BD                     	ds	1
   299                           
   300                           	psect	cstackBANK1
   301  00A0                     __pcstackBANK1:
   302  00A0                     ??___fltol:
   303                           
   304                           ; 1 bytes @ 0x0
   305  00A0                     	ds	5
   306  00A5                     ?_map:
   307  00A5                     map@x0:	
   308                           ; 2 bytes @ 0x5
   309                           
   310                           
   311                           ; 1 bytes @ 0x5
   312  00A5                     	ds	1
   313  00A6                     map@x1:
   314                           
   315                           ; 1 bytes @ 0x6
   316  00A6                     	ds	1
   317  00A7                     map@y0:
   318                           
   319                           ; 2 bytes @ 0x7
   320  00A7                     	ds	2
   321  00A9                     map@y1:
   322                           
   323                           ; 2 bytes @ 0x9
   324  00A9                     	ds	2
   325  00AB                     ??_SERVO_1:
   326  00AB                     ??_SERVO_2:	
   327                           ; 1 bytes @ 0xB
   328                           
   329                           
   330                           ; 1 bytes @ 0xB
   331  00AB                     	ds	2
   332  00AD                     ??_isr:
   333                           
   334                           ; 1 bytes @ 0xD
   335  00AD                     	ds	4
   336  00B1                     ??_setup:
   337                           
   338                           ; 1 bytes @ 0x11
   339  00B1                     	ds	1
   340  00B2                     ??_main:
   341                           
   342                           ; 1 bytes @ 0x12
   343  00B2                     	ds	1
   344                           
   345                           	psect	cstackCOMMON
   346  0070                     __pcstackCOMMON:
   347  0070                     ?_write_EEPROM:
   348  0070                     ?_read_EEPROM:	
   349                           ; 1 bytes @ 0x0
   350                           
   351  0070                     ??_read_EEPROM:	
   352                           ; 1 bytes @ 0x0
   353                           
   354  0070                     ?_SERVO_1:	
   355                           ; 1 bytes @ 0x0
   356                           
   357  0070                     ?_SERVO_2:	
   358                           ; 1 bytes @ 0x0
   359                           
   360  0070                     ?_setup:	
   361                           ; 1 bytes @ 0x0
   362                           
   363  0070                     ?_isr:	
   364                           ; 1 bytes @ 0x0
   365                           
   366  0070                     ?_main:	
   367                           ; 1 bytes @ 0x0
   368                           
   369  0070                     ?__Umul8_16:	
   370                           ; 1 bytes @ 0x0
   371                           
   372  0070                     ?___xxtofl:	
   373                           ; 2 bytes @ 0x0
   374                           
   375  0070                     read_EEPROM@address:	
   376                           ; 4 bytes @ 0x0
   377                           
   378  0070                     write_EEPROM@data:	
   379                           ; 1 bytes @ 0x0
   380                           
   381  0070                     __Umul8_16@multiplicand:	
   382                           ; 1 bytes @ 0x0
   383                           
   384  0070                     ___xxtofl@val:	
   385                           ; 1 bytes @ 0x0
   386                           
   387                           
   388                           ; 4 bytes @ 0x0
   389  0070                     	ds	1
   390  0071                     ??_write_EEPROM:
   391                           
   392                           ; 1 bytes @ 0x1
   393  0071                     	ds	1
   394  0072                     ??__Umul8_16:
   395                           
   396                           ; 1 bytes @ 0x2
   397  0072                     	ds	1
   398  0073                     write_EEPROM@address:
   399                           
   400                           ; 1 bytes @ 0x3
   401  0073                     	ds	1
   402  0074                     ??___xxtofl:
   403  0074                     __Umul8_16@product:	
   404                           ; 1 bytes @ 0x4
   405                           
   406                           
   407                           ; 2 bytes @ 0x4
   408  0074                     	ds	2
   409  0076                     __Umul8_16@word_mpld:
   410                           
   411                           ; 2 bytes @ 0x6
   412  0076                     	ds	2
   413  0078                     __Umul8_16@multiplier:
   414  0078                     ___xxtofl@sign:	
   415                           ; 1 bytes @ 0x8
   416                           
   417                           
   418                           ; 1 bytes @ 0x8
   419  0078                     	ds	1
   420  0079                     ___xxtofl@exp:
   421                           
   422                           ; 1 bytes @ 0x9
   423  0079                     	ds	1
   424  007A                     ___xxtofl@arg:
   425                           
   426                           ; 4 bytes @ 0xA
   427  007A                     	ds	4
   428  007E                     ??_map:
   429                           
   430                           	psect	cstackBANK0
   431  0020                     __pcstackBANK0:	
   432                           ; 1 bytes @ 0xE
   433                           
   434  0020                     ?___fldiv:
   435  0020                     ___fldiv@a:	
   436                           ; 4 bytes @ 0x0
   437                           
   438                           
   439                           ; 4 bytes @ 0x0
   440  0020                     	ds	4
   441  0024                     ___fldiv@b:
   442                           
   443                           ; 4 bytes @ 0x4
   444  0024                     	ds	4
   445  0028                     ??___fldiv:
   446                           
   447                           ; 1 bytes @ 0x8
   448  0028                     	ds	5
   449  002D                     ___fldiv@rem:
   450                           
   451                           ; 4 bytes @ 0xD
   452  002D                     	ds	4
   453  0031                     ___fldiv@sign:
   454                           
   455                           ; 1 bytes @ 0x11
   456  0031                     	ds	1
   457  0032                     ___fldiv@new_exp:
   458                           
   459                           ; 2 bytes @ 0x12
   460  0032                     	ds	2
   461  0034                     ___fldiv@grs:
   462                           
   463                           ; 4 bytes @ 0x14
   464  0034                     	ds	4
   465  0038                     ___fldiv@bexp:
   466                           
   467                           ; 1 bytes @ 0x18
   468  0038                     	ds	1
   469  0039                     ___fldiv@aexp:
   470                           
   471                           ; 1 bytes @ 0x19
   472  0039                     	ds	1
   473  003A                     ?___flmul:
   474  003A                     ___flmul@b:	
   475                           ; 4 bytes @ 0x1A
   476                           
   477                           
   478                           ; 4 bytes @ 0x1A
   479  003A                     	ds	4
   480  003E                     ___flmul@a:
   481                           
   482                           ; 4 bytes @ 0x1E
   483  003E                     	ds	4
   484  0042                     ??___flmul:
   485                           
   486                           ; 1 bytes @ 0x22
   487  0042                     	ds	5
   488  0047                     ___flmul@sign:
   489                           
   490                           ; 1 bytes @ 0x27
   491  0047                     	ds	1
   492  0048                     ___flmul@grs:
   493                           
   494                           ; 4 bytes @ 0x28
   495  0048                     	ds	4
   496  004C                     ___flmul@aexp:
   497                           
   498                           ; 1 bytes @ 0x2C
   499  004C                     	ds	1
   500  004D                     ___flmul@bexp:
   501                           
   502                           ; 1 bytes @ 0x2D
   503  004D                     	ds	1
   504  004E                     ___flmul@prod:
   505                           
   506                           ; 4 bytes @ 0x2E
   507  004E                     	ds	4
   508  0052                     ___flmul@temp:
   509                           
   510                           ; 2 bytes @ 0x32
   511  0052                     	ds	2
   512  0054                     ?___fladd:
   513  0054                     ___fladd@b:	
   514                           ; 4 bytes @ 0x34
   515                           
   516                           
   517                           ; 4 bytes @ 0x34
   518  0054                     	ds	4
   519  0058                     ___fladd@a:
   520                           
   521                           ; 4 bytes @ 0x38
   522  0058                     	ds	4
   523  005C                     ??___fladd:
   524                           
   525                           ; 1 bytes @ 0x3C
   526  005C                     	ds	8
   527  0064                     ___fladd@signs:
   528                           
   529                           ; 1 bytes @ 0x44
   530  0064                     	ds	1
   531  0065                     ___fladd@aexp:
   532                           
   533                           ; 1 bytes @ 0x45
   534  0065                     	ds	1
   535  0066                     ___fladd@bexp:
   536                           
   537                           ; 1 bytes @ 0x46
   538  0066                     	ds	1
   539  0067                     ___fladd@grs:
   540                           
   541                           ; 1 bytes @ 0x47
   542  0067                     	ds	1
   543  0068                     ?___fltol:
   544  0068                     ___fltol@f1:	
   545                           ; 4 bytes @ 0x48
   546                           
   547                           
   548                           ; 4 bytes @ 0x48
   549  0068                     	ds	4
   550  006C                     ___fltol@sign1:
   551                           
   552                           ; 1 bytes @ 0x4C
   553  006C                     	ds	1
   554  006D                     ___fltol@exp1:
   555                           
   556                           ; 1 bytes @ 0x4D
   557  006D                     	ds	1
   558  006E                     map@x:
   559                           
   560                           ; 1 bytes @ 0x4E
   561  006E                     	ds	1
   562  006F                     SERVO_1@val:
   563  006F                     SERVO_2@val:	
   564                           ; 1 bytes @ 0x4F
   565                           
   566                           
   567                           ; 1 bytes @ 0x4F
   568  006F                     	ds	1
   569                           
   570                           	psect	maintext
   571  0B94                     __pmaintext:	
   572 ;;
   573 ;;Main: autosize = 0, tempsize = 1, incstack = 0, save=0
   574 ;;
   575 ;; *************** function _main *****************
   576 ;; Defined at:
   577 ;;		line 106 in file "main.c"
   578 ;; Parameters:    Size  Location     Type
   579 ;;		None
   580 ;; Auto vars:     Size  Location     Type
   581 ;;		None
   582 ;; Return value:  Size  Location     Type
   583 ;;                  1    wreg      void 
   584 ;; Registers used:
   585 ;;		wreg, status,2, status,0, pclath, cstack
   586 ;; Tracked objects:
   587 ;;		On entry : B00/0
   588 ;;		On exit  : 0/0
   589 ;;		Unchanged: 0/0
   590 ;; Data sizes:     COMMON   BANK0   BANK1   BANK3   BANK2
   591 ;;      Params:         0       0       0       0       0
   592 ;;      Locals:         0       0       0       0       0
   593 ;;      Temps:          0       0       1       0       0
   594 ;;      Totals:         0       0       1       0       0
   595 ;;Total ram usage:        1 bytes
   596 ;; Hardware stack levels required when called: 6
   597 ;; This function calls:
   598 ;;		_setup
   599 ;; This function is called by:
   600 ;;		Startup code after reset
   601 ;; This function uses a non-reentrant model
   602 ;;
   603                           
   604  0B94                     _main:	
   605                           ;psect for function _main
   606                           
   607  0B94                     l2259:	
   608                           ;incstack = 0
   609                           ; Regs used in _main: [wreg+status,2+status,0+pclath+cstack]
   610                           
   611                           
   612                           ;main.c: 107:     setup();
   613  0B94  120A  158A  2462  120A  158A  	fcall	_setup
   614  0B99                     l2261:
   615                           
   616                           ;main.c: 109:         if(ADCON0bits.GO == 0){
   617  0B99  1283               	bcf	3,5	;RP0=0, select bank0
   618  0B9A  1303               	bcf	3,6	;RP1=0, select bank0
   619  0B9B  189F               	btfsc	31,1	;volatile
   620  0B9C  2B9E               	goto	u3161
   621  0B9D  2B9F               	goto	u3160
   622  0B9E                     u3161:
   623  0B9E  2B99               	goto	l2261
   624  0B9F                     u3160:
   625  0B9F                     l2263:
   626                           
   627                           ;main.c: 110:             if(ADCON0bits.CHS == 0b0000)
   628  0B9F  0C1F               	rrf	31,w	;volatile
   629  0BA0  1683               	bsf	3,5	;RP0=1, select bank1
   630  0BA1  1303               	bcf	3,6	;RP1=0, select bank1
   631  0BA2  00B2               	movwf	??_main^(0+128)
   632  0BA3  0C32               	rrf	??_main^(0+128),w
   633  0BA4  390F               	andlw	15
   634  0BA5  3A00               	xorlw	0
   635  0BA6  1D03               	skipz
   636  0BA7  2BA9               	goto	u3171
   637  0BA8  2BAA               	goto	u3170
   638  0BA9                     u3171:
   639  0BA9  2BB1               	goto	l2267
   640  0BAA                     u3170:
   641  0BAA                     l2265:
   642                           
   643                           ;main.c: 111:                 ADCON0bits.CHS = 0b0001;
   644  0BAA  1283               	bcf	3,5	;RP0=0, select bank0
   645  0BAB  1303               	bcf	3,6	;RP1=0, select bank0
   646  0BAC  081F               	movf	31,w	;volatile
   647  0BAD  39C3               	andlw	-61
   648  0BAE  3804               	iorlw	4
   649  0BAF  009F               	movwf	31	;volatile
   650  0BB0  2BC2               	goto	l2271
   651  0BB1                     l2267:
   652  0BB1  1283               	bcf	3,5	;RP0=0, select bank0
   653  0BB2  1303               	bcf	3,6	;RP1=0, select bank0
   654  0BB3  0C1F               	rrf	31,w	;volatile
   655  0BB4  1683               	bsf	3,5	;RP0=1, select bank1
   656  0BB5  1303               	bcf	3,6	;RP1=0, select bank1
   657  0BB6  00B2               	movwf	??_main^(0+128)
   658  0BB7  0C32               	rrf	??_main^(0+128),w
   659  0BB8  390F               	andlw	15
   660  0BB9  3A01               	xorlw	1
   661  0BBA  1D03               	skipz
   662  0BBB  2BBD               	goto	u3181
   663  0BBC  2BBE               	goto	u3180
   664  0BBD                     u3181:
   665  0BBD  2BC2               	goto	l2271
   666  0BBE                     u3180:
   667  0BBE                     l2269:
   668                           
   669                           ;main.c: 113:                 ADCON0bits.CHS = 0b0000;
   670  0BBE  30C3               	movlw	-61
   671  0BBF  1283               	bcf	3,5	;RP0=0, select bank0
   672  0BC0  1303               	bcf	3,6	;RP1=0, select bank0
   673  0BC1  059F               	andwf	31,f	;volatile
   674  0BC2                     l2271:
   675                           
   676                           ;main.c: 114:             _delay((unsigned long)((40)*(1000000/4000000.0)));
   677  0BC2  3002               	movlw	2
   678  0BC3  1683               	bsf	3,5	;RP0=1, select bank1
   679  0BC4  1303               	bcf	3,6	;RP1=0, select bank1
   680  0BC5  00B2               	movwf	??_main^(0+128)
   681  0BC6                     u3197:
   682  0BC6  0BB2               	decfsz	??_main^(0+128),f
   683  0BC7  2BC6               	goto	u3197
   684  0BC8  0000               	nop
   685  0BC9                     l2273:
   686                           
   687                           ;main.c: 115:             ADCON0bits.GO = 1;
   688  0BC9  1283               	bcf	3,5	;RP0=0, select bank0
   689  0BCA  1303               	bcf	3,6	;RP1=0, select bank0
   690  0BCB  149F               	bsf	31,1	;volatile
   691  0BCC  2B99               	goto	l2261
   692  0BCD  120A  118A  2810   	ljmp	start
   693  0BD0                     __end_of_main:
   694                           
   695                           	psect	text1
   696  0C62                     __ptext1:	
   697 ;; *************** function _setup *****************
   698 ;; Defined at:
   699 ;;		line 124 in file "main.c"
   700 ;; Parameters:    Size  Location     Type
   701 ;;		None
   702 ;; Auto vars:     Size  Location     Type
   703 ;;		None
   704 ;; Return value:  Size  Location     Type
   705 ;;                  1    wreg      void 
   706 ;; Registers used:
   707 ;;		wreg, status,2, status,0
   708 ;; Tracked objects:
   709 ;;		On entry : 0/0
   710 ;;		On exit  : 0/0
   711 ;;		Unchanged: 0/0
   712 ;; Data sizes:     COMMON   BANK0   BANK1   BANK3   BANK2
   713 ;;      Params:         0       0       0       0       0
   714 ;;      Locals:         0       0       0       0       0
   715 ;;      Temps:          0       0       1       0       0
   716 ;;      Totals:         0       0       1       0       0
   717 ;;Total ram usage:        1 bytes
   718 ;; Hardware stack levels used: 1
   719 ;; Hardware stack levels required when called: 5
   720 ;; This function calls:
   721 ;;		Nothing
   722 ;; This function is called by:
   723 ;;		_main
   724 ;; This function uses a non-reentrant model
   725 ;;
   726                           
   727  0C62                     _setup:	
   728                           ;psect for function _setup
   729                           
   730  0C62                     l2125:	
   731                           ;incstack = 0
   732                           ; Regs used in _setup: [wreg+status,2+status,0]
   733                           
   734                           
   735                           ;main.c: 126:     ANSEL =0b00000011;
   736  0C62  3003               	movlw	3
   737  0C63  1683               	bsf	3,5	;RP0=1, select bank3
   738  0C64  1703               	bsf	3,6	;RP1=1, select bank3
   739  0C65  0088               	movwf	8	;volatile
   740  0C66                     l2127:
   741                           
   742                           ;main.c: 127:     ANSELH = 0x00;
   743  0C66  0189               	clrf	9	;volatile
   744  0C67                     l2129:
   745                           
   746                           ;main.c: 129:     OSCCONbits.IRCF = 0b0100;
   747  0C67  1683               	bsf	3,5	;RP0=1, select bank1
   748  0C68  1303               	bcf	3,6	;RP1=0, select bank1
   749  0C69  080F               	movf	15,w	;volatile
   750  0C6A  398F               	andlw	-113
   751  0C6B  3840               	iorlw	64
   752  0C6C  008F               	movwf	15	;volatile
   753  0C6D                     l2131:
   754                           
   755                           ;main.c: 130:     OSCCONbits.SCS = 1;
   756  0C6D  140F               	bsf	15,0	;volatile
   757  0C6E                     l2133:
   758                           
   759                           ;main.c: 132:     TRISA = 0b00000011;
   760  0C6E  3003               	movlw	3
   761  0C6F  0085               	movwf	5	;volatile
   762  0C70                     l2135:
   763                           
   764                           ;main.c: 133:     PORTA = 0x00;
   765  0C70  1283               	bcf	3,5	;RP0=0, select bank0
   766  0C71  1303               	bcf	3,6	;RP1=0, select bank0
   767  0C72  0185               	clrf	5	;volatile
   768  0C73                     l2137:
   769                           
   770                           ;main.c: 135:     PORTC = 0x00;
   771  0C73  0187               	clrf	7	;volatile
   772  0C74                     l2139:
   773                           
   774                           ;main.c: 136:     TRISC = 0x00;
   775  0C74  1683               	bsf	3,5	;RP0=1, select bank1
   776  0C75  1303               	bcf	3,6	;RP1=0, select bank1
   777  0C76  0187               	clrf	7	;volatile
   778  0C77                     l2141:
   779                           
   780                           ;main.c: 137:     PORTD = 0x00;
   781  0C77  1283               	bcf	3,5	;RP0=0, select bank0
   782  0C78  1303               	bcf	3,6	;RP1=0, select bank0
   783  0C79  0188               	clrf	8	;volatile
   784  0C7A                     l2143:
   785                           
   786                           ;main.c: 138:     TRISD = 0x00;
   787  0C7A  1683               	bsf	3,5	;RP0=1, select bank1
   788  0C7B  1303               	bcf	3,6	;RP1=0, select bank1
   789  0C7C  0188               	clrf	8	;volatile
   790  0C7D                     l2145:
   791                           
   792                           ;main.c: 139:     TRISE = 0x00;
   793  0C7D  0189               	clrf	9	;volatile
   794  0C7E                     l2147:
   795                           
   796                           ;main.c: 140:     PORTE = 0x00;
   797  0C7E  1283               	bcf	3,5	;RP0=0, select bank0
   798  0C7F  1303               	bcf	3,6	;RP1=0, select bank0
   799  0C80  0189               	clrf	9	;volatile
   800                           
   801                           ;main.c: 142:     ADCON0bits.ADCS = 0b00;
   802  0C81  303F               	movlw	-193
   803  0C82  059F               	andwf	31,f	;volatile
   804  0C83                     l2149:
   805                           
   806                           ;main.c: 144:     ADCON1bits.VCFG0 = 0;
   807  0C83  1683               	bsf	3,5	;RP0=1, select bank1
   808  0C84  1303               	bcf	3,6	;RP1=0, select bank1
   809  0C85  121F               	bcf	31,4	;volatile
   810  0C86                     l2151:
   811                           
   812                           ;main.c: 145:     ADCON1bits.VCFG1 = 0;
   813  0C86  129F               	bcf	31,5	;volatile
   814                           
   815                           ;main.c: 147:     ADCON0bits.CHS = 0b0000;
   816  0C87  30C3               	movlw	-61
   817  0C88  1283               	bcf	3,5	;RP0=0, select bank0
   818  0C89  1303               	bcf	3,6	;RP1=0, select bank0
   819  0C8A  059F               	andwf	31,f	;volatile
   820  0C8B                     l2153:
   821                           
   822                           ;main.c: 148:     ADCON1bits.ADFM = 0;
   823  0C8B  1683               	bsf	3,5	;RP0=1, select bank1
   824  0C8C  1303               	bcf	3,6	;RP1=0, select bank1
   825  0C8D  139F               	bcf	31,7	;volatile
   826  0C8E                     l2155:
   827                           
   828                           ;main.c: 149:     ADCON0bits.ADON = 1;
   829  0C8E  1283               	bcf	3,5	;RP0=0, select bank0
   830  0C8F  1303               	bcf	3,6	;RP1=0, select bank0
   831  0C90  141F               	bsf	31,0	;volatile
   832  0C91                     l2157:
   833                           
   834                           ;main.c: 150:     _delay((unsigned long)((40)*(1000000/4000000.0)));
   835  0C91  3002               	movlw	2
   836  0C92  1683               	bsf	3,5	;RP0=1, select bank1
   837  0C93  1303               	bcf	3,6	;RP1=0, select bank1
   838  0C94  00B1               	movwf	??_setup^(0+128)
   839  0C95                     u3207:
   840  0C95  0BB1               	decfsz	??_setup^(0+128),f
   841  0C96  2C95               	goto	u3207
   842  0C97  0000               	nop
   843  0C98                     l2159:
   844                           
   845                           ;main.c: 153:     TRISCbits.TRISC2 = 1;
   846  0C98  1683               	bsf	3,5	;RP0=1, select bank1
   847  0C99  1303               	bcf	3,6	;RP1=0, select bank1
   848  0C9A  1507               	bsf	7,2	;volatile
   849  0C9B                     l2161:
   850                           
   851                           ;main.c: 154:     TRISCbits.TRISC1 = 1;
   852  0C9B  1487               	bsf	7,1	;volatile
   853  0C9C                     l2163:
   854                           
   855                           ;main.c: 155:     PR2 = 155;
   856  0C9C  309B               	movlw	155
   857  0C9D  0092               	movwf	18	;volatile
   858  0C9E                     l2165:
   859                           
   860                           ;main.c: 158:     CCP1CON = 0;
   861  0C9E  1283               	bcf	3,5	;RP0=0, select bank0
   862  0C9F  1303               	bcf	3,6	;RP1=0, select bank0
   863  0CA0  0197               	clrf	23	;volatile
   864  0CA1                     l2167:
   865                           
   866                           ;main.c: 159:     CCP2CON = 0;
   867  0CA1  019D               	clrf	29	;volatile
   868                           
   869                           ;main.c: 160:     CCP1CONbits.P1M = 0;
   870  0CA2  303F               	movlw	-193
   871  0CA3  0597               	andwf	23,f	;volatile
   872                           
   873                           ;main.c: 161:     CCP1CONbits.CCP1M = 0b1100;
   874  0CA4  0817               	movf	23,w	;volatile
   875  0CA5  39F0               	andlw	-16
   876  0CA6  380C               	iorlw	12
   877  0CA7  0097               	movwf	23	;volatile
   878                           
   879                           ;main.c: 162:     CCP2CONbits.CCP2M = 0b1100;
   880  0CA8  081D               	movf	29,w	;volatile
   881  0CA9  39F0               	andlw	-16
   882  0CAA  380C               	iorlw	12
   883  0CAB  009D               	movwf	29	;volatile
   884  0CAC                     l2169:
   885                           
   886                           ;main.c: 164:     CCPR1L = 125>>2;
   887  0CAC  301F               	movlw	31
   888  0CAD  0095               	movwf	21	;volatile
   889  0CAE                     l2171:
   890                           
   891                           ;main.c: 165:     CCP1CONbits.DC1B = 125 & 0b11;
   892  0CAE  0817               	movf	23,w	;volatile
   893  0CAF  39CF               	andlw	-49
   894  0CB0  3810               	iorlw	16
   895  0CB1  0097               	movwf	23	;volatile
   896                           
   897                           ;main.c: 167:     CCPR2L = 125>>2;
   898  0CB2  301F               	movlw	31
   899  0CB3  009B               	movwf	27	;volatile
   900  0CB4                     l2173:
   901                           
   902                           ;main.c: 168:     CCP2CONbits.DC2B0 = 125 & 0b1;
   903  0CB4  161D               	bsf	29,4	;volatile
   904  0CB5                     l2175:
   905                           
   906                           ;main.c: 169:     CCP2CONbits.DC2B1 = 125 & 0b1;
   907  0CB5  169D               	bsf	29,5	;volatile
   908  0CB6                     l2177:
   909                           
   910                           ;main.c: 171:     PIR1bits.TMR2IF = 0;
   911  0CB6  108C               	bcf	12,1	;volatile
   912  0CB7                     l2179:
   913                           
   914                           ;main.c: 172:     T2CONbits.T2CKPS = 0b11;
   915  0CB7  3003               	movlw	3
   916  0CB8  0492               	iorwf	18,f	;volatile
   917  0CB9                     l2181:
   918                           
   919                           ;main.c: 173:     T2CONbits.TMR2ON = 1;
   920  0CB9  1512               	bsf	18,2	;volatile
   921  0CBA                     l141:	
   922                           ;main.c: 174:     while(!PIR1bits.TMR2IF);
   923                           
   924  0CBA  1C8C               	btfss	12,1	;volatile
   925  0CBB  2CBD               	goto	u2991
   926  0CBC  2CBE               	goto	u2990
   927  0CBD                     u2991:
   928  0CBD  2CBA               	goto	l141
   929  0CBE                     u2990:
   930  0CBE                     l143:
   931                           
   932                           ;main.c: 175:     PIR1bits.TMR2IF = 0;
   933  0CBE  108C               	bcf	12,1	;volatile
   934                           
   935                           ;main.c: 177:     TRISCbits.TRISC2 = 0;
   936  0CBF  1683               	bsf	3,5	;RP0=1, select bank1
   937  0CC0  1303               	bcf	3,6	;RP1=0, select bank1
   938  0CC1  1107               	bcf	7,2	;volatile
   939                           
   940                           ;main.c: 178:     TRISCbits.TRISC1 = 0;
   941  0CC2  1087               	bcf	7,1	;volatile
   942                           
   943                           ;main.c: 181:     TRISBbits.TRISB0 = 1;
   944  0CC3  1406               	bsf	6,0	;volatile
   945                           
   946                           ;main.c: 182:     TRISBbits.TRISB1 = 1;
   947  0CC4  1486               	bsf	6,1	;volatile
   948                           
   949                           ;main.c: 183:     TRISBbits.TRISB2 = 1;
   950  0CC5  1506               	bsf	6,2	;volatile
   951                           
   952                           ;main.c: 184:     OPTION_REGbits.nRBPU = 0;
   953  0CC6  1381               	bcf	1,7	;volatile
   954  0CC7                     l2183:
   955                           
   956                           ;main.c: 185:     WPUBbits.WPUB = 0x07;
   957  0CC7  3007               	movlw	7
   958  0CC8  0095               	movwf	21	;volatile
   959                           
   960                           ;main.c: 186:     IOCBbits.IOCB = 0x07;
   961  0CC9  3007               	movlw	7
   962  0CCA  0096               	movwf	22	;volatile
   963  0CCB                     l2185:
   964                           
   965                           ;main.c: 189:     INTCONbits.RBIE = 1;
   966  0CCB  158B               	bsf	11,3	;volatile
   967  0CCC                     l2187:
   968                           
   969                           ;main.c: 190:     INTCONbits.RBIF = 0;
   970  0CCC  100B               	bcf	11,0	;volatile
   971  0CCD                     l2189:
   972                           
   973                           ;main.c: 191:     PIR1bits.ADIF = 0;
   974  0CCD  1283               	bcf	3,5	;RP0=0, select bank0
   975  0CCE  1303               	bcf	3,6	;RP1=0, select bank0
   976  0CCF  130C               	bcf	12,6	;volatile
   977  0CD0                     l2191:
   978                           
   979                           ;main.c: 192:     PIE1bits.ADIE = 1;
   980  0CD0  1683               	bsf	3,5	;RP0=1, select bank1
   981  0CD1  1303               	bcf	3,6	;RP1=0, select bank1
   982  0CD2  170C               	bsf	12,6	;volatile
   983  0CD3                     l2193:
   984                           
   985                           ;main.c: 193:     INTCONbits.PEIE = 1;
   986  0CD3  170B               	bsf	11,6	;volatile
   987  0CD4                     l2195:
   988                           
   989                           ;main.c: 194:     INTCONbits.GIE = 1;
   990  0CD4  178B               	bsf	11,7	;volatile
   991  0CD5                     l144:
   992  0CD5  0008               	return
   993  0CD6                     __end_of_setup:
   994                           
   995                           	psect	text2
   996  0EDE                     __ptext2:	
   997 ;; *************** function _isr *****************
   998 ;; Defined at:
   999 ;;		line 46 in file "main.c"
  1000 ;; Parameters:    Size  Location     Type
  1001 ;;		None
  1002 ;; Auto vars:     Size  Location     Type
  1003 ;;		None
  1004 ;; Return value:  Size  Location     Type
  1005 ;;                  1    wreg      void 
  1006 ;; Registers used:
  1007 ;;		wreg, status,2, status,0, btemp+1, pclath, cstack
  1008 ;; Tracked objects:
  1009 ;;		On entry : 0/0
  1010 ;;		On exit  : 0/0
  1011 ;;		Unchanged: 0/0
  1012 ;; Data sizes:     COMMON   BANK0   BANK1   BANK3   BANK2
  1013 ;;      Params:         0       0       0       0       0
  1014 ;;      Locals:         0       0       0       0       0
  1015 ;;      Temps:          0       0       4       0       0
  1016 ;;      Totals:         0       0       4       0       0
  1017 ;;Total ram usage:        4 bytes
  1018 ;; Hardware stack levels used: 1
  1019 ;; Hardware stack levels required when called: 4
  1020 ;; This function calls:
  1021 ;;		_SERVO_1
  1022 ;;		_SERVO_2
  1023 ;;		_read_EEPROM
  1024 ;;		_write_EEPROM
  1025 ;; This function is called by:
  1026 ;;		Interrupt level 1
  1027 ;; This function uses a non-reentrant model
  1028 ;;
  1029                           
  1030  0EDE                     _isr:	
  1031                           ;psect for function _isr
  1032                           
  1033  0EDE                     i1l2199:
  1034                           
  1035                           ;main.c: 47:     if(INTCONbits.RBIF){
  1036  0EDE  1C0B               	btfss	11,0	;volatile
  1037  0EDF  2EE1               	goto	u300_21
  1038  0EE0  2EE2               	goto	u300_20
  1039  0EE1                     u300_21:
  1040  0EE1  2F7D               	goto	i1l105
  1041  0EE2                     u300_20:
  1042  0EE2                     i1l2201:
  1043                           
  1044                           ;main.c: 48:         if (!PORTBbits.RB0)
  1045  0EE2  1283               	bcf	3,5	;RP0=0, select bank0
  1046  0EE3  1303               	bcf	3,6	;RP1=0, select bank0
  1047  0EE4  1806               	btfsc	6,0	;volatile
  1048  0EE5  2EE7               	goto	u301_21
  1049  0EE6  2EE8               	goto	u301_20
  1050  0EE7                     u301_21:
  1051  0EE7  2EEE               	goto	i1l2205
  1052  0EE8                     u301_20:
  1053  0EE8                     i1l2203:
  1054                           
  1055                           ;main.c: 49:             ++modo;
  1056  0EE8  3001               	movlw	1
  1057  0EE9  1683               	bsf	3,5	;RP0=1, select bank1
  1058  0EEA  1303               	bcf	3,6	;RP1=0, select bank1
  1059  0EEB  00AD               	movwf	??_isr^(0+128)
  1060  0EEC  082D               	movf	??_isr^(0+128),w
  1061  0EED  07BD               	addwf	_modo^(0+128),f
  1062  0EEE                     i1l2205:
  1063                           
  1064                           ;main.c: 50:         if(modo>=2)
  1065  0EEE  3002               	movlw	2
  1066  0EEF  1683               	bsf	3,5	;RP0=1, select bank1
  1067  0EF0  1303               	bcf	3,6	;RP1=0, select bank1
  1068  0EF1  023D               	subwf	_modo^(0+128),w
  1069  0EF2  1C03               	skipc
  1070  0EF3  2EF5               	goto	u302_21
  1071  0EF4  2EF6               	goto	u302_20
  1072  0EF5                     u302_21:
  1073  0EF5  2EF7               	goto	i1l2209
  1074  0EF6                     u302_20:
  1075  0EF6                     i1l2207:
  1076                           
  1077                           ;main.c: 51:             modo=0;
  1078  0EF6  01BD               	clrf	_modo^(0+128)
  1079  0EF7                     i1l2209:
  1080                           
  1081                           ;main.c: 53:         if(modo==0){
  1082  0EF7  083D               	movf	_modo^(0+128),w
  1083  0EF8  1D03               	btfss	3,2
  1084  0EF9  2EFB               	goto	u303_21
  1085  0EFA  2EFC               	goto	u303_20
  1086  0EFB                     u303_21:
  1087  0EFB  2F3C               	goto	i1l2219
  1088  0EFC                     u303_20:
  1089  0EFC                     i1l2211:
  1090                           
  1091                           ;main.c: 54:             PORTEbits.RE0 = 1;
  1092  0EFC  1283               	bcf	3,5	;RP0=0, select bank0
  1093  0EFD  1303               	bcf	3,6	;RP1=0, select bank0
  1094  0EFE  1409               	bsf	9,0	;volatile
  1095                           
  1096                           ;main.c: 55:             PORTEbits.RE1 = 0;
  1097  0EFF  1089               	bcf	9,1	;volatile
  1098                           
  1099                           ;main.c: 56:             PORTEbits.RE2 = 0;
  1100  0F00  1109               	bcf	9,2	;volatile
  1101                           
  1102                           ;main.c: 58:             if(!PORTBbits.RB1){
  1103  0F01  1886               	btfsc	6,1	;volatile
  1104  0F02  2F04               	goto	u304_21
  1105  0F03  2F05               	goto	u304_20
  1106  0F04                     u304_21:
  1107  0F04  2F1D               	goto	i1l2215
  1108  0F05                     u304_20:
  1109  0F05                     i1l2213:
  1110                           
  1111                           ;main.c: 59:                 write_EEPROM(0x01,POT1);
  1112  0F05  1683               	bsf	3,5	;RP0=1, select bank1
  1113  0F06  1303               	bcf	3,6	;RP1=0, select bank1
  1114  0F07  083C               	movf	_POT1^(0+128),w
  1115  0F08  00AD               	movwf	??_isr^(0+128)
  1116  0F09  082D               	movf	??_isr^(0+128),w
  1117  0F0A  00F0               	movwf	write_EEPROM@data
  1118  0F0B  3001               	movlw	1
  1119  0F0C  120A  158A  234D  120A  158A  	fcall	_write_EEPROM
  1120                           
  1121                           ;main.c: 60:                 write_EEPROM(0x02,POT2);
  1122  0F11  1683               	bsf	3,5	;RP0=1, select bank1
  1123  0F12  1303               	bcf	3,6	;RP1=0, select bank1
  1124  0F13  083B               	movf	_POT2^(0+128),w
  1125  0F14  00AD               	movwf	??_isr^(0+128)
  1126  0F15  082D               	movf	??_isr^(0+128),w
  1127  0F16  00F0               	movwf	write_EEPROM@data
  1128  0F17  3002               	movlw	2
  1129  0F18  120A  158A  234D  120A  158A  	fcall	_write_EEPROM
  1130  0F1D                     i1l2215:
  1131                           
  1132                           ;main.c: 62:             if(!PORTBbits.RB2){
  1133  0F1D  1283               	bcf	3,5	;RP0=0, select bank0
  1134  0F1E  1303               	bcf	3,6	;RP1=0, select bank0
  1135  0F1F  1906               	btfsc	6,2	;volatile
  1136  0F20  2F22               	goto	u305_21
  1137  0F21  2F23               	goto	u305_20
  1138  0F22                     u305_21:
  1139  0F22  2F7B               	goto	i1l2229
  1140  0F23                     u305_20:
  1141  0F23                     i1l2217:
  1142                           
  1143                           ;main.c: 63:                 write_EEPROM(0x03,POT1);
  1144  0F23  1683               	bsf	3,5	;RP0=1, select bank1
  1145  0F24  1303               	bcf	3,6	;RP1=0, select bank1
  1146  0F25  083C               	movf	_POT1^(0+128),w
  1147  0F26  00AD               	movwf	??_isr^(0+128)
  1148  0F27  082D               	movf	??_isr^(0+128),w
  1149  0F28  00F0               	movwf	write_EEPROM@data
  1150  0F29  3003               	movlw	3
  1151  0F2A  120A  158A  234D  120A  158A  	fcall	_write_EEPROM
  1152                           
  1153                           ;main.c: 64:                 write_EEPROM(0x04,POT2);
  1154  0F2F  1683               	bsf	3,5	;RP0=1, select bank1
  1155  0F30  1303               	bcf	3,6	;RP1=0, select bank1
  1156  0F31  083B               	movf	_POT2^(0+128),w
  1157  0F32  00AD               	movwf	??_isr^(0+128)
  1158  0F33  082D               	movf	??_isr^(0+128),w
  1159  0F34  00F0               	movwf	write_EEPROM@data
  1160  0F35  3004               	movlw	4
  1161  0F36  120A  158A  234D  120A  158A  	fcall	_write_EEPROM
  1162  0F3B  2F7B               	goto	i1l2229
  1163  0F3C                     i1l2219:
  1164  0F3C  033D               	decf	_modo^(0+128),w
  1165  0F3D  1D03               	btfss	3,2
  1166  0F3E  2F40               	goto	u306_21
  1167  0F3F  2F41               	goto	u306_20
  1168  0F40                     u306_21:
  1169  0F40  2F7B               	goto	i1l2229
  1170  0F41                     u306_20:
  1171  0F41                     i1l2221:
  1172                           
  1173                           ;main.c: 68:             PORTEbits.RE0 = 0;
  1174  0F41  1283               	bcf	3,5	;RP0=0, select bank0
  1175  0F42  1303               	bcf	3,6	;RP1=0, select bank0
  1176  0F43  1009               	bcf	9,0	;volatile
  1177                           
  1178                           ;main.c: 69:             PORTEbits.RE1 = 1;
  1179  0F44  1489               	bsf	9,1	;volatile
  1180                           
  1181                           ;main.c: 70:             PORTEbits.RE2 = 0;
  1182  0F45  1109               	bcf	9,2	;volatile
  1183                           
  1184                           ;main.c: 72:             if(!PORTBbits.RB1){
  1185  0F46  1886               	btfsc	6,1	;volatile
  1186  0F47  2F49               	goto	u307_21
  1187  0F48  2F4A               	goto	u307_20
  1188  0F49                     u307_21:
  1189  0F49  2F60               	goto	i1l2225
  1190  0F4A                     u307_20:
  1191  0F4A                     i1l2223:
  1192                           
  1193                           ;main.c: 73:                 POT1 = read_EEPROM(0x01);
  1194  0F4A  3001               	movlw	1
  1195  0F4B  120A  118A  27EA  120A  158A  	fcall	_read_EEPROM
  1196  0F50  1683               	bsf	3,5	;RP0=1, select bank1
  1197  0F51  1303               	bcf	3,6	;RP1=0, select bank1
  1198  0F52  00AD               	movwf	??_isr^(0+128)
  1199  0F53  082D               	movf	??_isr^(0+128),w
  1200  0F54  00BC               	movwf	_POT1^(0+128)
  1201                           
  1202                           ;main.c: 74:                 POT2 = read_EEPROM(0x02);
  1203  0F55  3002               	movlw	2
  1204  0F56  120A  118A  27EA  120A  158A  	fcall	_read_EEPROM
  1205  0F5B  1683               	bsf	3,5	;RP0=1, select bank1
  1206  0F5C  1303               	bcf	3,6	;RP1=0, select bank1
  1207  0F5D  00AD               	movwf	??_isr^(0+128)
  1208  0F5E  082D               	movf	??_isr^(0+128),w
  1209  0F5F  00BB               	movwf	_POT2^(0+128)
  1210  0F60                     i1l2225:
  1211                           
  1212                           ;main.c: 76:             if(!PORTBbits.RB2){
  1213  0F60  1283               	bcf	3,5	;RP0=0, select bank0
  1214  0F61  1906               	btfsc	6,2	;volatile
  1215  0F62  2F64               	goto	u308_21
  1216  0F63  2F65               	goto	u308_20
  1217  0F64                     u308_21:
  1218  0F64  2F7B               	goto	i1l2229
  1219  0F65                     u308_20:
  1220  0F65                     i1l2227:
  1221                           
  1222                           ;main.c: 77:                 POT1 = read_EEPROM(0x03);
  1223  0F65  3003               	movlw	3
  1224  0F66  120A  118A  27EA  120A  158A  	fcall	_read_EEPROM
  1225  0F6B  1683               	bsf	3,5	;RP0=1, select bank1
  1226  0F6C  1303               	bcf	3,6	;RP1=0, select bank1
  1227  0F6D  00AD               	movwf	??_isr^(0+128)
  1228  0F6E  082D               	movf	??_isr^(0+128),w
  1229  0F6F  00BC               	movwf	_POT1^(0+128)
  1230                           
  1231                           ;main.c: 78:                 POT2 = read_EEPROM(0x04);
  1232  0F70  3004               	movlw	4
  1233  0F71  120A  118A  27EA  120A  158A  	fcall	_read_EEPROM
  1234  0F76  1683               	bsf	3,5	;RP0=1, select bank1
  1235  0F77  1303               	bcf	3,6	;RP1=0, select bank1
  1236  0F78  00AD               	movwf	??_isr^(0+128)
  1237  0F79  082D               	movf	??_isr^(0+128),w
  1238  0F7A  00BB               	movwf	_POT2^(0+128)
  1239  0F7B                     i1l2229:
  1240                           
  1241                           ;main.c: 81:         INTCONbits.RBIF = 0;
  1242  0F7B  100B               	bcf	11,0	;volatile
  1243                           
  1244                           ;main.c: 83:     }
  1245  0F7C  2FF5               	goto	i1l126
  1246  0F7D                     i1l105:	
  1247                           ;main.c: 84:     else if(PIR1bits.ADIF){
  1248                           
  1249  0F7D  1283               	bcf	3,5	;RP0=0, select bank0
  1250  0F7E  1303               	bcf	3,6	;RP1=0, select bank0
  1251  0F7F  1F0C               	btfss	12,6	;volatile
  1252  0F80  2F82               	goto	u309_21
  1253  0F81  2F83               	goto	u309_20
  1254  0F82                     u309_21:
  1255  0F82  2FF5               	goto	i1l126
  1256  0F83                     u309_20:
  1257  0F83                     i1l2231:
  1258                           
  1259                           ;main.c: 85:         if(modo==0){
  1260  0F83  1683               	bsf	3,5	;RP0=1, select bank1
  1261  0F84  1303               	bcf	3,6	;RP1=0, select bank1
  1262  0F85  083D               	movf	_modo^(0+128),w
  1263  0F86  1D03               	btfss	3,2
  1264  0F87  2F89               	goto	u310_21
  1265  0F88  2F8A               	goto	u310_20
  1266  0F89                     u310_21:
  1267  0F89  2FC6               	goto	i1l2245
  1268  0F8A                     u310_20:
  1269  0F8A                     i1l2233:
  1270                           
  1271                           ;main.c: 86:             if(ADCON0bits.CHS == 0){
  1272  0F8A  1283               	bcf	3,5	;RP0=0, select bank0
  1273  0F8B  1303               	bcf	3,6	;RP1=0, select bank0
  1274  0F8C  0C1F               	rrf	31,w	;volatile
  1275  0F8D  1683               	bsf	3,5	;RP0=1, select bank1
  1276  0F8E  1303               	bcf	3,6	;RP1=0, select bank1
  1277  0F8F  00AD               	movwf	??_isr^(0+128)
  1278  0F90  0C2D               	rrf	??_isr^(0+128),w
  1279  0F91  390F               	andlw	15
  1280  0F92  3A00               	xorlw	0
  1281  0F93  1D03               	skipz
  1282  0F94  2F96               	goto	u311_21
  1283  0F95  2F97               	goto	u311_20
  1284  0F96                     u311_21:
  1285  0F96  2FA8               	goto	i1l2239
  1286  0F97                     u311_20:
  1287  0F97                     i1l2235:
  1288                           
  1289                           ;main.c: 87:                 POT1 = ADRESH;
  1290  0F97  1283               	bcf	3,5	;RP0=0, select bank0
  1291  0F98  1303               	bcf	3,6	;RP1=0, select bank0
  1292  0F99  081E               	movf	30,w	;volatile
  1293  0F9A  1683               	bsf	3,5	;RP0=1, select bank1
  1294  0F9B  1303               	bcf	3,6	;RP1=0, select bank1
  1295  0F9C  00AD               	movwf	??_isr^(0+128)
  1296  0F9D  082D               	movf	??_isr^(0+128),w
  1297  0F9E  00BC               	movwf	_POT1^(0+128)
  1298  0F9F                     i1l2237:
  1299                           
  1300                           ;main.c: 88:                 SERVO_1(ADRESH);
  1301  0F9F  1283               	bcf	3,5	;RP0=0, select bank0
  1302  0FA0  1303               	bcf	3,6	;RP1=0, select bank0
  1303  0FA1  081E               	movf	30,w	;volatile
  1304  0FA2  120A  158A  23D0  120A  158A  	fcall	_SERVO_1
  1305                           
  1306                           ;main.c: 89:             }else if(ADCON0bits.CHS == 1){
  1307  0FA7  2FF2               	goto	i1l2255
  1308  0FA8                     i1l2239:
  1309  0FA8  1283               	bcf	3,5	;RP0=0, select bank0
  1310  0FA9  1303               	bcf	3,6	;RP1=0, select bank0
  1311  0FAA  0C1F               	rrf	31,w	;volatile
  1312  0FAB  1683               	bsf	3,5	;RP0=1, select bank1
  1313  0FAC  1303               	bcf	3,6	;RP1=0, select bank1
  1314  0FAD  00AD               	movwf	??_isr^(0+128)
  1315  0FAE  0C2D               	rrf	??_isr^(0+128),w
  1316  0FAF  390F               	andlw	15
  1317  0FB0  3A01               	xorlw	1
  1318  0FB1  1D03               	skipz
  1319  0FB2  2FB4               	goto	u312_21
  1320  0FB3  2FB5               	goto	u312_20
  1321  0FB4                     u312_21:
  1322  0FB4  2FF2               	goto	i1l2255
  1323  0FB5                     u312_20:
  1324  0FB5                     i1l2241:
  1325                           
  1326                           ;main.c: 90:                 POT2 = ADRESH;
  1327  0FB5  1283               	bcf	3,5	;RP0=0, select bank0
  1328  0FB6  1303               	bcf	3,6	;RP1=0, select bank0
  1329  0FB7  081E               	movf	30,w	;volatile
  1330  0FB8  1683               	bsf	3,5	;RP0=1, select bank1
  1331  0FB9  1303               	bcf	3,6	;RP1=0, select bank1
  1332  0FBA  00AD               	movwf	??_isr^(0+128)
  1333  0FBB  082D               	movf	??_isr^(0+128),w
  1334  0FBC  00BB               	movwf	_POT2^(0+128)
  1335  0FBD                     i1l2243:
  1336                           
  1337                           ;main.c: 91:                 SERVO_2(ADRESH);
  1338  0FBD  1283               	bcf	3,5	;RP0=0, select bank0
  1339  0FBE  1303               	bcf	3,6	;RP1=0, select bank0
  1340  0FBF  081E               	movf	30,w	;volatile
  1341  0FC0  120A  158A  2410  120A  158A  	fcall	_SERVO_2
  1342  0FC5  2FF2               	goto	i1l2255
  1343  0FC6                     i1l2245:
  1344  0FC6  033D               	decf	_modo^(0+128),w
  1345  0FC7  1D03               	btfss	3,2
  1346  0FC8  2FCA               	goto	u313_21
  1347  0FC9  2FCB               	goto	u313_20
  1348  0FCA                     u313_21:
  1349  0FCA  2FF2               	goto	i1l2255
  1350  0FCB                     u313_20:
  1351  0FCB                     i1l2247:
  1352                           
  1353                           ;main.c: 94:             if(ADCON0bits.CHS == 0){
  1354  0FCB  1283               	bcf	3,5	;RP0=0, select bank0
  1355  0FCC  1303               	bcf	3,6	;RP1=0, select bank0
  1356  0FCD  0C1F               	rrf	31,w	;volatile
  1357  0FCE  1683               	bsf	3,5	;RP0=1, select bank1
  1358  0FCF  1303               	bcf	3,6	;RP1=0, select bank1
  1359  0FD0  00AD               	movwf	??_isr^(0+128)
  1360  0FD1  0C2D               	rrf	??_isr^(0+128),w
  1361  0FD2  390F               	andlw	15
  1362  0FD3  3A00               	xorlw	0
  1363  0FD4  1D03               	skipz
  1364  0FD5  2FD7               	goto	u314_21
  1365  0FD6  2FD8               	goto	u314_20
  1366  0FD7                     u314_21:
  1367  0FD7  2FDF               	goto	i1l2251
  1368  0FD8                     u314_20:
  1369  0FD8                     i1l2249:
  1370                           
  1371                           ;main.c: 95:                 SERVO_1(POT1);
  1372  0FD8  083C               	movf	_POT1^(0+128),w
  1373  0FD9  120A  158A  23D0  120A  158A  	fcall	_SERVO_1
  1374                           
  1375                           ;main.c: 96:             }else if(ADCON0bits.CHS == 1){
  1376  0FDE  2FF2               	goto	i1l2255
  1377  0FDF                     i1l2251:
  1378  0FDF  1283               	bcf	3,5	;RP0=0, select bank0
  1379  0FE0  1303               	bcf	3,6	;RP1=0, select bank0
  1380  0FE1  0C1F               	rrf	31,w	;volatile
  1381  0FE2  1683               	bsf	3,5	;RP0=1, select bank1
  1382  0FE3  1303               	bcf	3,6	;RP1=0, select bank1
  1383  0FE4  00AD               	movwf	??_isr^(0+128)
  1384  0FE5  0C2D               	rrf	??_isr^(0+128),w
  1385  0FE6  390F               	andlw	15
  1386  0FE7  3A01               	xorlw	1
  1387  0FE8  1D03               	skipz
  1388  0FE9  2FEB               	goto	u315_21
  1389  0FEA  2FEC               	goto	u315_20
  1390  0FEB                     u315_21:
  1391  0FEB  2FF2               	goto	i1l2255
  1392  0FEC                     u315_20:
  1393  0FEC                     i1l2253:
  1394                           
  1395                           ;main.c: 97:                 SERVO_2(POT2);
  1396  0FEC  083B               	movf	_POT2^(0+128),w
  1397  0FED  120A  158A  2410  120A  158A  	fcall	_SERVO_2
  1398  0FF2                     i1l2255:
  1399                           
  1400                           ;main.c: 100:         PIR1bits.ADIF = 0;
  1401  0FF2  1283               	bcf	3,5	;RP0=0, select bank0
  1402  0FF3  1303               	bcf	3,6	;RP1=0, select bank0
  1403  0FF4  130C               	bcf	12,6	;volatile
  1404  0FF5                     i1l126:
  1405  0FF5  1683               	bsf	3,5	;RP0=1, select bank1
  1406  0FF6  1303               	bcf	3,6	;RP1=0, select bank1
  1407  0FF7  0830               	movf	(??_isr+3)^(0+128),w
  1408  0FF8  00FF               	movwf	btemp+1
  1409  0FF9  082F               	movf	(??_isr+2)^(0+128),w
  1410  0FFA  008A               	movwf	10
  1411  0FFB  0E2E               	swapf	(??_isr+1)^(0+128),w
  1412  0FFC  0083               	movwf	3
  1413  0FFD  0EFE               	swapf	btemp,f
  1414  0FFE  0E7E               	swapf	btemp,w
  1415  0FFF  0009               	retfie
  1416  1000                     __end_of_isr:
  1417                           
  1418                           	psect	intentry
  1419  0004                     __pintentry:	
  1420                           ;incstack = 0
  1421                           ; Regs used in _isr: [wreg+status,2+status,0+btemp+1+pclath+cstack]
  1422                           
  1423  0004                     interrupt_function:
  1424  007E                     saved_w	set	btemp
  1425  0004  00FE               	movwf	btemp
  1426  0005  0E03               	swapf	3,w
  1427  0006  1683               	bsf	3,5	;RP0=1, select bank1
  1428  0007  1303               	bcf	3,6	;RP1=0, select bank1
  1429  0008  00AE               	movwf	(??_isr+1)^(0+128)
  1430  0009  080A               	movf	10,w
  1431  000A  00AF               	movwf	(??_isr+2)^(0+128)
  1432  000B  087F               	movf	btemp+1,w
  1433  000C  00B0               	movwf	(??_isr+3)^(0+128)
  1434  000D  120A  158A  2EDE   	ljmp	_isr
  1435                           
  1436                           	psect	text3
  1437  0B4D                     __ptext3:	
  1438 ;; *************** function _write_EEPROM *****************
  1439 ;; Defined at:
  1440 ;;		line 223 in file "main.c"
  1441 ;; Parameters:    Size  Location     Type
  1442 ;;  address         1    wreg     unsigned char 
  1443 ;;  data            1    0[COMMON] unsigned char 
  1444 ;; Auto vars:     Size  Location     Type
  1445 ;;  address         1    3[COMMON] unsigned char 
  1446 ;; Return value:  Size  Location     Type
  1447 ;;                  1    wreg      void 
  1448 ;; Registers used:
  1449 ;;		wreg
  1450 ;; Tracked objects:
  1451 ;;		On entry : 0/0
  1452 ;;		On exit  : 0/0
  1453 ;;		Unchanged: 0/0
  1454 ;; Data sizes:     COMMON   BANK0   BANK1   BANK3   BANK2
  1455 ;;      Params:         1       0       0       0       0
  1456 ;;      Locals:         1       0       0       0       0
  1457 ;;      Temps:          2       0       0       0       0
  1458 ;;      Totals:         4       0       0       0       0
  1459 ;;Total ram usage:        4 bytes
  1460 ;; Hardware stack levels used: 1
  1461 ;; This function calls:
  1462 ;;		Nothing
  1463 ;; This function is called by:
  1464 ;;		_isr
  1465 ;; This function uses a non-reentrant model
  1466 ;;
  1467                           
  1468  0B4D                     _write_EEPROM:	
  1469                           ;psect for function _write_EEPROM
  1470                           
  1471                           
  1472                           ;incstack = 0
  1473                           ; Regs used in _write_EEPROM: [wreg]
  1474                           ;write_EEPROM@address stored from wreg
  1475  0B4D  00F3               	movwf	write_EEPROM@address
  1476  0B4E                     i1l2087:
  1477                           
  1478                           ;main.c: 224:     EEADR = address;
  1479  0B4E  0873               	movf	write_EEPROM@address,w
  1480  0B4F  1283               	bcf	3,5	;RP0=0, select bank2
  1481  0B50  1703               	bsf	3,6	;RP1=1, select bank2
  1482  0B51  008D               	movwf	13	;volatile
  1483                           
  1484                           ;main.c: 225:     EEDAT = data;
  1485  0B52  0870               	movf	write_EEPROM@data,w
  1486  0B53  008C               	movwf	12	;volatile
  1487  0B54                     i1l2089:
  1488                           
  1489                           ;main.c: 226:     EECON1bits.EEPGD = 0;
  1490  0B54  1683               	bsf	3,5	;RP0=1, select bank3
  1491  0B55  1703               	bsf	3,6	;RP1=1, select bank3
  1492  0B56  138C               	bcf	12,7	;volsfr
  1493  0B57                     i1l2091:
  1494                           
  1495                           ;main.c: 227:     EECON1bits.WREN=1;
  1496  0B57  150C               	bsf	12,2	;volsfr
  1497  0B58                     i1l2093:
  1498                           
  1499                           ;main.c: 229:     INTCONbits.GIE=0;
  1500  0B58  138B               	bcf	11,7	;volatile
  1501                           
  1502                           ;main.c: 230:     EECON2 = 0x55;
  1503  0B59  3055               	movlw	85
  1504  0B5A  008D               	movwf	13	;volsfr
  1505                           
  1506                           ;main.c: 231:     EECON2=0xaa;
  1507  0B5B  30AA               	movlw	170
  1508  0B5C  008D               	movwf	13	;volsfr
  1509  0B5D                     i1l2095:
  1510                           
  1511                           ;main.c: 233:     EECON1bits.WR=1;
  1512  0B5D  148C               	bsf	12,1	;volsfr
  1513                           
  1514                           ;main.c: 234:     _delay((unsigned long)((10)*(1000000/4000.0)));
  1515  0B5E  3004               	movlw	4
  1516  0B5F  00F2               	movwf	??_write_EEPROM+1
  1517  0B60  303D               	movlw	61
  1518  0B61  00F1               	movwf	??_write_EEPROM
  1519  0B62                     u321_27:
  1520  0B62  0BF1               	decfsz	??_write_EEPROM,f
  1521  0B63  2B62               	goto	u321_27
  1522  0B64  0BF2               	decfsz	??_write_EEPROM+1,f
  1523  0B65  2B62               	goto	u321_27
  1524  0B66  2B67               	nop2
  1525  0B67                     i1l2097:
  1526                           
  1527                           ;main.c: 235:     EECON1bits.WREN=0;
  1528  0B67  1683               	bsf	3,5	;RP0=1, select bank3
  1529  0B68  1703               	bsf	3,6	;RP1=1, select bank3
  1530  0B69  110C               	bcf	12,2	;volsfr
  1531  0B6A                     i1l2099:
  1532                           
  1533                           ;main.c: 236:     INTCONbits.RBIF=0;
  1534  0B6A  100B               	bcf	11,0	;volatile
  1535  0B6B                     i1l2101:
  1536                           
  1537                           ;main.c: 237:     INTCONbits.GIE=1;
  1538  0B6B  178B               	bsf	11,7	;volatile
  1539  0B6C                     i1l159:
  1540  0B6C  0008               	return
  1541  0B6D                     __end_of_write_EEPROM:
  1542                           
  1543                           	psect	text4
  1544  07EA                     __ptext4:	
  1545 ;; *************** function _read_EEPROM *****************
  1546 ;; Defined at:
  1547 ;;		line 217 in file "main.c"
  1548 ;; Parameters:    Size  Location     Type
  1549 ;;  address         1    wreg     unsigned char 
  1550 ;; Auto vars:     Size  Location     Type
  1551 ;;  address         1    0[COMMON] unsigned char 
  1552 ;; Return value:  Size  Location     Type
  1553 ;;                  1    wreg      unsigned char 
  1554 ;; Registers used:
  1555 ;;		wreg
  1556 ;; Tracked objects:
  1557 ;;		On entry : 0/0
  1558 ;;		On exit  : 0/0
  1559 ;;		Unchanged: 0/0
  1560 ;; Data sizes:     COMMON   BANK0   BANK1   BANK3   BANK2
  1561 ;;      Params:         0       0       0       0       0
  1562 ;;      Locals:         1       0       0       0       0
  1563 ;;      Temps:          0       0       0       0       0
  1564 ;;      Totals:         1       0       0       0       0
  1565 ;;Total ram usage:        1 bytes
  1566 ;; Hardware stack levels used: 1
  1567 ;; This function calls:
  1568 ;;		Nothing
  1569 ;; This function is called by:
  1570 ;;		_isr
  1571 ;; This function uses a non-reentrant model
  1572 ;;
  1573                           
  1574  07EA                     _read_EEPROM:	
  1575                           ;psect for function _read_EEPROM
  1576                           
  1577                           
  1578                           ;incstack = 0
  1579                           ; Regs used in _read_EEPROM: [wreg]
  1580                           ;read_EEPROM@address stored from wreg
  1581  07EA  00F0               	movwf	read_EEPROM@address
  1582  07EB                     i1l2103:
  1583                           
  1584                           ;main.c: 218:     EEADR = address;
  1585  07EB  0870               	movf	read_EEPROM@address,w
  1586  07EC  1283               	bcf	3,5	;RP0=0, select bank2
  1587  07ED  1703               	bsf	3,6	;RP1=1, select bank2
  1588  07EE  008D               	movwf	13	;volatile
  1589  07EF                     i1l2105:
  1590                           
  1591                           ;main.c: 219:     EECON1bits.EEPGD = 0;
  1592  07EF  1683               	bsf	3,5	;RP0=1, select bank3
  1593  07F0  1703               	bsf	3,6	;RP1=1, select bank3
  1594  07F1  138C               	bcf	12,7	;volsfr
  1595  07F2                     i1l2107:
  1596                           
  1597                           ;main.c: 220:     EECON1bits.RD = 1;
  1598  07F2  140C               	bsf	12,0	;volsfr
  1599                           
  1600                           ;main.c: 221:     return EEDAT;
  1601  07F3  1283               	bcf	3,5	;RP0=0, select bank2
  1602  07F4  1703               	bsf	3,6	;RP1=1, select bank2
  1603  07F5  080C               	movf	12,w	;volatile
  1604  07F6                     i1l156:
  1605  07F6  0008               	return
  1606  07F7                     __end_of_read_EEPROM:
  1607                           
  1608                           	psect	text5
  1609  0C10                     __ptext5:	
  1610 ;; *************** function _SERVO_2 *****************
  1611 ;; Defined at:
  1612 ;;		line 205 in file "main.c"
  1613 ;; Parameters:    Size  Location     Type
  1614 ;;  val             1    wreg     unsigned char 
  1615 ;; Auto vars:     Size  Location     Type
  1616 ;;  val             1   79[BANK0 ] unsigned char 
  1617 ;; Return value:  Size  Location     Type
  1618 ;;                  1    wreg      void 
  1619 ;; Registers used:
  1620 ;;		wreg, status,2, status,0, btemp+1, pclath, cstack
  1621 ;; Tracked objects:
  1622 ;;		On entry : 0/0
  1623 ;;		On exit  : 0/0
  1624 ;;		Unchanged: 0/0
  1625 ;; Data sizes:     COMMON   BANK0   BANK1   BANK3   BANK2
  1626 ;;      Params:         0       0       0       0       0
  1627 ;;      Locals:         0       1       0       0       0
  1628 ;;      Temps:          0       0       2       0       0
  1629 ;;      Totals:         0       1       2       0       0
  1630 ;;Total ram usage:        3 bytes
  1631 ;; Hardware stack levels used: 1
  1632 ;; Hardware stack levels required when called: 3
  1633 ;; This function calls:
  1634 ;;		_map
  1635 ;; This function is called by:
  1636 ;;		_isr
  1637 ;; This function uses a non-reentrant model
  1638 ;;
  1639                           
  1640  0C10                     _SERVO_2:	
  1641                           ;psect for function _SERVO_2
  1642                           
  1643                           
  1644                           ;incstack = 0
  1645                           ; Regs used in _SERVO_2: [wreg+status,2+status,0+btemp+1+pclath+cstack]
  1646                           ;SERVO_2@val stored from wreg
  1647  0C10  1283               	bcf	3,5	;RP0=0, select bank0
  1648  0C11  1303               	bcf	3,6	;RP1=0, select bank0
  1649  0C12  00EF               	movwf	SERVO_2@val
  1650  0C13                     i1l2117:
  1651                           
  1652                           ;main.c: 206:     CCP2 = map(val, 0, 255, 62, 125);
  1653  0C13  1683               	bsf	3,5	;RP0=1, select bank1
  1654  0C14  1303               	bcf	3,6	;RP1=0, select bank1
  1655  0C15  01A5               	clrf	map@x0^(0+128)
  1656  0C16  30FF               	movlw	255
  1657  0C17  00AB               	movwf	??_SERVO_2^(0+128)
  1658  0C18  082B               	movf	??_SERVO_2^(0+128),w
  1659  0C19  00A6               	movwf	map@x1^(0+128)
  1660  0C1A  303E               	movlw	62
  1661  0C1B  00A7               	movwf	map@y0^(0+128)
  1662  0C1C  3000               	movlw	0
  1663  0C1D  00A8               	movwf	(map@y0^(0+128)+1)
  1664  0C1E  307D               	movlw	125
  1665  0C1F  00A9               	movwf	map@y1^(0+128)
  1666  0C20  3000               	movlw	0
  1667  0C21  00AA               	movwf	(map@y1^(0+128)+1)
  1668  0C22  1283               	bcf	3,5	;RP0=0, select bank0
  1669  0C23  1303               	bcf	3,6	;RP1=0, select bank0
  1670  0C24  086F               	movf	SERVO_2@val,w
  1671  0C25  120A  158A  2572  120A  158A  	fcall	_map
  1672  0C2A  1683               	bsf	3,5	;RP0=1, select bank1
  1673  0C2B  1303               	bcf	3,6	;RP1=0, select bank1
  1674  0C2C  0826               	movf	(?_map+1)^(0+128),w
  1675  0C2D  00B8               	movwf	(_CCP2+1)^(0+128)
  1676  0C2E  0825               	movf	?_map^(0+128),w
  1677  0C2F  00B7               	movwf	_CCP2^(0+128)
  1678  0C30                     i1l2119:
  1679                           
  1680                           ;main.c: 207:     CCPR2L = (uint8_t)(CCP2>>2);
  1681  0C30  0838               	movf	(_CCP2+1)^(0+128),w
  1682  0C31  00AC               	movwf	(??_SERVO_2^(0+128)+1)
  1683  0C32  0837               	movf	_CCP2^(0+128),w
  1684  0C33  00AB               	movwf	??_SERVO_2^(0+128)
  1685  0C34  1003               	clrc
  1686  0C35  0CAC               	rrf	(??_SERVO_2^(0+128)+1),f
  1687  0C36  0CAB               	rrf	??_SERVO_2^(0+128),f
  1688  0C37  1003               	clrc
  1689  0C38  0CAC               	rrf	(??_SERVO_2^(0+128)+1),f
  1690  0C39  0CAB               	rrf	??_SERVO_2^(0+128),f
  1691  0C3A  082B               	movf	??_SERVO_2^(0+128),w
  1692  0C3B  1283               	bcf	3,5	;RP0=0, select bank0
  1693  0C3C  1303               	bcf	3,6	;RP1=0, select bank0
  1694  0C3D  009B               	movwf	27	;volatile
  1695  0C3E                     i1l2121:
  1696                           
  1697                           ;main.c: 208:     CCP2CONbits.DC2B0 = CCP2 & 0b01;
  1698  0C3E  1683               	bsf	3,5	;RP0=1, select bank1
  1699  0C3F  1303               	bcf	3,6	;RP1=0, select bank1
  1700  0C40  0837               	movf	_CCP2^(0+128),w
  1701  0C41  3901               	andlw	1
  1702  0C42  00AB               	movwf	??_SERVO_2^(0+128)
  1703  0C43  0EAB               	swapf	??_SERVO_2^(0+128),f
  1704  0C44  1283               	bcf	3,5	;RP0=0, select bank0
  1705  0C45  1303               	bcf	3,6	;RP1=0, select bank0
  1706  0C46  081D               	movf	29,w	;volatile
  1707  0C47  1683               	bsf	3,5	;RP0=1, select bank1
  1708  0C48  1303               	bcf	3,6	;RP1=0, select bank1
  1709  0C49  062B               	xorwf	??_SERVO_2^(0+128),w
  1710  0C4A  39EF               	andlw	-17
  1711  0C4B  062B               	xorwf	??_SERVO_2^(0+128),w
  1712  0C4C  1283               	bcf	3,5	;RP0=0, select bank0
  1713  0C4D  1303               	bcf	3,6	;RP1=0, select bank0
  1714  0C4E  009D               	movwf	29	;volatile
  1715  0C4F                     i1l2123:
  1716                           
  1717                           ;main.c: 209:     CCP2CONbits.DC2B1 = CCP2 & 0b10;
  1718  0C4F  1683               	bsf	3,5	;RP0=1, select bank1
  1719  0C50  1303               	bcf	3,6	;RP1=0, select bank1
  1720  0C51  0837               	movf	_CCP2^(0+128),w
  1721  0C52  3902               	andlw	2
  1722  0C53  00AB               	movwf	??_SERVO_2^(0+128)
  1723  0C54  0EAB               	swapf	??_SERVO_2^(0+128),f
  1724  0C55  0DAB               	rlf	??_SERVO_2^(0+128),f
  1725  0C56  1283               	bcf	3,5	;RP0=0, select bank0
  1726  0C57  1303               	bcf	3,6	;RP1=0, select bank0
  1727  0C58  081D               	movf	29,w	;volatile
  1728  0C59  1683               	bsf	3,5	;RP0=1, select bank1
  1729  0C5A  1303               	bcf	3,6	;RP1=0, select bank1
  1730  0C5B  062B               	xorwf	??_SERVO_2^(0+128),w
  1731  0C5C  39DF               	andlw	-33
  1732  0C5D  062B               	xorwf	??_SERVO_2^(0+128),w
  1733  0C5E  1283               	bcf	3,5	;RP0=0, select bank0
  1734  0C5F  1303               	bcf	3,6	;RP1=0, select bank0
  1735  0C60  009D               	movwf	29	;volatile
  1736  0C61                     i1l150:
  1737  0C61  0008               	return
  1738  0C62                     __end_of_SERVO_2:
  1739                           
  1740                           	psect	text6
  1741  0BD0                     __ptext6:	
  1742 ;; *************** function _SERVO_1 *****************
  1743 ;; Defined at:
  1744 ;;		line 199 in file "main.c"
  1745 ;; Parameters:    Size  Location     Type
  1746 ;;  val             1    wreg     unsigned char 
  1747 ;; Auto vars:     Size  Location     Type
  1748 ;;  val             1   79[BANK0 ] unsigned char 
  1749 ;; Return value:  Size  Location     Type
  1750 ;;                  1    wreg      void 
  1751 ;; Registers used:
  1752 ;;		wreg, status,2, status,0, btemp+1, pclath, cstack
  1753 ;; Tracked objects:
  1754 ;;		On entry : 0/0
  1755 ;;		On exit  : 0/0
  1756 ;;		Unchanged: 0/0
  1757 ;; Data sizes:     COMMON   BANK0   BANK1   BANK3   BANK2
  1758 ;;      Params:         0       0       0       0       0
  1759 ;;      Locals:         0       1       0       0       0
  1760 ;;      Temps:          0       0       2       0       0
  1761 ;;      Totals:         0       1       2       0       0
  1762 ;;Total ram usage:        3 bytes
  1763 ;; Hardware stack levels used: 1
  1764 ;; Hardware stack levels required when called: 3
  1765 ;; This function calls:
  1766 ;;		_map
  1767 ;; This function is called by:
  1768 ;;		_isr
  1769 ;; This function uses a non-reentrant model
  1770 ;;
  1771                           
  1772  0BD0                     _SERVO_1:	
  1773                           ;psect for function _SERVO_1
  1774                           
  1775                           
  1776                           ;incstack = 0
  1777                           ; Regs used in _SERVO_1: [wreg+status,2+status,0+btemp+1+pclath+cstack]
  1778                           ;SERVO_1@val stored from wreg
  1779  0BD0  1283               	bcf	3,5	;RP0=0, select bank0
  1780  0BD1  1303               	bcf	3,6	;RP1=0, select bank0
  1781  0BD2  00EF               	movwf	SERVO_1@val
  1782  0BD3                     i1l2111:
  1783                           
  1784                           ;main.c: 200:     CCP1 = map(val, 0, 255, 62, 125);
  1785  0BD3  1683               	bsf	3,5	;RP0=1, select bank1
  1786  0BD4  1303               	bcf	3,6	;RP1=0, select bank1
  1787  0BD5  01A5               	clrf	map@x0^(0+128)
  1788  0BD6  30FF               	movlw	255
  1789  0BD7  00AB               	movwf	??_SERVO_1^(0+128)
  1790  0BD8  082B               	movf	??_SERVO_1^(0+128),w
  1791  0BD9  00A6               	movwf	map@x1^(0+128)
  1792  0BDA  303E               	movlw	62
  1793  0BDB  00A7               	movwf	map@y0^(0+128)
  1794  0BDC  3000               	movlw	0
  1795  0BDD  00A8               	movwf	(map@y0^(0+128)+1)
  1796  0BDE  307D               	movlw	125
  1797  0BDF  00A9               	movwf	map@y1^(0+128)
  1798  0BE0  3000               	movlw	0
  1799  0BE1  00AA               	movwf	(map@y1^(0+128)+1)
  1800  0BE2  1283               	bcf	3,5	;RP0=0, select bank0
  1801  0BE3  1303               	bcf	3,6	;RP1=0, select bank0
  1802  0BE4  086F               	movf	SERVO_1@val,w
  1803  0BE5  120A  158A  2572  120A  158A  	fcall	_map
  1804  0BEA  1683               	bsf	3,5	;RP0=1, select bank1
  1805  0BEB  1303               	bcf	3,6	;RP1=0, select bank1
  1806  0BEC  0826               	movf	(?_map+1)^(0+128),w
  1807  0BED  00BA               	movwf	(_CCP1+1)^(0+128)
  1808  0BEE  0825               	movf	?_map^(0+128),w
  1809  0BEF  00B9               	movwf	_CCP1^(0+128)
  1810  0BF0                     i1l2113:
  1811                           
  1812                           ;main.c: 201:     CCPR1L = (uint8_t)(CCP1>>2);
  1813  0BF0  083A               	movf	(_CCP1+1)^(0+128),w
  1814  0BF1  00AC               	movwf	(??_SERVO_1^(0+128)+1)
  1815  0BF2  0839               	movf	_CCP1^(0+128),w
  1816  0BF3  00AB               	movwf	??_SERVO_1^(0+128)
  1817  0BF4  1003               	clrc
  1818  0BF5  0CAC               	rrf	(??_SERVO_1^(0+128)+1),f
  1819  0BF6  0CAB               	rrf	??_SERVO_1^(0+128),f
  1820  0BF7  1003               	clrc
  1821  0BF8  0CAC               	rrf	(??_SERVO_1^(0+128)+1),f
  1822  0BF9  0CAB               	rrf	??_SERVO_1^(0+128),f
  1823  0BFA  082B               	movf	??_SERVO_1^(0+128),w
  1824  0BFB  1283               	bcf	3,5	;RP0=0, select bank0
  1825  0BFC  1303               	bcf	3,6	;RP1=0, select bank0
  1826  0BFD  0095               	movwf	21	;volatile
  1827  0BFE                     i1l2115:
  1828                           
  1829                           ;main.c: 202:     CCP1CONbits.DC1B = CCP1 & 0b11;
  1830  0BFE  1683               	bsf	3,5	;RP0=1, select bank1
  1831  0BFF  1303               	bcf	3,6	;RP1=0, select bank1
  1832  0C00  0839               	movf	_CCP1^(0+128),w
  1833  0C01  3903               	andlw	3
  1834  0C02  00AB               	movwf	??_SERVO_1^(0+128)
  1835  0C03  0EAB               	swapf	??_SERVO_1^(0+128),f
  1836  0C04  1283               	bcf	3,5	;RP0=0, select bank0
  1837  0C05  1303               	bcf	3,6	;RP1=0, select bank0
  1838  0C06  0817               	movf	23,w	;volatile
  1839  0C07  1683               	bsf	3,5	;RP0=1, select bank1
  1840  0C08  1303               	bcf	3,6	;RP1=0, select bank1
  1841  0C09  062B               	xorwf	??_SERVO_1^(0+128),w
  1842  0C0A  39CF               	andlw	-49
  1843  0C0B  062B               	xorwf	??_SERVO_1^(0+128),w
  1844  0C0C  1283               	bcf	3,5	;RP0=0, select bank0
  1845  0C0D  1303               	bcf	3,6	;RP1=0, select bank0
  1846  0C0E  0097               	movwf	23	;volatile
  1847  0C0F                     i1l147:
  1848  0C0F  0008               	return
  1849  0C10                     __end_of_SERVO_1:
  1850                           
  1851                           	psect	text7
  1852  0D72                     __ptext7:	
  1853 ;; *************** function _map *****************
  1854 ;; Defined at:
  1855 ;;		line 212 in file "main.c"
  1856 ;; Parameters:    Size  Location     Type
  1857 ;;  x               1    wreg     unsigned char 
  1858 ;;  x0              1    5[BANK1 ] unsigned char 
  1859 ;;  x1              1    6[BANK1 ] unsigned char 
  1860 ;;  y0              2    7[BANK1 ] unsigned short 
  1861 ;;  y1              2    9[BANK1 ] unsigned short 
  1862 ;; Auto vars:     Size  Location     Type
  1863 ;;  x               1   78[BANK0 ] unsigned char 
  1864 ;; Return value:  Size  Location     Type
  1865 ;;                  2    5[BANK1 ] unsigned short 
  1866 ;; Registers used:
  1867 ;;		wreg, status,2, status,0, btemp+1, pclath, cstack
  1868 ;; Tracked objects:
  1869 ;;		On entry : 0/0
  1870 ;;		On exit  : 0/0
  1871 ;;		Unchanged: 0/0
  1872 ;; Data sizes:     COMMON   BANK0   BANK1   BANK3   BANK2
  1873 ;;      Params:         0       0       6       0       0
  1874 ;;      Locals:         0       1       0       0       0
  1875 ;;      Temps:          0       0       0       0       0
  1876 ;;      Totals:         0       1       6       0       0
  1877 ;;Total ram usage:        7 bytes
  1878 ;; Hardware stack levels used: 1
  1879 ;; Hardware stack levels required when called: 2
  1880 ;; This function calls:
  1881 ;;		___fladd
  1882 ;;		___fldiv
  1883 ;;		___flmul
  1884 ;;		___fltol
  1885 ;;		___xxtofl
  1886 ;; This function is called by:
  1887 ;;		_SERVO_1
  1888 ;;		_SERVO_2
  1889 ;; This function uses a non-reentrant model
  1890 ;;
  1891                           
  1892  0D72                     _map:	
  1893                           ;psect for function _map
  1894                           
  1895                           
  1896                           ;incstack = 0
  1897                           ; Regs used in _map: [wreg+status,2+status,0+btemp+1+pclath+cstack]
  1898                           ;map@x stored from wreg
  1899  0D72  1283               	bcf	3,5	;RP0=0, select bank0
  1900  0D73  1303               	bcf	3,6	;RP1=0, select bank0
  1901  0D74  00EE               	movwf	map@x
  1902  0D75                     i1l2083:
  1903                           
  1904                           ;main.c: 212: unsigned short map(uint8_t x, uint8_t x0, uint8_t x1,;main.c: 213:        
      +                               unsigned short y0, unsigned short y1){;main.c: 214:     return (unsigned short)(y0+
      +                          ((float)(y1-y0)/(x1-x0))*(x-x0));
  1905  0D75  1683               	bsf	3,5	;RP0=1, select bank1
  1906  0D76  1303               	bcf	3,6	;RP1=0, select bank1
  1907  0D77  0827               	movf	map@y0^(0+128),w
  1908  0D78  00F0               	movwf	___xxtofl@val
  1909  0D79  0828               	movf	(map@y0+1)^(0+128),w
  1910  0D7A  00F1               	movwf	___xxtofl@val+1
  1911  0D7B  01F2               	clrf	___xxtofl@val+2
  1912  0D7C  01F3               	clrf	___xxtofl@val+3
  1913  0D7D  3000               	movlw	0
  1914  0D7E  120A  158A  2624  120A  158A  	fcall	___xxtofl
  1915  0D83  0873               	movf	?___xxtofl+3,w
  1916  0D84  1283               	bcf	3,5	;RP0=0, select bank0
  1917  0D85  1303               	bcf	3,6	;RP1=0, select bank0
  1918  0D86  00DB               	movwf	___fladd@a+3
  1919  0D87  0872               	movf	?___xxtofl+2,w
  1920  0D88  00DA               	movwf	___fladd@a+2
  1921  0D89  0871               	movf	?___xxtofl+1,w
  1922  0D8A  00D9               	movwf	___fladd@a+1
  1923  0D8B  0870               	movf	?___xxtofl,w
  1924  0D8C  00D8               	movwf	___fladd@a
  1925  0D8D  1683               	bsf	3,5	;RP0=1, select bank1
  1926  0D8E  1303               	bcf	3,6	;RP1=0, select bank1
  1927  0D8F  0827               	movf	map@y0^(0+128),w
  1928  0D90  0229               	subwf	map@y1^(0+128),w
  1929  0D91  00F0               	movwf	___xxtofl@val
  1930  0D92  0828               	movf	(map@y0+1)^(0+128),w
  1931  0D93  1C03               	skipc
  1932  0D94  0A28               	incf	(map@y0+1)^(0+128),w
  1933  0D95  022A               	subwf	(map@y1+1)^(0+128),w
  1934  0D96  00F1               	movwf	___xxtofl@val+1
  1935  0D97  01F2               	clrf	___xxtofl@val+2
  1936  0D98  01F3               	clrf	___xxtofl@val+3
  1937  0D99  3000               	movlw	0
  1938  0D9A  120A  158A  2624  120A  158A  	fcall	___xxtofl
  1939  0D9F  0873               	movf	?___xxtofl+3,w
  1940  0DA0  1283               	bcf	3,5	;RP0=0, select bank0
  1941  0DA1  1303               	bcf	3,6	;RP1=0, select bank0
  1942  0DA2  00A7               	movwf	___fldiv@b+3
  1943  0DA3  0872               	movf	?___xxtofl+2,w
  1944  0DA4  00A6               	movwf	___fldiv@b+2
  1945  0DA5  0871               	movf	?___xxtofl+1,w
  1946  0DA6  00A5               	movwf	___fldiv@b+1
  1947  0DA7  0870               	movf	?___xxtofl,w
  1948  0DA8  00A4               	movwf	___fldiv@b
  1949  0DA9  1683               	bsf	3,5	;RP0=1, select bank1
  1950  0DAA  1303               	bcf	3,6	;RP1=0, select bank1
  1951  0DAB  0825               	movf	map@x0^(0+128),w
  1952  0DAC  0226               	subwf	map@x1^(0+128),w
  1953  0DAD  00F0               	movwf	___xxtofl@val
  1954  0DAE  01F1               	clrf	___xxtofl@val+1
  1955  0DAF  1C03               	skipc
  1956  0DB0  03F1               	decf	___xxtofl@val+1,f
  1957  0DB1  01F2               	clrf	___xxtofl@val+2
  1958  0DB2  1BF1               	btfsc	___xxtofl@val+1,7
  1959  0DB3  03F2               	decf	___xxtofl@val+2,f
  1960  0DB4  0872               	movf	___xxtofl@val+2,w
  1961  0DB5  00F3               	movwf	___xxtofl@val+3
  1962  0DB6  3001               	movlw	1
  1963  0DB7  120A  158A  2624  120A  158A  	fcall	___xxtofl
  1964  0DBC  0873               	movf	?___xxtofl+3,w
  1965  0DBD  1283               	bcf	3,5	;RP0=0, select bank0
  1966  0DBE  1303               	bcf	3,6	;RP1=0, select bank0
  1967  0DBF  00A3               	movwf	___fldiv@a+3
  1968  0DC0  0872               	movf	?___xxtofl+2,w
  1969  0DC1  00A2               	movwf	___fldiv@a+2
  1970  0DC2  0871               	movf	?___xxtofl+1,w
  1971  0DC3  00A1               	movwf	___fldiv@a+1
  1972  0DC4  0870               	movf	?___xxtofl,w
  1973  0DC5  00A0               	movwf	___fldiv@a
  1974  0DC6  120A  118A  260D  120A  158A  	fcall	___fldiv
  1975  0DCB  1283               	bcf	3,5	;RP0=0, select bank0
  1976  0DCC  1303               	bcf	3,6	;RP1=0, select bank0
  1977  0DCD  0823               	movf	?___fldiv+3,w
  1978  0DCE  00C1               	movwf	___flmul@a+3
  1979  0DCF  0822               	movf	?___fldiv+2,w
  1980  0DD0  00C0               	movwf	___flmul@a+2
  1981  0DD1  0821               	movf	?___fldiv+1,w
  1982  0DD2  00BF               	movwf	___flmul@a+1
  1983  0DD3  0820               	movf	?___fldiv,w
  1984  0DD4  00BE               	movwf	___flmul@a
  1985  0DD5  1683               	bsf	3,5	;RP0=1, select bank1
  1986  0DD6  1303               	bcf	3,6	;RP1=0, select bank1
  1987  0DD7  0825               	movf	map@x0^(0+128),w
  1988  0DD8  1283               	bcf	3,5	;RP0=0, select bank0
  1989  0DD9  1303               	bcf	3,6	;RP1=0, select bank0
  1990  0DDA  026E               	subwf	map@x,w
  1991  0DDB  00F0               	movwf	___xxtofl@val
  1992  0DDC  01F1               	clrf	___xxtofl@val+1
  1993  0DDD  1C03               	skipc
  1994  0DDE  03F1               	decf	___xxtofl@val+1,f
  1995  0DDF  01F2               	clrf	___xxtofl@val+2
  1996  0DE0  1BF1               	btfsc	___xxtofl@val+1,7
  1997  0DE1  03F2               	decf	___xxtofl@val+2,f
  1998  0DE2  0872               	movf	___xxtofl@val+2,w
  1999  0DE3  00F3               	movwf	___xxtofl@val+3
  2000  0DE4  3001               	movlw	1
  2001  0DE5  120A  158A  2624  120A  158A  	fcall	___xxtofl
  2002  0DEA  0873               	movf	?___xxtofl+3,w
  2003  0DEB  1283               	bcf	3,5	;RP0=0, select bank0
  2004  0DEC  1303               	bcf	3,6	;RP1=0, select bank0
  2005  0DED  00BD               	movwf	___flmul@b+3
  2006  0DEE  0872               	movf	?___xxtofl+2,w
  2007  0DEF  00BC               	movwf	___flmul@b+2
  2008  0DF0  0871               	movf	?___xxtofl+1,w
  2009  0DF1  00BB               	movwf	___flmul@b+1
  2010  0DF2  0870               	movf	?___xxtofl,w
  2011  0DF3  00BA               	movwf	___flmul@b
  2012  0DF4  120A  118A  2024  120A  158A  	fcall	___flmul
  2013  0DF9  1283               	bcf	3,5	;RP0=0, select bank0
  2014  0DFA  1303               	bcf	3,6	;RP1=0, select bank0
  2015  0DFB  083D               	movf	?___flmul+3,w
  2016  0DFC  00D7               	movwf	___fladd@b+3
  2017  0DFD  083C               	movf	?___flmul+2,w
  2018  0DFE  00D6               	movwf	___fladd@b+2
  2019  0DFF  083B               	movf	?___flmul+1,w
  2020  0E00  00D5               	movwf	___fladd@b+1
  2021  0E01  083A               	movf	?___flmul,w
  2022  0E02  00D4               	movwf	___fladd@b
  2023  0E03  120A  118A  2385  120A  158A  	fcall	___fladd
  2024  0E08  1283               	bcf	3,5	;RP0=0, select bank0
  2025  0E09  1303               	bcf	3,6	;RP1=0, select bank0
  2026  0E0A  0857               	movf	?___fladd+3,w
  2027  0E0B  00EB               	movwf	___fltol@f1+3
  2028  0E0C  0856               	movf	?___fladd+2,w
  2029  0E0D  00EA               	movwf	___fltol@f1+2
  2030  0E0E  0855               	movf	?___fladd+1,w
  2031  0E0F  00E9               	movwf	___fltol@f1+1
  2032  0E10  0854               	movf	?___fladd,w
  2033  0E11  00E8               	movwf	___fltol@f1
  2034  0E12  120A  158A  24D6  120A  158A  	fcall	___fltol
  2035  0E17  1283               	bcf	3,5	;RP0=0, select bank0
  2036  0E18  1303               	bcf	3,6	;RP1=0, select bank0
  2037  0E19  0869               	movf	?___fltol+1,w
  2038  0E1A  1683               	bsf	3,5	;RP0=1, select bank1
  2039  0E1B  1303               	bcf	3,6	;RP1=0, select bank1
  2040  0E1C  00A6               	movwf	(?_map+1)^(0+128)
  2041  0E1D  1283               	bcf	3,5	;RP0=0, select bank0
  2042  0E1E  1303               	bcf	3,6	;RP1=0, select bank0
  2043  0E1F  0868               	movf	?___fltol,w
  2044  0E20  1683               	bsf	3,5	;RP0=1, select bank1
  2045  0E21  1303               	bcf	3,6	;RP1=0, select bank1
  2046  0E22  00A5               	movwf	?_map^(0+128)
  2047  0E23                     i1l153:
  2048  0E23  0008               	return
  2049  0E24                     __end_of_map:
  2050                           
  2051                           	psect	text8
  2052  0E24                     __ptext8:	
  2053 ;; *************** function ___xxtofl *****************
  2054 ;; Defined at:
  2055 ;;		line 10 in file "C:\Program Files\Microchip\xc8\v2.35\pic\sources\c90\common\xxtofl.c"
  2056 ;; Parameters:    Size  Location     Type
  2057 ;;  sign            1    wreg     unsigned char 
  2058 ;;  val             4    0[COMMON] long 
  2059 ;; Auto vars:     Size  Location     Type
  2060 ;;  sign            1    8[COMMON] unsigned char 
  2061 ;;  arg             4   10[COMMON] unsigned long 
  2062 ;;  exp             1    9[COMMON] unsigned char 
  2063 ;; Return value:  Size  Location     Type
  2064 ;;                  4    0[COMMON] unsigned char 
  2065 ;; Registers used:
  2066 ;;		wreg, status,2, status,0
  2067 ;; Tracked objects:
  2068 ;;		On entry : 0/0
  2069 ;;		On exit  : 0/0
  2070 ;;		Unchanged: 0/0
  2071 ;; Data sizes:     COMMON   BANK0   BANK1   BANK3   BANK2
  2072 ;;      Params:         4       0       0       0       0
  2073 ;;      Locals:         6       0       0       0       0
  2074 ;;      Temps:          4       0       0       0       0
  2075 ;;      Totals:        14       0       0       0       0
  2076 ;;Total ram usage:       14 bytes
  2077 ;; Hardware stack levels used: 1
  2078 ;; This function calls:
  2079 ;;		Nothing
  2080 ;; This function is called by:
  2081 ;;		_map
  2082 ;; This function uses a non-reentrant model
  2083 ;;
  2084                           
  2085  0E24                     ___xxtofl:	
  2086                           ;psect for function ___xxtofl
  2087                           
  2088                           
  2089                           ;incstack = 0
  2090                           ; Regs used in ___xxtofl: [wreg+status,2+status,0]
  2091                           ;___xxtofl@sign stored from wreg
  2092  0E24  00F8               	movwf	___xxtofl@sign
  2093  0E25                     i1l2039:
  2094  0E25  0878               	movf	___xxtofl@sign,w
  2095  0E26  1903               	btfsc	3,2
  2096  0E27  2E29               	goto	u285_21
  2097  0E28  2E2A               	goto	u285_20
  2098  0E29                     u285_21:
  2099  0E29  2E3E               	goto	i1l2045
  2100  0E2A                     u285_20:
  2101  0E2A                     i1l2041:
  2102  0E2A  1FF3               	btfss	___xxtofl@val+3,7
  2103  0E2B  2E2D               	goto	u286_21
  2104  0E2C  2E2E               	goto	u286_20
  2105  0E2D                     u286_21:
  2106  0E2D  2E3E               	goto	i1l2045
  2107  0E2E                     u286_20:
  2108  0E2E                     i1l2043:
  2109  0E2E  0970               	comf	___xxtofl@val,w
  2110  0E2F  00FA               	movwf	___xxtofl@arg
  2111  0E30  0971               	comf	___xxtofl@val+1,w
  2112  0E31  00FB               	movwf	___xxtofl@arg+1
  2113  0E32  0972               	comf	___xxtofl@val+2,w
  2114  0E33  00FC               	movwf	___xxtofl@arg+2
  2115  0E34  0973               	comf	___xxtofl@val+3,w
  2116  0E35  00FD               	movwf	___xxtofl@arg+3
  2117  0E36  0AFA               	incf	___xxtofl@arg,f
  2118  0E37  1903               	skipnz
  2119  0E38  0AFB               	incf	___xxtofl@arg+1,f
  2120  0E39  1903               	skipnz
  2121  0E3A  0AFC               	incf	___xxtofl@arg+2,f
  2122  0E3B  1903               	skipnz
  2123  0E3C  0AFD               	incf	___xxtofl@arg+3,f
  2124  0E3D  2E46               	goto	i1l678
  2125  0E3E                     i1l2045:
  2126  0E3E  0873               	movf	___xxtofl@val+3,w
  2127  0E3F  00FD               	movwf	___xxtofl@arg+3
  2128  0E40  0872               	movf	___xxtofl@val+2,w
  2129  0E41  00FC               	movwf	___xxtofl@arg+2
  2130  0E42  0871               	movf	___xxtofl@val+1,w
  2131  0E43  00FB               	movwf	___xxtofl@arg+1
  2132  0E44  0870               	movf	___xxtofl@val,w
  2133  0E45  00FA               	movwf	___xxtofl@arg
  2134  0E46                     i1l678:
  2135  0E46  0873               	movf	___xxtofl@val+3,w
  2136  0E47  0472               	iorwf	___xxtofl@val+2,w
  2137  0E48  0471               	iorwf	___xxtofl@val+1,w
  2138  0E49  0470               	iorwf	___xxtofl@val,w
  2139  0E4A  1D03               	skipz
  2140  0E4B  2E4D               	goto	u287_21
  2141  0E4C  2E4E               	goto	u287_20
  2142  0E4D                     u287_21:
  2143  0E4D  2E57               	goto	i1l2051
  2144  0E4E                     u287_20:
  2145  0E4E                     i1l2047:
  2146  0E4E  3000               	movlw	0
  2147  0E4F  00F3               	movwf	?___xxtofl+3
  2148  0E50  3000               	movlw	0
  2149  0E51  00F2               	movwf	?___xxtofl+2
  2150  0E52  3000               	movlw	0
  2151  0E53  00F1               	movwf	?___xxtofl+1
  2152  0E54  3000               	movlw	0
  2153  0E55  00F0               	movwf	?___xxtofl
  2154  0E56  2EDD               	goto	i1l680
  2155  0E57                     i1l2051:
  2156  0E57  3096               	movlw	150
  2157  0E58  00F4               	movwf	??___xxtofl
  2158  0E59  0874               	movf	??___xxtofl,w
  2159  0E5A  00F9               	movwf	___xxtofl@exp
  2160  0E5B  2E69               	goto	i1l2055
  2161  0E5C                     i1l2053:
  2162  0E5C  3001               	movlw	1
  2163  0E5D  00F4               	movwf	??___xxtofl
  2164  0E5E  0874               	movf	??___xxtofl,w
  2165  0E5F  07F9               	addwf	___xxtofl@exp,f
  2166  0E60  3001               	movlw	1
  2167  0E61                     u288_25:
  2168  0E61  1003               	clrc
  2169  0E62  0CFD               	rrf	___xxtofl@arg+3,f
  2170  0E63  0CFC               	rrf	___xxtofl@arg+2,f
  2171  0E64  0CFB               	rrf	___xxtofl@arg+1,f
  2172  0E65  0CFA               	rrf	___xxtofl@arg,f
  2173  0E66  3EFF               	addlw	-1
  2174  0E67  1D03               	skipz
  2175  0E68  2E61               	goto	u288_25
  2176  0E69                     i1l2055:
  2177  0E69  30FE               	movlw	254
  2178  0E6A  057D               	andwf	___xxtofl@arg+3,w
  2179  0E6B  1D03               	btfss	3,2
  2180  0E6C  2E6E               	goto	u289_21
  2181  0E6D  2E6F               	goto	u289_20
  2182  0E6E                     u289_21:
  2183  0E6E  2E5C               	goto	i1l2053
  2184  0E6F                     u289_20:
  2185  0E6F  2E8B               	goto	i1l684
  2186  0E70                     i1l2057:
  2187  0E70  3001               	movlw	1
  2188  0E71  00F4               	movwf	??___xxtofl
  2189  0E72  0874               	movf	??___xxtofl,w
  2190  0E73  07F9               	addwf	___xxtofl@exp,f
  2191  0E74                     i1l2059:
  2192  0E74  3001               	movlw	1
  2193  0E75  07FA               	addwf	___xxtofl@arg,f
  2194  0E76  3000               	movlw	0
  2195  0E77  1803               	skipnc
  2196  0E78  3001               	movlw	1
  2197  0E79  07FB               	addwf	___xxtofl@arg+1,f
  2198  0E7A  3000               	movlw	0
  2199  0E7B  1803               	skipnc
  2200  0E7C  3001               	movlw	1
  2201  0E7D  07FC               	addwf	___xxtofl@arg+2,f
  2202  0E7E  3000               	movlw	0
  2203  0E7F  1803               	skipnc
  2204  0E80  3001               	movlw	1
  2205  0E81  07FD               	addwf	___xxtofl@arg+3,f
  2206  0E82                     i1l2061:
  2207  0E82  3001               	movlw	1
  2208  0E83                     u290_25:
  2209  0E83  1003               	clrc
  2210  0E84  0CFD               	rrf	___xxtofl@arg+3,f
  2211  0E85  0CFC               	rrf	___xxtofl@arg+2,f
  2212  0E86  0CFB               	rrf	___xxtofl@arg+1,f
  2213  0E87  0CFA               	rrf	___xxtofl@arg,f
  2214  0E88  3EFF               	addlw	-1
  2215  0E89  1D03               	skipz
  2216  0E8A  2E83               	goto	u290_25
  2217  0E8B                     i1l684:
  2218  0E8B  30FF               	movlw	255
  2219  0E8C  057D               	andwf	___xxtofl@arg+3,w
  2220  0E8D  1D03               	btfss	3,2
  2221  0E8E  2E90               	goto	u291_21
  2222  0E8F  2E91               	goto	u291_20
  2223  0E90                     u291_21:
  2224  0E90  2E70               	goto	i1l2057
  2225  0E91                     u291_20:
  2226  0E91  2E9D               	goto	i1l2065
  2227  0E92                     i1l2063:
  2228  0E92  3001               	movlw	1
  2229  0E93  02F9               	subwf	___xxtofl@exp,f
  2230  0E94  3001               	movlw	1
  2231  0E95  00F4               	movwf	??___xxtofl
  2232  0E96                     u292_25:
  2233  0E96  1003               	clrc
  2234  0E97  0DFA               	rlf	___xxtofl@arg,f
  2235  0E98  0DFB               	rlf	___xxtofl@arg+1,f
  2236  0E99  0DFC               	rlf	___xxtofl@arg+2,f
  2237  0E9A  0DFD               	rlf	___xxtofl@arg+3,f
  2238  0E9B  0BF4               	decfsz	??___xxtofl,f
  2239  0E9C  2E96               	goto	u292_25
  2240  0E9D                     i1l2065:
  2241  0E9D  1BFC               	btfsc	___xxtofl@arg+2,7
  2242  0E9E  2EA0               	goto	u293_21
  2243  0E9F  2EA1               	goto	u293_20
  2244  0EA0                     u293_21:
  2245  0EA0  2EA7               	goto	i1l691
  2246  0EA1                     u293_20:
  2247  0EA1                     i1l2067:
  2248  0EA1  3002               	movlw	2
  2249  0EA2  0279               	subwf	___xxtofl@exp,w
  2250  0EA3  1803               	skipnc
  2251  0EA4  2EA6               	goto	u294_21
  2252  0EA5  2EA7               	goto	u294_20
  2253  0EA6                     u294_21:
  2254  0EA6  2E92               	goto	i1l2063
  2255  0EA7                     u294_20:
  2256  0EA7                     i1l691:
  2257  0EA7  1879               	btfsc	___xxtofl@exp,0
  2258  0EA8  2EAA               	goto	u295_21
  2259  0EA9  2EAB               	goto	u295_20
  2260  0EAA                     u295_21:
  2261  0EAA  2EB3               	goto	i1l692
  2262  0EAB                     u295_20:
  2263  0EAB                     i1l2069:
  2264  0EAB  30FF               	movlw	255
  2265  0EAC  05FA               	andwf	___xxtofl@arg,f
  2266  0EAD  30FF               	movlw	255
  2267  0EAE  05FB               	andwf	___xxtofl@arg+1,f
  2268  0EAF  307F               	movlw	127
  2269  0EB0  05FC               	andwf	___xxtofl@arg+2,f
  2270  0EB1  30FF               	movlw	255
  2271  0EB2  05FD               	andwf	___xxtofl@arg+3,f
  2272  0EB3                     i1l692:
  2273  0EB3  1003               	clrc
  2274  0EB4  0CF9               	rrf	___xxtofl@exp,f
  2275  0EB5                     i1l2071:
  2276  0EB5  0879               	movf	___xxtofl@exp,w
  2277  0EB6  00F4               	movwf	??___xxtofl
  2278  0EB7  01F5               	clrf	??___xxtofl+1
  2279  0EB8  01F6               	clrf	??___xxtofl+2
  2280  0EB9  01F7               	clrf	??___xxtofl+3
  2281  0EBA  3018               	movlw	24
  2282  0EBB                     u296_25:
  2283  0EBB  1003               	clrc
  2284  0EBC  0DF4               	rlf	??___xxtofl,f
  2285  0EBD  0DF5               	rlf	??___xxtofl+1,f
  2286  0EBE  0DF6               	rlf	??___xxtofl+2,f
  2287  0EBF  0DF7               	rlf	??___xxtofl+3,f
  2288  0EC0                     u296_20:
  2289  0EC0  3EFF               	addlw	-1
  2290  0EC1  1D03               	skipz
  2291  0EC2  2EBB               	goto	u296_25
  2292  0EC3  0874               	movf	??___xxtofl,w
  2293  0EC4  04FA               	iorwf	___xxtofl@arg,f
  2294  0EC5  0875               	movf	??___xxtofl+1,w
  2295  0EC6  04FB               	iorwf	___xxtofl@arg+1,f
  2296  0EC7  0876               	movf	??___xxtofl+2,w
  2297  0EC8  04FC               	iorwf	___xxtofl@arg+2,f
  2298  0EC9  0877               	movf	??___xxtofl+3,w
  2299  0ECA  04FD               	iorwf	___xxtofl@arg+3,f
  2300  0ECB                     i1l2073:
  2301  0ECB  0878               	movf	___xxtofl@sign,w
  2302  0ECC  1903               	btfsc	3,2
  2303  0ECD  2ECF               	goto	u297_21
  2304  0ECE  2ED0               	goto	u297_20
  2305  0ECF                     u297_21:
  2306  0ECF  2ED5               	goto	i1l2079
  2307  0ED0                     u297_20:
  2308  0ED0                     i1l2075:
  2309  0ED0  1FF3               	btfss	___xxtofl@val+3,7
  2310  0ED1  2ED3               	goto	u298_21
  2311  0ED2  2ED4               	goto	u298_20
  2312  0ED3                     u298_21:
  2313  0ED3  2ED5               	goto	i1l2079
  2314  0ED4                     u298_20:
  2315  0ED4                     i1l2077:
  2316  0ED4  17FD               	bsf	___xxtofl@arg+3,7
  2317  0ED5                     i1l2079:
  2318  0ED5  087D               	movf	___xxtofl@arg+3,w
  2319  0ED6  00F3               	movwf	?___xxtofl+3
  2320  0ED7  087C               	movf	___xxtofl@arg+2,w
  2321  0ED8  00F2               	movwf	?___xxtofl+2
  2322  0ED9  087B               	movf	___xxtofl@arg+1,w
  2323  0EDA  00F1               	movwf	?___xxtofl+1
  2324  0EDB  087A               	movf	___xxtofl@arg,w
  2325  0EDC  00F0               	movwf	?___xxtofl
  2326  0EDD                     i1l680:
  2327  0EDD  0008               	return
  2328  0EDE                     __end_of___xxtofl:
  2329                           
  2330                           	psect	text9
  2331  0CD6                     __ptext9:	
  2332 ;; *************** function ___fltol *****************
  2333 ;; Defined at:
  2334 ;;		line 43 in file "C:\Program Files\Microchip\xc8\v2.35\pic\sources\c90\common\fltol.c"
  2335 ;; Parameters:    Size  Location     Type
  2336 ;;  f1              4   72[BANK0 ] unsigned char 
  2337 ;; Auto vars:     Size  Location     Type
  2338 ;;  exp1            1   77[BANK0 ] unsigned char 
  2339 ;;  sign1           1   76[BANK0 ] unsigned char 
  2340 ;; Return value:  Size  Location     Type
  2341 ;;                  4   72[BANK0 ] long 
  2342 ;; Registers used:
  2343 ;;		wreg, status,2, status,0
  2344 ;; Tracked objects:
  2345 ;;		On entry : 0/0
  2346 ;;		On exit  : 0/0
  2347 ;;		Unchanged: 0/0
  2348 ;; Data sizes:     COMMON   BANK0   BANK1   BANK3   BANK2
  2349 ;;      Params:         0       4       0       0       0
  2350 ;;      Locals:         0       2       0       0       0
  2351 ;;      Temps:          0       0       5       0       0
  2352 ;;      Totals:         0       6       5       0       0
  2353 ;;Total ram usage:       11 bytes
  2354 ;; Hardware stack levels used: 1
  2355 ;; This function calls:
  2356 ;;		Nothing
  2357 ;; This function is called by:
  2358 ;;		_map
  2359 ;; This function uses a non-reentrant model
  2360 ;;
  2361                           
  2362  0CD6                     ___fltol:	
  2363                           ;psect for function ___fltol
  2364                           
  2365  0CD6                     i1l1527:	
  2366                           ;incstack = 0
  2367                           ; Regs used in ___fltol: [wreg+status,2+status,0]
  2368                           
  2369  0CD6  1003               	clrc
  2370  0CD7  1283               	bcf	3,5	;RP0=0, select bank0
  2371  0CD8  1303               	bcf	3,6	;RP1=0, select bank0
  2372  0CD9  0D6A               	rlf	___fltol@f1+2,w
  2373  0CDA  0D6B               	rlf	___fltol@f1+3,w
  2374  0CDB  1683               	bsf	3,5	;RP0=1, select bank1
  2375  0CDC  1303               	bcf	3,6	;RP1=0, select bank1
  2376  0CDD  00A0               	movwf	??___fltol^(0+128)
  2377  0CDE  0820               	movf	??___fltol^(0+128),w
  2378  0CDF  1283               	bcf	3,5	;RP0=0, select bank0
  2379  0CE0  1303               	bcf	3,6	;RP1=0, select bank0
  2380  0CE1  00ED               	movwf	___fltol@exp1
  2381  0CE2  086D               	movf	___fltol@exp1,w
  2382  0CE3  1D03               	btfss	3,2
  2383  0CE4  2CE6               	goto	u163_21
  2384  0CE5  2CE7               	goto	u163_20
  2385  0CE6                     u163_21:
  2386  0CE6  2CF0               	goto	i1l1533
  2387  0CE7                     u163_20:
  2388  0CE7                     i1l1529:
  2389  0CE7  3000               	movlw	0
  2390  0CE8  00EB               	movwf	?___fltol+3
  2391  0CE9  3000               	movlw	0
  2392  0CEA  00EA               	movwf	?___fltol+2
  2393  0CEB  3000               	movlw	0
  2394  0CEC  00E9               	movwf	?___fltol+1
  2395  0CED  3000               	movlw	0
  2396  0CEE  00E8               	movwf	?___fltol
  2397  0CEF  2D71               	goto	i1l431
  2398  0CF0                     i1l1533:
  2399  0CF0  0868               	movf	___fltol@f1,w
  2400  0CF1  1683               	bsf	3,5	;RP0=1, select bank1
  2401  0CF2  1303               	bcf	3,6	;RP1=0, select bank1
  2402  0CF3  00A0               	movwf	??___fltol^(0+128)
  2403  0CF4  1283               	bcf	3,5	;RP0=0, select bank0
  2404  0CF5  1303               	bcf	3,6	;RP1=0, select bank0
  2405  0CF6  0869               	movf	___fltol@f1+1,w
  2406  0CF7  1683               	bsf	3,5	;RP0=1, select bank1
  2407  0CF8  1303               	bcf	3,6	;RP1=0, select bank1
  2408  0CF9  00A1               	movwf	(??___fltol^(0+128)+1)
  2409  0CFA  1283               	bcf	3,5	;RP0=0, select bank0
  2410  0CFB  1303               	bcf	3,6	;RP1=0, select bank0
  2411  0CFC  086A               	movf	___fltol@f1+2,w
  2412  0CFD  1683               	bsf	3,5	;RP0=1, select bank1
  2413  0CFE  1303               	bcf	3,6	;RP1=0, select bank1
  2414  0CFF  00A2               	movwf	(??___fltol^(0+128)+2)
  2415  0D00  1283               	bcf	3,5	;RP0=0, select bank0
  2416  0D01  1303               	bcf	3,6	;RP1=0, select bank0
  2417  0D02  086B               	movf	___fltol@f1+3,w
  2418  0D03  1683               	bsf	3,5	;RP0=1, select bank1
  2419  0D04  1303               	bcf	3,6	;RP1=0, select bank1
  2420  0D05  00A3               	movwf	(??___fltol^(0+128)+3)
  2421  0D06  301F               	movlw	31
  2422  0D07                     u164_25:
  2423  0D07  1003               	clrc
  2424  0D08  0CA3               	rrf	(??___fltol^(0+128)+3),f
  2425  0D09  0CA2               	rrf	(??___fltol^(0+128)+2),f
  2426  0D0A  0CA1               	rrf	(??___fltol^(0+128)+1),f
  2427  0D0B  0CA0               	rrf	??___fltol^(0+128),f
  2428  0D0C                     u164_20:
  2429  0D0C  3EFF               	addlw	-1
  2430  0D0D  1D03               	skipz
  2431  0D0E  2D07               	goto	u164_25
  2432  0D0F  0820               	movf	??___fltol^(0+128),w
  2433  0D10  00A4               	movwf	(??___fltol+4)^(0+128)
  2434  0D11  0824               	movf	(??___fltol+4)^(0+128),w
  2435  0D12  1283               	bcf	3,5	;RP0=0, select bank0
  2436  0D13  1303               	bcf	3,6	;RP1=0, select bank0
  2437  0D14  00EC               	movwf	___fltol@sign1
  2438  0D15                     i1l1535:
  2439  0D15  17EA               	bsf	___fltol@f1+2,7
  2440  0D16                     i1l1537:
  2441  0D16  30FF               	movlw	255
  2442  0D17  05E8               	andwf	___fltol@f1,f
  2443  0D18  30FF               	movlw	255
  2444  0D19  05E9               	andwf	___fltol@f1+1,f
  2445  0D1A  30FF               	movlw	255
  2446  0D1B  05EA               	andwf	___fltol@f1+2,f
  2447  0D1C  3000               	movlw	0
  2448  0D1D  05EB               	andwf	___fltol@f1+3,f
  2449  0D1E                     i1l1539:
  2450  0D1E  3096               	movlw	150
  2451  0D1F  02ED               	subwf	___fltol@exp1,f
  2452  0D20                     i1l1541:
  2453  0D20  1FED               	btfss	___fltol@exp1,7
  2454  0D21  2D23               	goto	u165_21
  2455  0D22  2D24               	goto	u165_20
  2456  0D23                     u165_21:
  2457  0D23  2D42               	goto	i1l1551
  2458  0D24                     u165_20:
  2459  0D24                     i1l1543:
  2460  0D24  086D               	movf	___fltol@exp1,w
  2461  0D25  3A80               	xorlw	128
  2462  0D26  3E97               	addlw	151
  2463  0D27  1803               	skipnc
  2464  0D28  2D2A               	goto	u166_21
  2465  0D29  2D2B               	goto	u166_20
  2466  0D2A                     u166_21:
  2467  0D2A  2D2C               	goto	i1l1549
  2468  0D2B                     u166_20:
  2469  0D2B  2CE7               	goto	i1l1529
  2470  0D2C                     i1l1549:
  2471  0D2C  3001               	movlw	1
  2472  0D2D                     u167_25:
  2473  0D2D  1003               	clrc
  2474  0D2E  0CEB               	rrf	___fltol@f1+3,f
  2475  0D2F  0CEA               	rrf	___fltol@f1+2,f
  2476  0D30  0CE9               	rrf	___fltol@f1+1,f
  2477  0D31  0CE8               	rrf	___fltol@f1,f
  2478  0D32  3EFF               	addlw	-1
  2479  0D33  1D03               	skipz
  2480  0D34  2D2D               	goto	u167_25
  2481  0D35  3001               	movlw	1
  2482  0D36  1683               	bsf	3,5	;RP0=1, select bank1
  2483  0D37  1303               	bcf	3,6	;RP1=0, select bank1
  2484  0D38  00A0               	movwf	??___fltol^(0+128)
  2485  0D39  0820               	movf	??___fltol^(0+128),w
  2486  0D3A  1283               	bcf	3,5	;RP0=0, select bank0
  2487  0D3B  1303               	bcf	3,6	;RP1=0, select bank0
  2488  0D3C  07ED               	addwf	___fltol@exp1,f
  2489  0D3D  1D03               	btfss	3,2
  2490  0D3E  2D40               	goto	u168_21
  2491  0D3F  2D41               	goto	u168_20
  2492  0D40                     u168_21:
  2493  0D40  2D2C               	goto	i1l1549
  2494  0D41                     u168_20:
  2495  0D41  2D61               	goto	i1l1559
  2496  0D42                     i1l1551:
  2497  0D42  3020               	movlw	32
  2498  0D43  026D               	subwf	___fltol@exp1,w
  2499  0D44  1C03               	skipc
  2500  0D45  2D47               	goto	u169_21
  2501  0D46  2D48               	goto	u169_20
  2502  0D47                     u169_21:
  2503  0D47  2D5C               	goto	i1l438
  2504  0D48                     u169_20:
  2505  0D48  2CE7               	goto	i1l1529
  2506  0D49                     i1l1557:
  2507  0D49  3001               	movlw	1
  2508  0D4A  1683               	bsf	3,5	;RP0=1, select bank1
  2509  0D4B  1303               	bcf	3,6	;RP1=0, select bank1
  2510  0D4C  00A0               	movwf	??___fltol^(0+128)
  2511  0D4D                     u170_25:
  2512  0D4D  1003               	clrc
  2513  0D4E  1283               	bcf	3,5	;RP0=0, select bank0
  2514  0D4F  1303               	bcf	3,6	;RP1=0, select bank0
  2515  0D50  0DE8               	rlf	___fltol@f1,f
  2516  0D51  0DE9               	rlf	___fltol@f1+1,f
  2517  0D52  0DEA               	rlf	___fltol@f1+2,f
  2518  0D53  0DEB               	rlf	___fltol@f1+3,f
  2519  0D54  1683               	bsf	3,5	;RP0=1, select bank1
  2520  0D55  1303               	bcf	3,6	;RP1=0, select bank1
  2521  0D56  0BA0               	decfsz	??___fltol^(0+128),f
  2522  0D57  2D4D               	goto	u170_25
  2523  0D58  3001               	movlw	1
  2524  0D59  1283               	bcf	3,5	;RP0=0, select bank0
  2525  0D5A  1303               	bcf	3,6	;RP1=0, select bank0
  2526  0D5B  02ED               	subwf	___fltol@exp1,f
  2527  0D5C                     i1l438:
  2528  0D5C  086D               	movf	___fltol@exp1,w
  2529  0D5D  1D03               	btfss	3,2
  2530  0D5E  2D60               	goto	u171_21
  2531  0D5F  2D61               	goto	u171_20
  2532  0D60                     u171_21:
  2533  0D60  2D49               	goto	i1l1557
  2534  0D61                     u171_20:
  2535  0D61                     i1l1559:
  2536  0D61  086C               	movf	___fltol@sign1,w
  2537  0D62  1903               	btfsc	3,2
  2538  0D63  2D65               	goto	u172_21
  2539  0D64  2D66               	goto	u172_20
  2540  0D65                     u172_21:
  2541  0D65  2D71               	goto	i1l441
  2542  0D66                     u172_20:
  2543  0D66                     i1l1561:
  2544  0D66  09E8               	comf	___fltol@f1,f
  2545  0D67  09E9               	comf	___fltol@f1+1,f
  2546  0D68  09EA               	comf	___fltol@f1+2,f
  2547  0D69  09EB               	comf	___fltol@f1+3,f
  2548  0D6A  0AE8               	incf	___fltol@f1,f
  2549  0D6B  1903               	skipnz
  2550  0D6C  0AE9               	incf	___fltol@f1+1,f
  2551  0D6D  1903               	skipnz
  2552  0D6E  0AEA               	incf	___fltol@f1+2,f
  2553  0D6F  1903               	skipnz
  2554  0D70  0AEB               	incf	___fltol@f1+3,f
  2555  0D71                     i1l441:
  2556  0D71                     i1l431:
  2557  0D71  0008               	return
  2558  0D72                     __end_of___fltol:
  2559                           
  2560                           	psect	text10
  2561  0024                     __ptext10:	
  2562 ;; *************** function ___flmul *****************
  2563 ;; Defined at:
  2564 ;;		line 8 in file "C:\Program Files\Microchip\xc8\v2.35\pic\sources\c90\common\sprcmul.c"
  2565 ;; Parameters:    Size  Location     Type
  2566 ;;  b               4   26[BANK0 ] long 
  2567 ;;  a               4   30[BANK0 ] long 
  2568 ;; Auto vars:     Size  Location     Type
  2569 ;;  prod            4   46[BANK0 ] struct .
  2570 ;;  grs             4   40[BANK0 ] unsigned long 
  2571 ;;  temp            2   50[BANK0 ] struct .
  2572 ;;  bexp            1   45[BANK0 ] unsigned char 
  2573 ;;  aexp            1   44[BANK0 ] unsigned char 
  2574 ;;  sign            1   39[BANK0 ] unsigned char 
  2575 ;; Return value:  Size  Location     Type
  2576 ;;                  4   26[BANK0 ] unsigned char 
  2577 ;; Registers used:
  2578 ;;		wreg, status,2, status,0, btemp+1, pclath, cstack
  2579 ;; Tracked objects:
  2580 ;;		On entry : 0/0
  2581 ;;		On exit  : 0/0
  2582 ;;		Unchanged: 0/0
  2583 ;; Data sizes:     COMMON   BANK0   BANK1   BANK3   BANK2
  2584 ;;      Params:         0       8       0       0       0
  2585 ;;      Locals:         0      13       0       0       0
  2586 ;;      Temps:          0       5       0       0       0
  2587 ;;      Totals:         0      26       0       0       0
  2588 ;;Total ram usage:       26 bytes
  2589 ;; Hardware stack levels used: 1
  2590 ;; Hardware stack levels required when called: 1
  2591 ;; This function calls:
  2592 ;;		__Umul8_16
  2593 ;; This function is called by:
  2594 ;;		_map
  2595 ;; This function uses a non-reentrant model
  2596 ;;
  2597                           
  2598  0024                     ___flmul:	
  2599                           ;psect for function ___flmul
  2600                           
  2601  0024                     i1l1899:	
  2602                           ;incstack = 0
  2603                           ; Regs used in ___flmul: [wreg+status,2+status,0+btemp+1+pclath+cstack]
  2604                           
  2605  0024  1283               	bcf	3,5	;RP0=0, select bank0
  2606  0025  1303               	bcf	3,6	;RP1=0, select bank0
  2607  0026  083D               	movf	___flmul@b+3,w
  2608  0027  3980               	andlw	128
  2609  0028  00C2               	movwf	??___flmul
  2610  0029  0842               	movf	??___flmul,w
  2611  002A  00C7               	movwf	___flmul@sign
  2612  002B                     i1l1901:
  2613  002B  083D               	movf	___flmul@b+3,w
  2614  002C  00C2               	movwf	??___flmul
  2615  002D  0742               	addwf	??___flmul,w
  2616  002E  00C3               	movwf	??___flmul+1
  2617  002F  0843               	movf	??___flmul+1,w
  2618  0030  00CD               	movwf	___flmul@bexp
  2619  0031                     i1l1903:
  2620  0031  1FBC               	btfss	___flmul@b+2,7
  2621  0032  2834               	goto	u248_21
  2622  0033  2835               	goto	u248_20
  2623  0034                     u248_21:
  2624  0034  2836               	goto	i1l1907
  2625  0035                     u248_20:
  2626  0035                     i1l1905:
  2627  0035  144D               	bsf	___flmul@bexp,0
  2628  0036                     i1l1907:
  2629  0036  084D               	movf	___flmul@bexp,w
  2630  0037  1903               	btfsc	3,2
  2631  0038  283A               	goto	u249_21
  2632  0039  283B               	goto	u249_20
  2633  003A                     u249_21:
  2634  003A  284A               	goto	i1l1915
  2635  003B                     u249_20:
  2636  003B                     i1l1909:
  2637  003B  0A4D               	incf	___flmul@bexp,w
  2638  003C  1D03               	btfss	3,2
  2639  003D  283F               	goto	u250_21
  2640  003E  2840               	goto	u250_20
  2641  003F                     u250_21:
  2642  003F  2848               	goto	i1l1913
  2643  0040                     u250_20:
  2644  0040                     i1l1911:
  2645  0040  3000               	movlw	0
  2646  0041  00BD               	movwf	___flmul@b+3
  2647  0042  3000               	movlw	0
  2648  0043  00BC               	movwf	___flmul@b+2
  2649  0044  3000               	movlw	0
  2650  0045  00BB               	movwf	___flmul@b+1
  2651  0046  3000               	movlw	0
  2652  0047  00BA               	movwf	___flmul@b
  2653  0048                     i1l1913:
  2654  0048  17BC               	bsf	___flmul@b+2,7
  2655  0049  2852               	goto	i1l1917
  2656  004A                     i1l1915:
  2657  004A  3000               	movlw	0
  2658  004B  00BD               	movwf	___flmul@b+3
  2659  004C  3000               	movlw	0
  2660  004D  00BC               	movwf	___flmul@b+2
  2661  004E  3000               	movlw	0
  2662  004F  00BB               	movwf	___flmul@b+1
  2663  0050  3000               	movlw	0
  2664  0051  00BA               	movwf	___flmul@b
  2665  0052                     i1l1917:
  2666  0052  0841               	movf	___flmul@a+3,w
  2667  0053  3980               	andlw	128
  2668  0054  00C2               	movwf	??___flmul
  2669  0055  0842               	movf	??___flmul,w
  2670  0056  06C7               	xorwf	___flmul@sign,f
  2671  0057                     i1l1919:
  2672  0057  0841               	movf	___flmul@a+3,w
  2673  0058  00C2               	movwf	??___flmul
  2674  0059  0742               	addwf	??___flmul,w
  2675  005A  00C3               	movwf	??___flmul+1
  2676  005B  0843               	movf	??___flmul+1,w
  2677  005C  00CC               	movwf	___flmul@aexp
  2678  005D                     i1l1921:
  2679  005D  1FC0               	btfss	___flmul@a+2,7
  2680  005E  2860               	goto	u251_21
  2681  005F  2861               	goto	u251_20
  2682  0060                     u251_21:
  2683  0060  2862               	goto	i1l1925
  2684  0061                     u251_20:
  2685  0061                     i1l1923:
  2686  0061  144C               	bsf	___flmul@aexp,0
  2687  0062                     i1l1925:
  2688  0062  084C               	movf	___flmul@aexp,w
  2689  0063  1903               	btfsc	3,2
  2690  0064  2866               	goto	u252_21
  2691  0065  2867               	goto	u252_20
  2692  0066                     u252_21:
  2693  0066  2876               	goto	i1l1933
  2694  0067                     u252_20:
  2695  0067                     i1l1927:
  2696  0067  0A4C               	incf	___flmul@aexp,w
  2697  0068  1D03               	btfss	3,2
  2698  0069  286B               	goto	u253_21
  2699  006A  286C               	goto	u253_20
  2700  006B                     u253_21:
  2701  006B  2874               	goto	i1l1931
  2702  006C                     u253_20:
  2703  006C                     i1l1929:
  2704  006C  3000               	movlw	0
  2705  006D  00C1               	movwf	___flmul@a+3
  2706  006E  3000               	movlw	0
  2707  006F  00C0               	movwf	___flmul@a+2
  2708  0070  3000               	movlw	0
  2709  0071  00BF               	movwf	___flmul@a+1
  2710  0072  3000               	movlw	0
  2711  0073  00BE               	movwf	___flmul@a
  2712  0074                     i1l1931:
  2713  0074  17C0               	bsf	___flmul@a+2,7
  2714  0075  287E               	goto	i1l1935
  2715  0076                     i1l1933:
  2716  0076  3000               	movlw	0
  2717  0077  00C1               	movwf	___flmul@a+3
  2718  0078  3000               	movlw	0
  2719  0079  00C0               	movwf	___flmul@a+2
  2720  007A  3000               	movlw	0
  2721  007B  00BF               	movwf	___flmul@a+1
  2722  007C  3000               	movlw	0
  2723  007D  00BE               	movwf	___flmul@a
  2724  007E                     i1l1935:
  2725  007E  084C               	movf	___flmul@aexp,w
  2726  007F  1903               	btfsc	3,2
  2727  0080  2882               	goto	u254_21
  2728  0081  2883               	goto	u254_20
  2729  0082                     u254_21:
  2730  0082  2888               	goto	i1l1939
  2731  0083                     u254_20:
  2732  0083                     i1l1937:
  2733  0083  084D               	movf	___flmul@bexp,w
  2734  0084  1D03               	btfss	3,2
  2735  0085  2887               	goto	u255_21
  2736  0086  2888               	goto	u255_20
  2737  0087                     u255_21:
  2738  0087  2891               	goto	i1l1943
  2739  0088                     u255_20:
  2740  0088                     i1l1939:
  2741  0088  3000               	movlw	0
  2742  0089  00BD               	movwf	?___flmul+3
  2743  008A  3000               	movlw	0
  2744  008B  00BC               	movwf	?___flmul+2
  2745  008C  3000               	movlw	0
  2746  008D  00BB               	movwf	?___flmul+1
  2747  008E  3000               	movlw	0
  2748  008F  00BA               	movwf	?___flmul
  2749  0090  2B84               	goto	i1l634
  2750  0091                     i1l1943:
  2751  0091  083A               	movf	___flmul@b,w
  2752  0092  00C2               	movwf	??___flmul
  2753  0093  0842               	movf	??___flmul,w
  2754  0094  00F0               	movwf	__Umul8_16@multiplicand
  2755  0095  0840               	movf	___flmul@a+2,w
  2756  0096  120A  158A  236D  120A  118A  	fcall	__Umul8_16
  2757  009B  0871               	movf	?__Umul8_16+1,w
  2758  009C  1283               	bcf	3,5	;RP0=0, select bank0
  2759  009D  1303               	bcf	3,6	;RP1=0, select bank0
  2760  009E  00D3               	movwf	___flmul@temp+1
  2761  009F  0870               	movf	?__Umul8_16,w
  2762  00A0  00D2               	movwf	___flmul@temp
  2763  00A1                     i1l1945:
  2764  00A1  0852               	movf	___flmul@temp,w
  2765  00A2  00C2               	movwf	??___flmul
  2766  00A3  01C3               	clrf	??___flmul+1
  2767  00A4  01C4               	clrf	??___flmul+2
  2768  00A5  01C5               	clrf	??___flmul+3
  2769  00A6  0845               	movf	??___flmul+3,w
  2770  00A7  00CB               	movwf	___flmul@grs+3
  2771  00A8  0844               	movf	??___flmul+2,w
  2772  00A9  00CA               	movwf	___flmul@grs+2
  2773  00AA  0843               	movf	??___flmul+1,w
  2774  00AB  00C9               	movwf	___flmul@grs+1
  2775  00AC  0842               	movf	??___flmul,w
  2776  00AD  00C8               	movwf	___flmul@grs
  2777  00AE                     i1l1947:
  2778  00AE  0853               	movf	___flmul@temp+1,w
  2779  00AF  00C2               	movwf	??___flmul
  2780  00B0  01C3               	clrf	??___flmul+1
  2781  00B1  01C4               	clrf	??___flmul+2
  2782  00B2  01C5               	clrf	??___flmul+3
  2783  00B3  0845               	movf	??___flmul+3,w
  2784  00B4  00D1               	movwf	___flmul@prod+3
  2785  00B5  0844               	movf	??___flmul+2,w
  2786  00B6  00D0               	movwf	___flmul@prod+2
  2787  00B7  0843               	movf	??___flmul+1,w
  2788  00B8  00CF               	movwf	___flmul@prod+1
  2789  00B9  0842               	movf	??___flmul,w
  2790  00BA  00CE               	movwf	___flmul@prod
  2791  00BB  083B               	movf	___flmul@b+1,w
  2792  00BC  00C2               	movwf	??___flmul
  2793  00BD  0842               	movf	??___flmul,w
  2794  00BE  00F0               	movwf	__Umul8_16@multiplicand
  2795  00BF  083F               	movf	___flmul@a+1,w
  2796  00C0  120A  158A  236D  120A  118A  	fcall	__Umul8_16
  2797  00C5  0871               	movf	?__Umul8_16+1,w
  2798  00C6  1283               	bcf	3,5	;RP0=0, select bank0
  2799  00C7  1303               	bcf	3,6	;RP1=0, select bank0
  2800  00C8  00D3               	movwf	___flmul@temp+1
  2801  00C9  0870               	movf	?__Umul8_16,w
  2802  00CA  00D2               	movwf	___flmul@temp
  2803  00CB                     i1l1949:
  2804  00CB  0852               	movf	___flmul@temp,w
  2805  00CC  00C2               	movwf	??___flmul
  2806  00CD  01C3               	clrf	??___flmul+1
  2807  00CE  01C4               	clrf	??___flmul+2
  2808  00CF  01C5               	clrf	??___flmul+3
  2809  00D0  0842               	movf	??___flmul,w
  2810  00D1  07C8               	addwf	___flmul@grs,f
  2811  00D2  0843               	movf	??___flmul+1,w
  2812  00D3  1103               	clrz
  2813  00D4  1803               	skipnc
  2814  00D5  3E01               	addlw	1
  2815  00D6  1903               	skipnz
  2816  00D7  28D9               	goto	u256_21
  2817  00D8  07C9               	addwf	___flmul@grs+1,f
  2818  00D9                     u256_21:
  2819  00D9  0844               	movf	??___flmul+2,w
  2820  00DA  1103               	clrz
  2821  00DB  1803               	skipnc
  2822  00DC  3E01               	addlw	1
  2823  00DD  1903               	skipnz
  2824  00DE  28E0               	goto	u256_22
  2825  00DF  07CA               	addwf	___flmul@grs+2,f
  2826  00E0                     u256_22:
  2827  00E0  0845               	movf	??___flmul+3,w
  2828  00E1  1103               	clrz
  2829  00E2  1803               	skipnc
  2830  00E3  3E01               	addlw	1
  2831  00E4  1903               	skipnz
  2832  00E5  28E7               	goto	u256_23
  2833  00E6  07CB               	addwf	___flmul@grs+3,f
  2834  00E7                     u256_23:
  2835  00E7                     i1l1951:
  2836  00E7  0853               	movf	___flmul@temp+1,w
  2837  00E8  00C2               	movwf	??___flmul
  2838  00E9  01C3               	clrf	??___flmul+1
  2839  00EA  01C4               	clrf	??___flmul+2
  2840  00EB  01C5               	clrf	??___flmul+3
  2841  00EC  0842               	movf	??___flmul,w
  2842  00ED  07CE               	addwf	___flmul@prod,f
  2843  00EE  0843               	movf	??___flmul+1,w
  2844  00EF  1103               	clrz
  2845  00F0  1803               	skipnc
  2846  00F1  3E01               	addlw	1
  2847  00F2  1903               	skipnz
  2848  00F3  28F5               	goto	u257_21
  2849  00F4  07CF               	addwf	___flmul@prod+1,f
  2850  00F5                     u257_21:
  2851  00F5  0844               	movf	??___flmul+2,w
  2852  00F6  1103               	clrz
  2853  00F7  1803               	skipnc
  2854  00F8  3E01               	addlw	1
  2855  00F9  1903               	skipnz
  2856  00FA  28FC               	goto	u257_22
  2857  00FB  07D0               	addwf	___flmul@prod+2,f
  2858  00FC                     u257_22:
  2859  00FC  0845               	movf	??___flmul+3,w
  2860  00FD  1103               	clrz
  2861  00FE  1803               	skipnc
  2862  00FF  3E01               	addlw	1
  2863  0100  1903               	skipnz
  2864  0101  2903               	goto	u257_23
  2865  0102  07D1               	addwf	___flmul@prod+3,f
  2866  0103                     u257_23:
  2867  0103  083C               	movf	___flmul@b+2,w
  2868  0104  00C2               	movwf	??___flmul
  2869  0105  0842               	movf	??___flmul,w
  2870  0106  00F0               	movwf	__Umul8_16@multiplicand
  2871  0107  083E               	movf	___flmul@a,w
  2872  0108  120A  158A  236D  120A  118A  	fcall	__Umul8_16
  2873  010D  0871               	movf	?__Umul8_16+1,w
  2874  010E  1283               	bcf	3,5	;RP0=0, select bank0
  2875  010F  1303               	bcf	3,6	;RP1=0, select bank0
  2876  0110  00D3               	movwf	___flmul@temp+1
  2877  0111  0870               	movf	?__Umul8_16,w
  2878  0112  00D2               	movwf	___flmul@temp
  2879  0113                     i1l1953:
  2880  0113  0852               	movf	___flmul@temp,w
  2881  0114  00C2               	movwf	??___flmul
  2882  0115  01C3               	clrf	??___flmul+1
  2883  0116  01C4               	clrf	??___flmul+2
  2884  0117  01C5               	clrf	??___flmul+3
  2885  0118  0842               	movf	??___flmul,w
  2886  0119  07C8               	addwf	___flmul@grs,f
  2887  011A  0843               	movf	??___flmul+1,w
  2888  011B  1103               	clrz
  2889  011C  1803               	skipnc
  2890  011D  3E01               	addlw	1
  2891  011E  1903               	skipnz
  2892  011F  2921               	goto	u258_21
  2893  0120  07C9               	addwf	___flmul@grs+1,f
  2894  0121                     u258_21:
  2895  0121  0844               	movf	??___flmul+2,w
  2896  0122  1103               	clrz
  2897  0123  1803               	skipnc
  2898  0124  3E01               	addlw	1
  2899  0125  1903               	skipnz
  2900  0126  2928               	goto	u258_22
  2901  0127  07CA               	addwf	___flmul@grs+2,f
  2902  0128                     u258_22:
  2903  0128  0845               	movf	??___flmul+3,w
  2904  0129  1103               	clrz
  2905  012A  1803               	skipnc
  2906  012B  3E01               	addlw	1
  2907  012C  1903               	skipnz
  2908  012D  292F               	goto	u258_23
  2909  012E  07CB               	addwf	___flmul@grs+3,f
  2910  012F                     u258_23:
  2911  012F                     i1l1955:
  2912  012F  0853               	movf	___flmul@temp+1,w
  2913  0130  00C2               	movwf	??___flmul
  2914  0131  01C3               	clrf	??___flmul+1
  2915  0132  01C4               	clrf	??___flmul+2
  2916  0133  01C5               	clrf	??___flmul+3
  2917  0134  0842               	movf	??___flmul,w
  2918  0135  07CE               	addwf	___flmul@prod,f
  2919  0136  0843               	movf	??___flmul+1,w
  2920  0137  1103               	clrz
  2921  0138  1803               	skipnc
  2922  0139  3E01               	addlw	1
  2923  013A  1903               	skipnz
  2924  013B  293D               	goto	u259_21
  2925  013C  07CF               	addwf	___flmul@prod+1,f
  2926  013D                     u259_21:
  2927  013D  0844               	movf	??___flmul+2,w
  2928  013E  1103               	clrz
  2929  013F  1803               	skipnc
  2930  0140  3E01               	addlw	1
  2931  0141  1903               	skipnz
  2932  0142  2944               	goto	u259_22
  2933  0143  07D0               	addwf	___flmul@prod+2,f
  2934  0144                     u259_22:
  2935  0144  0845               	movf	??___flmul+3,w
  2936  0145  1103               	clrz
  2937  0146  1803               	skipnc
  2938  0147  3E01               	addlw	1
  2939  0148  1903               	skipnz
  2940  0149  294B               	goto	u259_23
  2941  014A  07D1               	addwf	___flmul@prod+3,f
  2942  014B                     u259_23:
  2943  014B                     i1l1957:
  2944  014B  3008               	movlw	8
  2945  014C  00C2               	movwf	??___flmul
  2946  014D                     u260_25:
  2947  014D  1003               	clrc
  2948  014E  0DC8               	rlf	___flmul@grs,f
  2949  014F  0DC9               	rlf	___flmul@grs+1,f
  2950  0150  0DCA               	rlf	___flmul@grs+2,f
  2951  0151  0DCB               	rlf	___flmul@grs+3,f
  2952  0152  0BC2               	decfsz	??___flmul,f
  2953  0153  294D               	goto	u260_25
  2954  0154                     i1l1959:
  2955  0154  083B               	movf	___flmul@b+1,w
  2956  0155  00C2               	movwf	??___flmul
  2957  0156  0842               	movf	??___flmul,w
  2958  0157  00F0               	movwf	__Umul8_16@multiplicand
  2959  0158  083E               	movf	___flmul@a,w
  2960  0159  120A  158A  236D  120A  118A  	fcall	__Umul8_16
  2961  015E  0871               	movf	?__Umul8_16+1,w
  2962  015F  1283               	bcf	3,5	;RP0=0, select bank0
  2963  0160  1303               	bcf	3,6	;RP1=0, select bank0
  2964  0161  00D3               	movwf	___flmul@temp+1
  2965  0162  0870               	movf	?__Umul8_16,w
  2966  0163  00D2               	movwf	___flmul@temp
  2967  0164                     i1l1961:
  2968  0164  0852               	movf	___flmul@temp,w
  2969  0165  00C2               	movwf	??___flmul
  2970  0166  0853               	movf	___flmul@temp+1,w
  2971  0167  00C3               	movwf	??___flmul+1
  2972  0168  01C4               	clrf	??___flmul+2
  2973  0169  01C5               	clrf	??___flmul+3
  2974  016A  0842               	movf	??___flmul,w
  2975  016B  07C8               	addwf	___flmul@grs,f
  2976  016C  0843               	movf	??___flmul+1,w
  2977  016D  1103               	clrz
  2978  016E  1803               	skipnc
  2979  016F  3E01               	addlw	1
  2980  0170  1903               	skipnz
  2981  0171  2973               	goto	u261_21
  2982  0172  07C9               	addwf	___flmul@grs+1,f
  2983  0173                     u261_21:
  2984  0173  0844               	movf	??___flmul+2,w
  2985  0174  1103               	clrz
  2986  0175  1803               	skipnc
  2987  0176  3E01               	addlw	1
  2988  0177  1903               	skipnz
  2989  0178  297A               	goto	u261_22
  2990  0179  07CA               	addwf	___flmul@grs+2,f
  2991  017A                     u261_22:
  2992  017A  0845               	movf	??___flmul+3,w
  2993  017B  1103               	clrz
  2994  017C  1803               	skipnc
  2995  017D  3E01               	addlw	1
  2996  017E  1903               	skipnz
  2997  017F  2981               	goto	u261_23
  2998  0180  07CB               	addwf	___flmul@grs+3,f
  2999  0181                     u261_23:
  3000  0181                     i1l1963:
  3001  0181  083A               	movf	___flmul@b,w
  3002  0182  00C2               	movwf	??___flmul
  3003  0183  0842               	movf	??___flmul,w
  3004  0184  00F0               	movwf	__Umul8_16@multiplicand
  3005  0185  083F               	movf	___flmul@a+1,w
  3006  0186  120A  158A  236D  120A  118A  	fcall	__Umul8_16
  3007  018B  0871               	movf	?__Umul8_16+1,w
  3008  018C  1283               	bcf	3,5	;RP0=0, select bank0
  3009  018D  1303               	bcf	3,6	;RP1=0, select bank0
  3010  018E  00D3               	movwf	___flmul@temp+1
  3011  018F  0870               	movf	?__Umul8_16,w
  3012  0190  00D2               	movwf	___flmul@temp
  3013  0191                     i1l1965:
  3014  0191  0852               	movf	___flmul@temp,w
  3015  0192  00C2               	movwf	??___flmul
  3016  0193  0853               	movf	___flmul@temp+1,w
  3017  0194  00C3               	movwf	??___flmul+1
  3018  0195  01C4               	clrf	??___flmul+2
  3019  0196  01C5               	clrf	??___flmul+3
  3020  0197  0842               	movf	??___flmul,w
  3021  0198  07C8               	addwf	___flmul@grs,f
  3022  0199  0843               	movf	??___flmul+1,w
  3023  019A  1103               	clrz
  3024  019B  1803               	skipnc
  3025  019C  3E01               	addlw	1
  3026  019D  1903               	skipnz
  3027  019E  29A0               	goto	u262_21
  3028  019F  07C9               	addwf	___flmul@grs+1,f
  3029  01A0                     u262_21:
  3030  01A0  0844               	movf	??___flmul+2,w
  3031  01A1  1103               	clrz
  3032  01A2  1803               	skipnc
  3033  01A3  3E01               	addlw	1
  3034  01A4  1903               	skipnz
  3035  01A5  29A7               	goto	u262_22
  3036  01A6  07CA               	addwf	___flmul@grs+2,f
  3037  01A7                     u262_22:
  3038  01A7  0845               	movf	??___flmul+3,w
  3039  01A8  1103               	clrz
  3040  01A9  1803               	skipnc
  3041  01AA  3E01               	addlw	1
  3042  01AB  1903               	skipnz
  3043  01AC  29AE               	goto	u262_23
  3044  01AD  07CB               	addwf	___flmul@grs+3,f
  3045  01AE                     u262_23:
  3046  01AE                     i1l1967:
  3047  01AE  3008               	movlw	8
  3048  01AF  00C2               	movwf	??___flmul
  3049  01B0                     u263_25:
  3050  01B0  1003               	clrc
  3051  01B1  0DC8               	rlf	___flmul@grs,f
  3052  01B2  0DC9               	rlf	___flmul@grs+1,f
  3053  01B3  0DCA               	rlf	___flmul@grs+2,f
  3054  01B4  0DCB               	rlf	___flmul@grs+3,f
  3055  01B5  0BC2               	decfsz	??___flmul,f
  3056  01B6  29B0               	goto	u263_25
  3057  01B7  083A               	movf	___flmul@b,w
  3058  01B8  00C2               	movwf	??___flmul
  3059  01B9  0842               	movf	??___flmul,w
  3060  01BA  00F0               	movwf	__Umul8_16@multiplicand
  3061  01BB  083E               	movf	___flmul@a,w
  3062  01BC  120A  158A  236D  120A  118A  	fcall	__Umul8_16
  3063  01C1  0871               	movf	?__Umul8_16+1,w
  3064  01C2  1283               	bcf	3,5	;RP0=0, select bank0
  3065  01C3  1303               	bcf	3,6	;RP1=0, select bank0
  3066  01C4  00D3               	movwf	___flmul@temp+1
  3067  01C5  0870               	movf	?__Umul8_16,w
  3068  01C6  00D2               	movwf	___flmul@temp
  3069  01C7                     i1l1969:
  3070  01C7  0852               	movf	___flmul@temp,w
  3071  01C8  00C2               	movwf	??___flmul
  3072  01C9  0853               	movf	___flmul@temp+1,w
  3073  01CA  00C3               	movwf	??___flmul+1
  3074  01CB  01C4               	clrf	??___flmul+2
  3075  01CC  01C5               	clrf	??___flmul+3
  3076  01CD  0842               	movf	??___flmul,w
  3077  01CE  07C8               	addwf	___flmul@grs,f
  3078  01CF  0843               	movf	??___flmul+1,w
  3079  01D0  1103               	clrz
  3080  01D1  1803               	skipnc
  3081  01D2  3E01               	addlw	1
  3082  01D3  1903               	skipnz
  3083  01D4  29D6               	goto	u264_21
  3084  01D5  07C9               	addwf	___flmul@grs+1,f
  3085  01D6                     u264_21:
  3086  01D6  0844               	movf	??___flmul+2,w
  3087  01D7  1103               	clrz
  3088  01D8  1803               	skipnc
  3089  01D9  3E01               	addlw	1
  3090  01DA  1903               	skipnz
  3091  01DB  29DD               	goto	u264_22
  3092  01DC  07CA               	addwf	___flmul@grs+2,f
  3093  01DD                     u264_22:
  3094  01DD  0845               	movf	??___flmul+3,w
  3095  01DE  1103               	clrz
  3096  01DF  1803               	skipnc
  3097  01E0  3E01               	addlw	1
  3098  01E1  1903               	skipnz
  3099  01E2  29E4               	goto	u264_23
  3100  01E3  07CB               	addwf	___flmul@grs+3,f
  3101  01E4                     u264_23:
  3102  01E4                     i1l1971:
  3103  01E4  083B               	movf	___flmul@b+1,w
  3104  01E5  00C2               	movwf	??___flmul
  3105  01E6  0842               	movf	??___flmul,w
  3106  01E7  00F0               	movwf	__Umul8_16@multiplicand
  3107  01E8  0840               	movf	___flmul@a+2,w
  3108  01E9  120A  158A  236D  120A  118A  	fcall	__Umul8_16
  3109  01EE  0871               	movf	?__Umul8_16+1,w
  3110  01EF  1283               	bcf	3,5	;RP0=0, select bank0
  3111  01F0  1303               	bcf	3,6	;RP1=0, select bank0
  3112  01F1  00D3               	movwf	___flmul@temp+1
  3113  01F2  0870               	movf	?__Umul8_16,w
  3114  01F3  00D2               	movwf	___flmul@temp
  3115  01F4  0852               	movf	___flmul@temp,w
  3116  01F5  00C2               	movwf	??___flmul
  3117  01F6  0853               	movf	___flmul@temp+1,w
  3118  01F7  00C3               	movwf	??___flmul+1
  3119  01F8  01C4               	clrf	??___flmul+2
  3120  01F9  01C5               	clrf	??___flmul+3
  3121  01FA  0842               	movf	??___flmul,w
  3122  01FB  07CE               	addwf	___flmul@prod,f
  3123  01FC  0843               	movf	??___flmul+1,w
  3124  01FD  1103               	clrz
  3125  01FE  1803               	skipnc
  3126  01FF  3E01               	addlw	1
  3127  0200  1903               	skipnz
  3128  0201  2A03               	goto	u265_21
  3129  0202  07CF               	addwf	___flmul@prod+1,f
  3130  0203                     u265_21:
  3131  0203  0844               	movf	??___flmul+2,w
  3132  0204  1103               	clrz
  3133  0205  1803               	skipnc
  3134  0206  3E01               	addlw	1
  3135  0207  1903               	skipnz
  3136  0208  2A0A               	goto	u265_22
  3137  0209  07D0               	addwf	___flmul@prod+2,f
  3138  020A                     u265_22:
  3139  020A  0845               	movf	??___flmul+3,w
  3140  020B  1103               	clrz
  3141  020C  1803               	skipnc
  3142  020D  3E01               	addlw	1
  3143  020E  1903               	skipnz
  3144  020F  2A11               	goto	u265_23
  3145  0210  07D1               	addwf	___flmul@prod+3,f
  3146  0211                     u265_23:
  3147  0211                     i1l1973:
  3148  0211  083C               	movf	___flmul@b+2,w
  3149  0212  00C2               	movwf	??___flmul
  3150  0213  0842               	movf	??___flmul,w
  3151  0214  00F0               	movwf	__Umul8_16@multiplicand
  3152  0215  083F               	movf	___flmul@a+1,w
  3153  0216  120A  158A  236D  120A  118A  	fcall	__Umul8_16
  3154  021B  0871               	movf	?__Umul8_16+1,w
  3155  021C  1283               	bcf	3,5	;RP0=0, select bank0
  3156  021D  1303               	bcf	3,6	;RP1=0, select bank0
  3157  021E  00D3               	movwf	___flmul@temp+1
  3158  021F  0870               	movf	?__Umul8_16,w
  3159  0220  00D2               	movwf	___flmul@temp
  3160  0221                     i1l1975:
  3161  0221  0852               	movf	___flmul@temp,w
  3162  0222  00C2               	movwf	??___flmul
  3163  0223  0853               	movf	___flmul@temp+1,w
  3164  0224  00C3               	movwf	??___flmul+1
  3165  0225  01C4               	clrf	??___flmul+2
  3166  0226  01C5               	clrf	??___flmul+3
  3167  0227  0842               	movf	??___flmul,w
  3168  0228  07CE               	addwf	___flmul@prod,f
  3169  0229  0843               	movf	??___flmul+1,w
  3170  022A  1103               	clrz
  3171  022B  1803               	skipnc
  3172  022C  3E01               	addlw	1
  3173  022D  1903               	skipnz
  3174  022E  2A30               	goto	u266_21
  3175  022F  07CF               	addwf	___flmul@prod+1,f
  3176  0230                     u266_21:
  3177  0230  0844               	movf	??___flmul+2,w
  3178  0231  1103               	clrz
  3179  0232  1803               	skipnc
  3180  0233  3E01               	addlw	1
  3181  0234  1903               	skipnz
  3182  0235  2A37               	goto	u266_22
  3183  0236  07D0               	addwf	___flmul@prod+2,f
  3184  0237                     u266_22:
  3185  0237  0845               	movf	??___flmul+3,w
  3186  0238  1103               	clrz
  3187  0239  1803               	skipnc
  3188  023A  3E01               	addlw	1
  3189  023B  1903               	skipnz
  3190  023C  2A3E               	goto	u266_23
  3191  023D  07D1               	addwf	___flmul@prod+3,f
  3192  023E                     u266_23:
  3193  023E  083C               	movf	___flmul@b+2,w
  3194  023F  00C2               	movwf	??___flmul
  3195  0240  0842               	movf	??___flmul,w
  3196  0241  00F0               	movwf	__Umul8_16@multiplicand
  3197  0242  0840               	movf	___flmul@a+2,w
  3198  0243  120A  158A  236D  120A  118A  	fcall	__Umul8_16
  3199  0248  0871               	movf	?__Umul8_16+1,w
  3200  0249  1283               	bcf	3,5	;RP0=0, select bank0
  3201  024A  1303               	bcf	3,6	;RP1=0, select bank0
  3202  024B  00D3               	movwf	___flmul@temp+1
  3203  024C  0870               	movf	?__Umul8_16,w
  3204  024D  00D2               	movwf	___flmul@temp
  3205  024E                     i1l1977:
  3206  024E  0852               	movf	___flmul@temp,w
  3207  024F  00C2               	movwf	??___flmul
  3208  0250  0853               	movf	___flmul@temp+1,w
  3209  0251  00C3               	movwf	??___flmul+1
  3210  0252  01C4               	clrf	??___flmul+2
  3211  0253  01C5               	clrf	??___flmul+3
  3212  0254  3008               	movlw	8
  3213  0255                     u267_25:
  3214  0255  1003               	clrc
  3215  0256  0DC2               	rlf	??___flmul,f
  3216  0257  0DC3               	rlf	??___flmul+1,f
  3217  0258  0DC4               	rlf	??___flmul+2,f
  3218  0259  0DC5               	rlf	??___flmul+3,f
  3219  025A                     u267_20:
  3220  025A  3EFF               	addlw	-1
  3221  025B  1D03               	skipz
  3222  025C  2A55               	goto	u267_25
  3223  025D  0842               	movf	??___flmul,w
  3224  025E  07CE               	addwf	___flmul@prod,f
  3225  025F  0843               	movf	??___flmul+1,w
  3226  0260  1103               	clrz
  3227  0261  1803               	skipnc
  3228  0262  3E01               	addlw	1
  3229  0263  1903               	skipnz
  3230  0264  2A66               	goto	u268_21
  3231  0265  07CF               	addwf	___flmul@prod+1,f
  3232  0266                     u268_21:
  3233  0266  0844               	movf	??___flmul+2,w
  3234  0267  1103               	clrz
  3235  0268  1803               	skipnc
  3236  0269  3E01               	addlw	1
  3237  026A  1903               	skipnz
  3238  026B  2A6D               	goto	u268_22
  3239  026C  07D0               	addwf	___flmul@prod+2,f
  3240  026D                     u268_22:
  3241  026D  0845               	movf	??___flmul+3,w
  3242  026E  1103               	clrz
  3243  026F  1803               	skipnc
  3244  0270  3E01               	addlw	1
  3245  0271  1903               	skipnz
  3246  0272  2A74               	goto	u268_23
  3247  0273  07D1               	addwf	___flmul@prod+3,f
  3248  0274                     u268_23:
  3249  0274                     i1l1979:
  3250  0274  0848               	movf	___flmul@grs,w
  3251  0275  00C2               	movwf	??___flmul
  3252  0276  0849               	movf	___flmul@grs+1,w
  3253  0277  00C3               	movwf	??___flmul+1
  3254  0278  084A               	movf	___flmul@grs+2,w
  3255  0279  00C4               	movwf	??___flmul+2
  3256  027A  084B               	movf	___flmul@grs+3,w
  3257  027B  00C5               	movwf	??___flmul+3
  3258  027C  3018               	movlw	24
  3259  027D                     u269_25:
  3260  027D  1003               	clrc
  3261  027E  0CC5               	rrf	??___flmul+3,f
  3262  027F  0CC4               	rrf	??___flmul+2,f
  3263  0280  0CC3               	rrf	??___flmul+1,f
  3264  0281  0CC2               	rrf	??___flmul,f
  3265  0282                     u269_20:
  3266  0282  3EFF               	addlw	-1
  3267  0283  1D03               	skipz
  3268  0284  2A7D               	goto	u269_25
  3269  0285  0842               	movf	??___flmul,w
  3270  0286  07CE               	addwf	___flmul@prod,f
  3271  0287  0843               	movf	??___flmul+1,w
  3272  0288  1103               	clrz
  3273  0289  1803               	skipnc
  3274  028A  3E01               	addlw	1
  3275  028B  1903               	skipnz
  3276  028C  2A8E               	goto	u270_21
  3277  028D  07CF               	addwf	___flmul@prod+1,f
  3278  028E                     u270_21:
  3279  028E  0844               	movf	??___flmul+2,w
  3280  028F  1103               	clrz
  3281  0290  1803               	skipnc
  3282  0291  3E01               	addlw	1
  3283  0292  1903               	skipnz
  3284  0293  2A95               	goto	u270_22
  3285  0294  07D0               	addwf	___flmul@prod+2,f
  3286  0295                     u270_22:
  3287  0295  0845               	movf	??___flmul+3,w
  3288  0296  1103               	clrz
  3289  0297  1803               	skipnc
  3290  0298  3E01               	addlw	1
  3291  0299  1903               	skipnz
  3292  029A  2A9C               	goto	u270_23
  3293  029B  07D1               	addwf	___flmul@prod+3,f
  3294  029C                     u270_23:
  3295  029C                     i1l1981:
  3296  029C  3008               	movlw	8
  3297  029D  00C2               	movwf	??___flmul
  3298  029E                     u271_25:
  3299  029E  1003               	clrc
  3300  029F  0DC8               	rlf	___flmul@grs,f
  3301  02A0  0DC9               	rlf	___flmul@grs+1,f
  3302  02A1  0DCA               	rlf	___flmul@grs+2,f
  3303  02A2  0DCB               	rlf	___flmul@grs+3,f
  3304  02A3  0BC2               	decfsz	??___flmul,f
  3305  02A4  2A9E               	goto	u271_25
  3306  02A5                     i1l1983:
  3307  02A5  084D               	movf	___flmul@bexp,w
  3308  02A6  074C               	addwf	___flmul@aexp,w
  3309  02A7  00C2               	movwf	??___flmul
  3310  02A8  01C3               	clrf	??___flmul+1
  3311  02A9  0DC3               	rlf	??___flmul+1,f
  3312  02AA  0842               	movf	??___flmul,w
  3313  02AB  3E82               	addlw	130
  3314  02AC  00D2               	movwf	___flmul@temp
  3315  02AD  0843               	movf	??___flmul+1,w
  3316  02AE  1803               	skipnc
  3317  02AF  3E01               	addlw	1
  3318  02B0  3EFF               	addlw	255
  3319  02B1  00D3               	movwf	___flmul@temp+1
  3320  02B2  2AD0               	goto	i1l1995
  3321  02B3                     i1l1985:
  3322  02B3  3001               	movlw	1
  3323  02B4  00C2               	movwf	??___flmul
  3324  02B5                     u272_25:
  3325  02B5  1003               	clrc
  3326  02B6  0DCE               	rlf	___flmul@prod,f
  3327  02B7  0DCF               	rlf	___flmul@prod+1,f
  3328  02B8  0DD0               	rlf	___flmul@prod+2,f
  3329  02B9  0DD1               	rlf	___flmul@prod+3,f
  3330  02BA  0BC2               	decfsz	??___flmul,f
  3331  02BB  2AB5               	goto	u272_25
  3332  02BC                     i1l1987:
  3333  02BC  1FCB               	btfss	___flmul@grs+3,7
  3334  02BD  2ABF               	goto	u273_21
  3335  02BE  2AC0               	goto	u273_20
  3336  02BF                     u273_21:
  3337  02BF  2AC1               	goto	i1l1991
  3338  02C0                     u273_20:
  3339  02C0                     i1l1989:
  3340  02C0  144E               	bsf	___flmul@prod,0
  3341  02C1                     i1l1991:
  3342  02C1  3001               	movlw	1
  3343  02C2  00C2               	movwf	??___flmul
  3344  02C3                     u274_25:
  3345  02C3  1003               	clrc
  3346  02C4  0DC8               	rlf	___flmul@grs,f
  3347  02C5  0DC9               	rlf	___flmul@grs+1,f
  3348  02C6  0DCA               	rlf	___flmul@grs+2,f
  3349  02C7  0DCB               	rlf	___flmul@grs+3,f
  3350  02C8  0BC2               	decfsz	??___flmul,f
  3351  02C9  2AC3               	goto	u274_25
  3352  02CA                     i1l1993:
  3353  02CA  30FF               	movlw	255
  3354  02CB  07D2               	addwf	___flmul@temp,f
  3355  02CC  1803               	skipnc
  3356  02CD  0AD3               	incf	___flmul@temp+1,f
  3357  02CE  30FF               	movlw	255
  3358  02CF  07D3               	addwf	___flmul@temp+1,f
  3359  02D0                     i1l1995:
  3360  02D0  1FD0               	btfss	___flmul@prod+2,7
  3361  02D1  2AD3               	goto	u275_21
  3362  02D2  2AD4               	goto	u275_20
  3363  02D3                     u275_21:
  3364  02D3  2AB3               	goto	i1l1985
  3365  02D4                     u275_20:
  3366  02D4                     i1l1997:
  3367  02D4  01CC               	clrf	___flmul@aexp
  3368  02D5                     i1l1999:
  3369  02D5  1FCB               	btfss	___flmul@grs+3,7
  3370  02D6  2AD8               	goto	u276_21
  3371  02D7  2AD9               	goto	u276_20
  3372  02D8                     u276_21:
  3373  02D8  2AF5               	goto	i1l2007
  3374  02D9                     u276_20:
  3375  02D9                     i1l2001:
  3376  02D9  30FF               	movlw	255
  3377  02DA  0548               	andwf	___flmul@grs,w
  3378  02DB  00C2               	movwf	??___flmul
  3379  02DC  30FF               	movlw	255
  3380  02DD  0549               	andwf	___flmul@grs+1,w
  3381  02DE  00C3               	movwf	??___flmul+1
  3382  02DF  30FF               	movlw	255
  3383  02E0  054A               	andwf	___flmul@grs+2,w
  3384  02E1  00C4               	movwf	??___flmul+2
  3385  02E2  307F               	movlw	127
  3386  02E3  054B               	andwf	___flmul@grs+3,w
  3387  02E4  00C5               	movwf	??___flmul+3
  3388  02E5  0845               	movf	??___flmul+3,w
  3389  02E6  0444               	iorwf	??___flmul+2,w
  3390  02E7  0443               	iorwf	??___flmul+1,w
  3391  02E8  0442               	iorwf	??___flmul,w
  3392  02E9  1903               	skipnz
  3393  02EA  2AEC               	goto	u277_21
  3394  02EB  2AED               	goto	u277_20
  3395  02EC                     u277_21:
  3396  02EC  2AF0               	goto	i1l640
  3397  02ED                     u277_20:
  3398  02ED                     i1l2003:
  3399  02ED  01CC               	clrf	___flmul@aexp
  3400  02EE  0ACC               	incf	___flmul@aexp,f
  3401  02EF  2AF5               	goto	i1l2007
  3402  02F0                     i1l640:
  3403  02F0  1C4E               	btfss	___flmul@prod,0
  3404  02F1  2AF3               	goto	u278_21
  3405  02F2  2AF4               	goto	u278_20
  3406  02F3                     u278_21:
  3407  02F3  2AF5               	goto	i1l2007
  3408  02F4                     u278_20:
  3409  02F4  2AED               	goto	i1l2003
  3410  02F5                     i1l2007:
  3411  02F5  084C               	movf	___flmul@aexp,w
  3412  02F6  1903               	btfsc	3,2
  3413  02F7  2AF9               	goto	u279_21
  3414  02F8  2AFA               	goto	u279_20
  3415  02F9                     u279_21:
  3416  02F9  2B2B               	goto	i1l2017
  3417  02FA                     u279_20:
  3418  02FA                     i1l2009:
  3419  02FA  3001               	movlw	1
  3420  02FB  07CE               	addwf	___flmul@prod,f
  3421  02FC  3000               	movlw	0
  3422  02FD  1803               	skipnc
  3423  02FE  3001               	movlw	1
  3424  02FF  07CF               	addwf	___flmul@prod+1,f
  3425  0300  3000               	movlw	0
  3426  0301  1803               	skipnc
  3427  0302  3001               	movlw	1
  3428  0303  07D0               	addwf	___flmul@prod+2,f
  3429  0304  3000               	movlw	0
  3430  0305  1803               	skipnc
  3431  0306  3001               	movlw	1
  3432  0307  07D1               	addwf	___flmul@prod+3,f
  3433  0308                     i1l2011:
  3434  0308  1C51               	btfss	___flmul@prod+3,0
  3435  0309  2B0B               	goto	u280_21
  3436  030A  2B0C               	goto	u280_20
  3437  030B                     u280_21:
  3438  030B  2B2B               	goto	i1l2017
  3439  030C                     u280_20:
  3440  030C                     i1l2013:
  3441  030C  084E               	movf	___flmul@prod,w
  3442  030D  00C2               	movwf	??___flmul
  3443  030E  084F               	movf	___flmul@prod+1,w
  3444  030F  00C3               	movwf	??___flmul+1
  3445  0310  0850               	movf	___flmul@prod+2,w
  3446  0311  00C4               	movwf	??___flmul+2
  3447  0312  0851               	movf	___flmul@prod+3,w
  3448  0313  00C5               	movwf	??___flmul+3
  3449  0314  3001               	movlw	1
  3450  0315  00C6               	movwf	??___flmul+4
  3451  0316                     u281_25:
  3452  0316  0D45               	rlf	??___flmul+3,w
  3453  0317  0CC5               	rrf	??___flmul+3,f
  3454  0318  0CC4               	rrf	??___flmul+2,f
  3455  0319  0CC3               	rrf	??___flmul+1,f
  3456  031A  0CC2               	rrf	??___flmul,f
  3457  031B                     u281_20:
  3458  031B  0BC6               	decfsz	??___flmul+4,f
  3459  031C  2B16               	goto	u281_25
  3460  031D  0845               	movf	??___flmul+3,w
  3461  031E  00D1               	movwf	___flmul@prod+3
  3462  031F  0844               	movf	??___flmul+2,w
  3463  0320  00D0               	movwf	___flmul@prod+2
  3464  0321  0843               	movf	??___flmul+1,w
  3465  0322  00CF               	movwf	___flmul@prod+1
  3466  0323  0842               	movf	??___flmul,w
  3467  0324  00CE               	movwf	___flmul@prod
  3468  0325                     i1l2015:
  3469  0325  3001               	movlw	1
  3470  0326  07D2               	addwf	___flmul@temp,f
  3471  0327  1803               	skipnc
  3472  0328  0AD3               	incf	___flmul@temp+1,f
  3473  0329  3000               	movlw	0
  3474  032A  07D3               	addwf	___flmul@temp+1,f
  3475  032B                     i1l2017:
  3476  032B  0853               	movf	___flmul@temp+1,w
  3477  032C  3A80               	xorlw	128
  3478  032D  00FF               	movwf	btemp+1
  3479  032E  3080               	movlw	128
  3480  032F  027F               	subwf	btemp+1,w
  3481  0330  1D03               	skipz
  3482  0331  2B34               	goto	u282_25
  3483  0332  30FF               	movlw	255
  3484  0333  0252               	subwf	___flmul@temp,w
  3485  0334                     u282_25:
  3486  0334  1C03               	skipc
  3487  0335  2B37               	goto	u282_21
  3488  0336  2B38               	goto	u282_20
  3489  0337                     u282_21:
  3490  0337  2B43               	goto	i1l2021
  3491  0338                     u282_20:
  3492  0338                     i1l2019:
  3493  0338  307F               	movlw	127
  3494  0339  1283               	bcf	3,5	;RP0=0, select bank0
  3495  033A  1303               	bcf	3,6	;RP1=0, select bank0
  3496  033B  00D1               	movwf	___flmul@prod+3
  3497  033C  3080               	movlw	128
  3498  033D  00D0               	movwf	___flmul@prod+2
  3499  033E  3000               	movlw	0
  3500  033F  00CF               	movwf	___flmul@prod+1
  3501  0340  3000               	movlw	0
  3502  0341  00CE               	movwf	___flmul@prod
  3503  0342  2B78               	goto	i1l646
  3504  0343                     i1l2021:
  3505  0343  1283               	bcf	3,5	;RP0=0, select bank0
  3506  0344  1303               	bcf	3,6	;RP1=0, select bank0
  3507  0345  0853               	movf	___flmul@temp+1,w
  3508  0346  3A80               	xorlw	128
  3509  0347  00FF               	movwf	btemp+1
  3510  0348  3080               	movlw	128
  3511  0349  027F               	subwf	btemp+1,w
  3512  034A  1D03               	skipz
  3513  034B  2B4E               	goto	u283_25
  3514  034C  3001               	movlw	1
  3515  034D  0252               	subwf	___flmul@temp,w
  3516  034E                     u283_25:
  3517  034E  1803               	skipnc
  3518  034F  2B51               	goto	u283_21
  3519  0350  2B52               	goto	u283_20
  3520  0351                     u283_21:
  3521  0351  2B5E               	goto	i1l2027
  3522  0352                     u283_20:
  3523  0352                     i1l2023:
  3524  0352  3000               	movlw	0
  3525  0353  1283               	bcf	3,5	;RP0=0, select bank0
  3526  0354  1303               	bcf	3,6	;RP1=0, select bank0
  3527  0355  00D1               	movwf	___flmul@prod+3
  3528  0356  3000               	movlw	0
  3529  0357  00D0               	movwf	___flmul@prod+2
  3530  0358  3000               	movlw	0
  3531  0359  00CF               	movwf	___flmul@prod+1
  3532  035A  3000               	movlw	0
  3533  035B  00CE               	movwf	___flmul@prod
  3534  035C                     i1l2025:
  3535  035C  01C7               	clrf	___flmul@sign
  3536  035D  2B78               	goto	i1l646
  3537  035E                     i1l2027:
  3538  035E  1283               	bcf	3,5	;RP0=0, select bank0
  3539  035F  1303               	bcf	3,6	;RP1=0, select bank0
  3540  0360  0852               	movf	___flmul@temp,w
  3541  0361  00C2               	movwf	??___flmul
  3542  0362  0842               	movf	??___flmul,w
  3543  0363  00CD               	movwf	___flmul@bexp
  3544  0364  30FF               	movlw	255
  3545  0365  05CE               	andwf	___flmul@prod,f
  3546  0366  30FF               	movlw	255
  3547  0367  05CF               	andwf	___flmul@prod+1,f
  3548  0368  307F               	movlw	127
  3549  0369  05D0               	andwf	___flmul@prod+2,f
  3550  036A  3000               	movlw	0
  3551  036B  05D1               	andwf	___flmul@prod+3,f
  3552  036C                     i1l2029:
  3553  036C  1C4D               	btfss	___flmul@bexp,0
  3554  036D  2B6F               	goto	u284_21
  3555  036E  2B70               	goto	u284_20
  3556  036F                     u284_21:
  3557  036F  2B71               	goto	i1l2033
  3558  0370                     u284_20:
  3559  0370                     i1l2031:
  3560  0370  17D0               	bsf	___flmul@prod+2,7
  3561  0371                     i1l2033:
  3562  0371  084D               	movf	___flmul@bexp,w
  3563  0372  00C2               	movwf	??___flmul
  3564  0373  1003               	clrc
  3565  0374  0C42               	rrf	??___flmul,w
  3566  0375  00C3               	movwf	??___flmul+1
  3567  0376  0843               	movf	??___flmul+1,w
  3568  0377  00D1               	movwf	___flmul@prod+3
  3569  0378                     i1l646:
  3570  0378  0847               	movf	___flmul@sign,w
  3571  0379  00C2               	movwf	??___flmul
  3572  037A  0842               	movf	??___flmul,w
  3573  037B  04D1               	iorwf	___flmul@prod+3,f
  3574  037C                     i1l2035:
  3575  037C  0851               	movf	___flmul@prod+3,w
  3576  037D  00BD               	movwf	?___flmul+3
  3577  037E  0850               	movf	___flmul@prod+2,w
  3578  037F  00BC               	movwf	?___flmul+2
  3579  0380  084F               	movf	___flmul@prod+1,w
  3580  0381  00BB               	movwf	?___flmul+1
  3581  0382  084E               	movf	___flmul@prod,w
  3582  0383  00BA               	movwf	?___flmul
  3583  0384                     i1l634:
  3584  0384  0008               	return
  3585  0385                     __end_of___flmul:
  3586                           
  3587                           	psect	text11
  3588  0B6D                     __ptext11:	
  3589 ;; *************** function __Umul8_16 *****************
  3590 ;; Defined at:
  3591 ;;		line 4 in file "C:\Program Files\Microchip\xc8\v2.35\pic\sources\c90\common\Umul8_16.c"
  3592 ;; Parameters:    Size  Location     Type
  3593 ;;  multiplier      1    wreg     unsigned char 
  3594 ;;  multiplicand    1    0[COMMON] unsigned char 
  3595 ;; Auto vars:     Size  Location     Type
  3596 ;;  multiplier      1    8[COMMON] unsigned char 
  3597 ;;  word_mpld       2    6[COMMON] unsigned int 
  3598 ;;  product         2    4[COMMON] unsigned int 
  3599 ;; Return value:  Size  Location     Type
  3600 ;;                  2    0[COMMON] unsigned int 
  3601 ;; Registers used:
  3602 ;;		wreg, status,2, status,0
  3603 ;; Tracked objects:
  3604 ;;		On entry : 0/0
  3605 ;;		On exit  : 0/0
  3606 ;;		Unchanged: 0/0
  3607 ;; Data sizes:     COMMON   BANK0   BANK1   BANK3   BANK2
  3608 ;;      Params:         2       0       0       0       0
  3609 ;;      Locals:         5       0       0       0       0
  3610 ;;      Temps:          2       0       0       0       0
  3611 ;;      Totals:         9       0       0       0       0
  3612 ;;Total ram usage:        9 bytes
  3613 ;; Hardware stack levels used: 1
  3614 ;; This function calls:
  3615 ;;		Nothing
  3616 ;; This function is called by:
  3617 ;;		___flmul
  3618 ;; This function uses a non-reentrant model
  3619 ;;
  3620                           
  3621  0B6D                     __Umul8_16:	
  3622                           ;psect for function __Umul8_16
  3623                           
  3624                           
  3625                           ;incstack = 0
  3626                           ; Regs used in __Umul8_16: [wreg+status,2+status,0]
  3627                           ;__Umul8_16@multiplier stored from wreg
  3628  0B6D  00F8               	movwf	__Umul8_16@multiplier
  3629  0B6E                     i1l1513:
  3630  0B6E  01F4               	clrf	__Umul8_16@product
  3631  0B6F  01F5               	clrf	__Umul8_16@product+1
  3632  0B70                     i1l1515:
  3633  0B70  0870               	movf	__Umul8_16@multiplicand,w
  3634  0B71  00F2               	movwf	??__Umul8_16
  3635  0B72  01F3               	clrf	??__Umul8_16+1
  3636  0B73  0872               	movf	??__Umul8_16,w
  3637  0B74  00F6               	movwf	__Umul8_16@word_mpld
  3638  0B75  0873               	movf	??__Umul8_16+1,w
  3639  0B76  00F7               	movwf	__Umul8_16@word_mpld+1
  3640  0B77                     i1l1517:
  3641  0B77  1C78               	btfss	__Umul8_16@multiplier,0
  3642  0B78  2B7A               	goto	u160_21
  3643  0B79  2B7B               	goto	u160_20
  3644  0B7A                     u160_21:
  3645  0B7A  2B81               	goto	i1l653
  3646  0B7B                     u160_20:
  3647  0B7B                     i1l1519:
  3648  0B7B  0876               	movf	__Umul8_16@word_mpld,w
  3649  0B7C  07F4               	addwf	__Umul8_16@product,f
  3650  0B7D  1803               	skipnc
  3651  0B7E  0AF5               	incf	__Umul8_16@product+1,f
  3652  0B7F  0877               	movf	__Umul8_16@word_mpld+1,w
  3653  0B80  07F5               	addwf	__Umul8_16@product+1,f
  3654  0B81                     i1l653:
  3655  0B81  3001               	movlw	1
  3656  0B82                     u161_25:
  3657  0B82  1003               	clrc
  3658  0B83  0DF6               	rlf	__Umul8_16@word_mpld,f
  3659  0B84  0DF7               	rlf	__Umul8_16@word_mpld+1,f
  3660  0B85  3EFF               	addlw	-1
  3661  0B86  1D03               	skipz
  3662  0B87  2B82               	goto	u161_25
  3663  0B88  1003               	clrc
  3664  0B89  0CF8               	rrf	__Umul8_16@multiplier,f
  3665  0B8A                     i1l1521:
  3666  0B8A  0878               	movf	__Umul8_16@multiplier,w
  3667  0B8B  1D03               	btfss	3,2
  3668  0B8C  2B8E               	goto	u162_21
  3669  0B8D  2B8F               	goto	u162_20
  3670  0B8E                     u162_21:
  3671  0B8E  2B77               	goto	i1l1517
  3672  0B8F                     u162_20:
  3673  0B8F                     i1l1523:
  3674  0B8F  0875               	movf	__Umul8_16@product+1,w
  3675  0B90  00F1               	movwf	?__Umul8_16+1
  3676  0B91  0874               	movf	__Umul8_16@product,w
  3677  0B92  00F0               	movwf	?__Umul8_16
  3678  0B93                     i1l655:
  3679  0B93  0008               	return
  3680  0B94                     __end_of__Umul8_16:
  3681                           
  3682                           	psect	text12
  3683  060D                     __ptext12:	
  3684 ;; *************** function ___fldiv *****************
  3685 ;; Defined at:
  3686 ;;		line 8 in file "C:\Program Files\Microchip\xc8\v2.35\pic\sources\c90\common\sprcdiv.c"
  3687 ;; Parameters:    Size  Location     Type
  3688 ;;  a               4    0[BANK0 ] unsigned int 
  3689 ;;  b               4    4[BANK0 ] unsigned int 
  3690 ;; Auto vars:     Size  Location     Type
  3691 ;;  grs             4   20[BANK0 ] unsigned long 
  3692 ;;  rem             4   13[BANK0 ] unsigned long 
  3693 ;;  new_exp         2   18[BANK0 ] int 
  3694 ;;  aexp            1   25[BANK0 ] unsigned char 
  3695 ;;  bexp            1   24[BANK0 ] unsigned char 
  3696 ;;  sign            1   17[BANK0 ] unsigned char 
  3697 ;; Return value:  Size  Location     Type
  3698 ;;                  4    0[BANK0 ] unsigned char 
  3699 ;; Registers used:
  3700 ;;		wreg, status,2, status,0, btemp+1
  3701 ;; Tracked objects:
  3702 ;;		On entry : 0/0
  3703 ;;		On exit  : 0/0
  3704 ;;		Unchanged: 0/0
  3705 ;; Data sizes:     COMMON   BANK0   BANK1   BANK3   BANK2
  3706 ;;      Params:         0       8       0       0       0
  3707 ;;      Locals:         0      13       0       0       0
  3708 ;;      Temps:          0       5       0       0       0
  3709 ;;      Totals:         0      26       0       0       0
  3710 ;;Total ram usage:       26 bytes
  3711 ;; Hardware stack levels used: 1
  3712 ;; This function calls:
  3713 ;;		Nothing
  3714 ;; This function is called by:
  3715 ;;		_map
  3716 ;; This function uses a non-reentrant model
  3717 ;;
  3718                           
  3719  060D                     ___fldiv:	
  3720                           ;psect for function ___fldiv
  3721                           
  3722  060D                     i1l1757:	
  3723                           ;incstack = 0
  3724                           ; Regs used in ___fldiv: [wreg+status,2+status,0+btemp+1]
  3725                           
  3726  060D  1283               	bcf	3,5	;RP0=0, select bank0
  3727  060E  1303               	bcf	3,6	;RP1=0, select bank0
  3728  060F  0827               	movf	___fldiv@b+3,w
  3729  0610  3980               	andlw	128
  3730  0611  00A8               	movwf	??___fldiv
  3731  0612  0828               	movf	??___fldiv,w
  3732  0613  00B1               	movwf	___fldiv@sign
  3733  0614                     i1l1759:
  3734  0614  0827               	movf	___fldiv@b+3,w
  3735  0615  00A8               	movwf	??___fldiv
  3736  0616  0728               	addwf	??___fldiv,w
  3737  0617  00A9               	movwf	??___fldiv+1
  3738  0618  0829               	movf	??___fldiv+1,w
  3739  0619  00B8               	movwf	___fldiv@bexp
  3740  061A                     i1l1761:
  3741  061A  1FA6               	btfss	___fldiv@b+2,7
  3742  061B  2E1D               	goto	u219_21
  3743  061C  2E1E               	goto	u219_20
  3744  061D                     u219_21:
  3745  061D  2E1F               	goto	i1l1765
  3746  061E                     u219_20:
  3747  061E                     i1l1763:
  3748  061E  1438               	bsf	___fldiv@bexp,0
  3749  061F                     i1l1765:
  3750  061F  0838               	movf	___fldiv@bexp,w
  3751  0620  1903               	btfsc	3,2
  3752  0621  2E23               	goto	u220_21
  3753  0622  2E24               	goto	u220_20
  3754  0623                     u220_21:
  3755  0623  2E34               	goto	i1l1775
  3756  0624                     u220_20:
  3757  0624                     i1l1767:
  3758  0624  0A38               	incf	___fldiv@bexp,w
  3759  0625  1D03               	btfss	3,2
  3760  0626  2E28               	goto	u221_21
  3761  0627  2E29               	goto	u221_20
  3762  0628                     u221_21:
  3763  0628  2E31               	goto	i1l1771
  3764  0629                     u221_20:
  3765  0629                     i1l1769:
  3766  0629  3000               	movlw	0
  3767  062A  00A7               	movwf	___fldiv@b+3
  3768  062B  3000               	movlw	0
  3769  062C  00A6               	movwf	___fldiv@b+2
  3770  062D  3000               	movlw	0
  3771  062E  00A5               	movwf	___fldiv@b+1
  3772  062F  3000               	movlw	0
  3773  0630  00A4               	movwf	___fldiv@b
  3774  0631                     i1l1771:
  3775  0631  17A6               	bsf	___fldiv@b+2,7
  3776  0632                     i1l1773:
  3777  0632  01A7               	clrf	___fldiv@b+3
  3778  0633  2E3C               	goto	i1l1777
  3779  0634                     i1l1775:
  3780  0634  3000               	movlw	0
  3781  0635  00A7               	movwf	___fldiv@b+3
  3782  0636  3000               	movlw	0
  3783  0637  00A6               	movwf	___fldiv@b+2
  3784  0638  3000               	movlw	0
  3785  0639  00A5               	movwf	___fldiv@b+1
  3786  063A  3000               	movlw	0
  3787  063B  00A4               	movwf	___fldiv@b
  3788  063C                     i1l1777:
  3789  063C  0823               	movf	___fldiv@a+3,w
  3790  063D  3980               	andlw	128
  3791  063E  00A8               	movwf	??___fldiv
  3792  063F  0828               	movf	??___fldiv,w
  3793  0640  06B1               	xorwf	___fldiv@sign,f
  3794  0641                     i1l1779:
  3795  0641  0823               	movf	___fldiv@a+3,w
  3796  0642  00A8               	movwf	??___fldiv
  3797  0643  0728               	addwf	??___fldiv,w
  3798  0644  00A9               	movwf	??___fldiv+1
  3799  0645  0829               	movf	??___fldiv+1,w
  3800  0646  00B9               	movwf	___fldiv@aexp
  3801  0647                     i1l1781:
  3802  0647  1FA2               	btfss	___fldiv@a+2,7
  3803  0648  2E4A               	goto	u222_21
  3804  0649  2E4B               	goto	u222_20
  3805  064A                     u222_21:
  3806  064A  2E4C               	goto	i1l1785
  3807  064B                     u222_20:
  3808  064B                     i1l1783:
  3809  064B  1439               	bsf	___fldiv@aexp,0
  3810  064C                     i1l1785:
  3811  064C  0839               	movf	___fldiv@aexp,w
  3812  064D  1903               	btfsc	3,2
  3813  064E  2E50               	goto	u223_21
  3814  064F  2E51               	goto	u223_20
  3815  0650                     u223_21:
  3816  0650  2E61               	goto	i1l1795
  3817  0651                     u223_20:
  3818  0651                     i1l1787:
  3819  0651  0A39               	incf	___fldiv@aexp,w
  3820  0652  1D03               	btfss	3,2
  3821  0653  2E55               	goto	u224_21
  3822  0654  2E56               	goto	u224_20
  3823  0655                     u224_21:
  3824  0655  2E5E               	goto	i1l1791
  3825  0656                     u224_20:
  3826  0656                     i1l1789:
  3827  0656  3000               	movlw	0
  3828  0657  00A3               	movwf	___fldiv@a+3
  3829  0658  3000               	movlw	0
  3830  0659  00A2               	movwf	___fldiv@a+2
  3831  065A  3000               	movlw	0
  3832  065B  00A1               	movwf	___fldiv@a+1
  3833  065C  3000               	movlw	0
  3834  065D  00A0               	movwf	___fldiv@a
  3835  065E                     i1l1791:
  3836  065E  17A2               	bsf	___fldiv@a+2,7
  3837  065F                     i1l1793:
  3838  065F  01A3               	clrf	___fldiv@a+3
  3839  0660  2E69               	goto	i1l594
  3840  0661                     i1l1795:
  3841  0661  3000               	movlw	0
  3842  0662  00A3               	movwf	___fldiv@a+3
  3843  0663  3000               	movlw	0
  3844  0664  00A2               	movwf	___fldiv@a+2
  3845  0665  3000               	movlw	0
  3846  0666  00A1               	movwf	___fldiv@a+1
  3847  0667  3000               	movlw	0
  3848  0668  00A0               	movwf	___fldiv@a
  3849  0669                     i1l594:
  3850  0669  0823               	movf	___fldiv@a+3,w
  3851  066A  0422               	iorwf	___fldiv@a+2,w
  3852  066B  0421               	iorwf	___fldiv@a+1,w
  3853  066C  0420               	iorwf	___fldiv@a,w
  3854  066D  1D03               	skipz
  3855  066E  2E70               	goto	u225_21
  3856  066F  2E71               	goto	u225_20
  3857  0670                     u225_21:
  3858  0670  2E8A               	goto	i1l1805
  3859  0671                     u225_20:
  3860  0671                     i1l1797:
  3861  0671  3000               	movlw	0
  3862  0672  00A7               	movwf	___fldiv@b+3
  3863  0673  3000               	movlw	0
  3864  0674  00A6               	movwf	___fldiv@b+2
  3865  0675  3000               	movlw	0
  3866  0676  00A5               	movwf	___fldiv@b+1
  3867  0677  3000               	movlw	0
  3868  0678  00A4               	movwf	___fldiv@b
  3869  0679  3080               	movlw	128
  3870  067A  04A6               	iorwf	___fldiv@b+2,f
  3871  067B  307F               	movlw	127
  3872  067C  04A7               	iorwf	___fldiv@b+3,f
  3873  067D                     i1l1799:
  3874  067D  0831               	movf	___fldiv@sign,w
  3875  067E  00A8               	movwf	??___fldiv
  3876  067F  0828               	movf	??___fldiv,w
  3877  0680  04A7               	iorwf	___fldiv@b+3,f
  3878  0681                     i1l1801:
  3879  0681  0827               	movf	___fldiv@b+3,w
  3880  0682  00A3               	movwf	?___fldiv+3
  3881  0683  0826               	movf	___fldiv@b+2,w
  3882  0684  00A2               	movwf	?___fldiv+2
  3883  0685  0825               	movf	___fldiv@b+1,w
  3884  0686  00A1               	movwf	?___fldiv+1
  3885  0687  0824               	movf	___fldiv@b,w
  3886  0688  00A0               	movwf	?___fldiv
  3887  0689  2FE9               	goto	i1l596
  3888  068A                     i1l1805:
  3889  068A  0838               	movf	___fldiv@bexp,w
  3890  068B  1D03               	btfss	3,2
  3891  068C  2E8E               	goto	u226_21
  3892  068D  2E8F               	goto	u226_20
  3893  068E                     u226_21:
  3894  068E  2E98               	goto	i1l1811
  3895  068F                     u226_20:
  3896  068F                     i1l1807:
  3897  068F  3000               	movlw	0
  3898  0690  00A3               	movwf	?___fldiv+3
  3899  0691  3000               	movlw	0
  3900  0692  00A2               	movwf	?___fldiv+2
  3901  0693  3000               	movlw	0
  3902  0694  00A1               	movwf	?___fldiv+1
  3903  0695  3000               	movlw	0
  3904  0696  00A0               	movwf	?___fldiv
  3905  0697  2FE9               	goto	i1l596
  3906  0698                     i1l1811:
  3907  0698  0838               	movf	___fldiv@bexp,w
  3908  0699  00A8               	movwf	??___fldiv
  3909  069A  01A9               	clrf	??___fldiv+1
  3910  069B  0829               	movf	??___fldiv+1,w
  3911  069C  00AB               	movwf	??___fldiv+3
  3912  069D  0839               	movf	___fldiv@aexp,w
  3913  069E  0228               	subwf	??___fldiv,w
  3914  069F  00AA               	movwf	??___fldiv+2
  3915  06A0  1C03               	skipc
  3916  06A1  03AB               	decf	??___fldiv+3,f
  3917  06A2  082A               	movf	??___fldiv+2,w
  3918  06A3  3E7F               	addlw	127
  3919  06A4  00B2               	movwf	___fldiv@new_exp
  3920  06A5  082B               	movf	??___fldiv+3,w
  3921  06A6  1803               	skipnc
  3922  06A7  3E01               	addlw	1
  3923  06A8  3E00               	addlw	0
  3924  06A9  00B3               	movwf	___fldiv@new_exp+1
  3925  06AA                     i1l1813:
  3926  06AA  0827               	movf	___fldiv@b+3,w
  3927  06AB  00B0               	movwf	___fldiv@rem+3
  3928  06AC  0826               	movf	___fldiv@b+2,w
  3929  06AD  00AF               	movwf	___fldiv@rem+2
  3930  06AE  0825               	movf	___fldiv@b+1,w
  3931  06AF  00AE               	movwf	___fldiv@rem+1
  3932  06B0  0824               	movf	___fldiv@b,w
  3933  06B1  00AD               	movwf	___fldiv@rem
  3934  06B2                     i1l1815:
  3935  06B2  3000               	movlw	0
  3936  06B3  00A7               	movwf	___fldiv@b+3
  3937  06B4  3000               	movlw	0
  3938  06B5  00A6               	movwf	___fldiv@b+2
  3939  06B6  3000               	movlw	0
  3940  06B7  00A5               	movwf	___fldiv@b+1
  3941  06B8  3000               	movlw	0
  3942  06B9  00A4               	movwf	___fldiv@b
  3943  06BA                     i1l1817:
  3944  06BA  3000               	movlw	0
  3945  06BB  00B7               	movwf	___fldiv@grs+3
  3946  06BC  3000               	movlw	0
  3947  06BD  00B6               	movwf	___fldiv@grs+2
  3948  06BE  3000               	movlw	0
  3949  06BF  00B5               	movwf	___fldiv@grs+1
  3950  06C0  3000               	movlw	0
  3951  06C1  00B4               	movwf	___fldiv@grs
  3952  06C2                     i1l1819:
  3953  06C2  01B9               	clrf	___fldiv@aexp
  3954  06C3  2F0E               	goto	i1l1839
  3955  06C4                     i1l1821:
  3956  06C4  0839               	movf	___fldiv@aexp,w
  3957  06C5  1903               	btfsc	3,2
  3958  06C6  2EC8               	goto	u227_21
  3959  06C7  2EC9               	goto	u227_20
  3960  06C8                     u227_21:
  3961  06C8  2EE9               	goto	i1l1831
  3962  06C9                     u227_20:
  3963  06C9                     i1l1823:
  3964  06C9  3001               	movlw	1
  3965  06CA  00A8               	movwf	??___fldiv
  3966  06CB                     u228_25:
  3967  06CB  1003               	clrc
  3968  06CC  0DAD               	rlf	___fldiv@rem,f
  3969  06CD  0DAE               	rlf	___fldiv@rem+1,f
  3970  06CE  0DAF               	rlf	___fldiv@rem+2,f
  3971  06CF  0DB0               	rlf	___fldiv@rem+3,f
  3972  06D0  0BA8               	decfsz	??___fldiv,f
  3973  06D1  2ECB               	goto	u228_25
  3974  06D2  3001               	movlw	1
  3975  06D3  00A8               	movwf	??___fldiv
  3976  06D4                     u229_25:
  3977  06D4  1003               	clrc
  3978  06D5  0DA4               	rlf	___fldiv@b,f
  3979  06D6  0DA5               	rlf	___fldiv@b+1,f
  3980  06D7  0DA6               	rlf	___fldiv@b+2,f
  3981  06D8  0DA7               	rlf	___fldiv@b+3,f
  3982  06D9  0BA8               	decfsz	??___fldiv,f
  3983  06DA  2ED4               	goto	u229_25
  3984  06DB                     i1l1825:
  3985  06DB  1FB7               	btfss	___fldiv@grs+3,7
  3986  06DC  2EDE               	goto	u230_21
  3987  06DD  2EDF               	goto	u230_20
  3988  06DE                     u230_21:
  3989  06DE  2EE0               	goto	i1l1829
  3990  06DF                     u230_20:
  3991  06DF                     i1l1827:
  3992  06DF  1424               	bsf	___fldiv@b,0
  3993  06E0                     i1l1829:
  3994  06E0  3001               	movlw	1
  3995  06E1  00A8               	movwf	??___fldiv
  3996  06E2                     u231_25:
  3997  06E2  1003               	clrc
  3998  06E3  0DB4               	rlf	___fldiv@grs,f
  3999  06E4  0DB5               	rlf	___fldiv@grs+1,f
  4000  06E5  0DB6               	rlf	___fldiv@grs+2,f
  4001  06E6  0DB7               	rlf	___fldiv@grs+3,f
  4002  06E7  0BA8               	decfsz	??___fldiv,f
  4003  06E8  2EE2               	goto	u231_25
  4004  06E9                     i1l1831:
  4005  06E9  0823               	movf	___fldiv@a+3,w
  4006  06EA  0230               	subwf	___fldiv@rem+3,w
  4007  06EB  1D03               	skipz
  4008  06EC  2EF7               	goto	u232_25
  4009  06ED  0822               	movf	___fldiv@a+2,w
  4010  06EE  022F               	subwf	___fldiv@rem+2,w
  4011  06EF  1D03               	skipz
  4012  06F0  2EF7               	goto	u232_25
  4013  06F1  0821               	movf	___fldiv@a+1,w
  4014  06F2  022E               	subwf	___fldiv@rem+1,w
  4015  06F3  1D03               	skipz
  4016  06F4  2EF7               	goto	u232_25
  4017  06F5  0820               	movf	___fldiv@a,w
  4018  06F6  022D               	subwf	___fldiv@rem,w
  4019  06F7                     u232_25:
  4020  06F7  1C03               	skipc
  4021  06F8  2EFA               	goto	u232_21
  4022  06F9  2EFB               	goto	u232_20
  4023  06FA                     u232_21:
  4024  06FA  2F0A               	goto	i1l1837
  4025  06FB                     u232_20:
  4026  06FB                     i1l1833:
  4027  06FB  1737               	bsf	___fldiv@grs+3,6
  4028  06FC                     i1l1835:
  4029  06FC  0820               	movf	___fldiv@a,w
  4030  06FD  02AD               	subwf	___fldiv@rem,f
  4031  06FE  0821               	movf	___fldiv@a+1,w
  4032  06FF  1C03               	skipc
  4033  0700  0F21               	incfsz	___fldiv@a+1,w
  4034  0701  02AE               	subwf	___fldiv@rem+1,f
  4035  0702  0822               	movf	___fldiv@a+2,w
  4036  0703  1C03               	skipc
  4037  0704  0F22               	incfsz	___fldiv@a+2,w
  4038  0705  02AF               	subwf	___fldiv@rem+2,f
  4039  0706  0823               	movf	___fldiv@a+3,w
  4040  0707  1C03               	skipc
  4041  0708  0F23               	incfsz	___fldiv@a+3,w
  4042  0709  02B0               	subwf	___fldiv@rem+3,f
  4043  070A                     i1l1837:
  4044  070A  3001               	movlw	1
  4045  070B  00A8               	movwf	??___fldiv
  4046  070C  0828               	movf	??___fldiv,w
  4047  070D  07B9               	addwf	___fldiv@aexp,f
  4048  070E                     i1l1839:
  4049  070E  301A               	movlw	26
  4050  070F  0239               	subwf	___fldiv@aexp,w
  4051  0710  1C03               	skipc
  4052  0711  2F13               	goto	u233_21
  4053  0712  2F14               	goto	u233_20
  4054  0713                     u233_21:
  4055  0713  2EC4               	goto	i1l1821
  4056  0714                     u233_20:
  4057  0714                     i1l1841:
  4058  0714  0830               	movf	___fldiv@rem+3,w
  4059  0715  042F               	iorwf	___fldiv@rem+2,w
  4060  0716  042E               	iorwf	___fldiv@rem+1,w
  4061  0717  042D               	iorwf	___fldiv@rem,w
  4062  0718  1903               	skipnz
  4063  0719  2F1B               	goto	u234_21
  4064  071A  2F1C               	goto	u234_20
  4065  071B                     u234_21:
  4066  071B  2F3B               	goto	i1l1855
  4067  071C                     u234_20:
  4068  071C                     i1l1843:
  4069  071C  1434               	bsf	___fldiv@grs,0
  4070  071D  2F3B               	goto	i1l1855
  4071  071E                     i1l1845:
  4072  071E  3001               	movlw	1
  4073  071F  00A8               	movwf	??___fldiv
  4074  0720                     u235_25:
  4075  0720  1003               	clrc
  4076  0721  0DA4               	rlf	___fldiv@b,f
  4077  0722  0DA5               	rlf	___fldiv@b+1,f
  4078  0723  0DA6               	rlf	___fldiv@b+2,f
  4079  0724  0DA7               	rlf	___fldiv@b+3,f
  4080  0725  0BA8               	decfsz	??___fldiv,f
  4081  0726  2F20               	goto	u235_25
  4082  0727                     i1l1847:
  4083  0727  1FB7               	btfss	___fldiv@grs+3,7
  4084  0728  2F2A               	goto	u236_21
  4085  0729  2F2B               	goto	u236_20
  4086  072A                     u236_21:
  4087  072A  2F2C               	goto	i1l1851
  4088  072B                     u236_20:
  4089  072B                     i1l1849:
  4090  072B  1424               	bsf	___fldiv@b,0
  4091  072C                     i1l1851:
  4092  072C  3001               	movlw	1
  4093  072D  00A8               	movwf	??___fldiv
  4094  072E                     u237_25:
  4095  072E  1003               	clrc
  4096  072F  0DB4               	rlf	___fldiv@grs,f
  4097  0730  0DB5               	rlf	___fldiv@grs+1,f
  4098  0731  0DB6               	rlf	___fldiv@grs+2,f
  4099  0732  0DB7               	rlf	___fldiv@grs+3,f
  4100  0733  0BA8               	decfsz	??___fldiv,f
  4101  0734  2F2E               	goto	u237_25
  4102  0735                     i1l1853:
  4103  0735  30FF               	movlw	255
  4104  0736  07B2               	addwf	___fldiv@new_exp,f
  4105  0737  1803               	skipnc
  4106  0738  0AB3               	incf	___fldiv@new_exp+1,f
  4107  0739  30FF               	movlw	255
  4108  073A  07B3               	addwf	___fldiv@new_exp+1,f
  4109  073B                     i1l1855:
  4110  073B  1FA6               	btfss	___fldiv@b+2,7
  4111  073C  2F3E               	goto	u238_21
  4112  073D  2F3F               	goto	u238_20
  4113  073E                     u238_21:
  4114  073E  2F1E               	goto	i1l1845
  4115  073F                     u238_20:
  4116  073F                     i1l1857:
  4117  073F  01B9               	clrf	___fldiv@aexp
  4118  0740                     i1l1859:
  4119  0740  1FB7               	btfss	___fldiv@grs+3,7
  4120  0741  2F43               	goto	u239_21
  4121  0742  2F44               	goto	u239_20
  4122  0743                     u239_21:
  4123  0743  2F60               	goto	i1l1867
  4124  0744                     u239_20:
  4125  0744                     i1l1861:
  4126  0744  30FF               	movlw	255
  4127  0745  0534               	andwf	___fldiv@grs,w
  4128  0746  00A8               	movwf	??___fldiv
  4129  0747  30FF               	movlw	255
  4130  0748  0535               	andwf	___fldiv@grs+1,w
  4131  0749  00A9               	movwf	??___fldiv+1
  4132  074A  30FF               	movlw	255
  4133  074B  0536               	andwf	___fldiv@grs+2,w
  4134  074C  00AA               	movwf	??___fldiv+2
  4135  074D  307F               	movlw	127
  4136  074E  0537               	andwf	___fldiv@grs+3,w
  4137  074F  00AB               	movwf	??___fldiv+3
  4138  0750  082B               	movf	??___fldiv+3,w
  4139  0751  042A               	iorwf	??___fldiv+2,w
  4140  0752  0429               	iorwf	??___fldiv+1,w
  4141  0753  0428               	iorwf	??___fldiv,w
  4142  0754  1903               	skipnz
  4143  0755  2F57               	goto	u240_21
  4144  0756  2F58               	goto	u240_20
  4145  0757                     u240_21:
  4146  0757  2F5B               	goto	i1l610
  4147  0758                     u240_20:
  4148  0758                     i1l1863:
  4149  0758  01B9               	clrf	___fldiv@aexp
  4150  0759  0AB9               	incf	___fldiv@aexp,f
  4151  075A  2F60               	goto	i1l1867
  4152  075B                     i1l610:
  4153  075B  1C24               	btfss	___fldiv@b,0
  4154  075C  2F5E               	goto	u241_21
  4155  075D  2F5F               	goto	u241_20
  4156  075E                     u241_21:
  4157  075E  2F60               	goto	i1l1867
  4158  075F                     u241_20:
  4159  075F  2F58               	goto	i1l1863
  4160  0760                     i1l1867:
  4161  0760  0839               	movf	___fldiv@aexp,w
  4162  0761  1903               	btfsc	3,2
  4163  0762  2F64               	goto	u242_21
  4164  0763  2F65               	goto	u242_20
  4165  0764                     u242_21:
  4166  0764  2F96               	goto	i1l1877
  4167  0765                     u242_20:
  4168  0765                     i1l1869:
  4169  0765  3001               	movlw	1
  4170  0766  07A4               	addwf	___fldiv@b,f
  4171  0767  3000               	movlw	0
  4172  0768  1803               	skipnc
  4173  0769  3001               	movlw	1
  4174  076A  07A5               	addwf	___fldiv@b+1,f
  4175  076B  3000               	movlw	0
  4176  076C  1803               	skipnc
  4177  076D  3001               	movlw	1
  4178  076E  07A6               	addwf	___fldiv@b+2,f
  4179  076F  3000               	movlw	0
  4180  0770  1803               	skipnc
  4181  0771  3001               	movlw	1
  4182  0772  07A7               	addwf	___fldiv@b+3,f
  4183  0773                     i1l1871:
  4184  0773  1C27               	btfss	___fldiv@b+3,0
  4185  0774  2F76               	goto	u243_21
  4186  0775  2F77               	goto	u243_20
  4187  0776                     u243_21:
  4188  0776  2F96               	goto	i1l1877
  4189  0777                     u243_20:
  4190  0777                     i1l1873:
  4191  0777  0824               	movf	___fldiv@b,w
  4192  0778  00A8               	movwf	??___fldiv
  4193  0779  0825               	movf	___fldiv@b+1,w
  4194  077A  00A9               	movwf	??___fldiv+1
  4195  077B  0826               	movf	___fldiv@b+2,w
  4196  077C  00AA               	movwf	??___fldiv+2
  4197  077D  0827               	movf	___fldiv@b+3,w
  4198  077E  00AB               	movwf	??___fldiv+3
  4199  077F  3001               	movlw	1
  4200  0780  00AC               	movwf	??___fldiv+4
  4201  0781                     u244_25:
  4202  0781  0D2B               	rlf	??___fldiv+3,w
  4203  0782  0CAB               	rrf	??___fldiv+3,f
  4204  0783  0CAA               	rrf	??___fldiv+2,f
  4205  0784  0CA9               	rrf	??___fldiv+1,f
  4206  0785  0CA8               	rrf	??___fldiv,f
  4207  0786                     u244_20:
  4208  0786  0BAC               	decfsz	??___fldiv+4,f
  4209  0787  2F81               	goto	u244_25
  4210  0788  082B               	movf	??___fldiv+3,w
  4211  0789  00A7               	movwf	___fldiv@b+3
  4212  078A  082A               	movf	??___fldiv+2,w
  4213  078B  00A6               	movwf	___fldiv@b+2
  4214  078C  0829               	movf	??___fldiv+1,w
  4215  078D  00A5               	movwf	___fldiv@b+1
  4216  078E  0828               	movf	??___fldiv,w
  4217  078F  00A4               	movwf	___fldiv@b
  4218  0790                     i1l1875:
  4219  0790  3001               	movlw	1
  4220  0791  07B2               	addwf	___fldiv@new_exp,f
  4221  0792  1803               	skipnc
  4222  0793  0AB3               	incf	___fldiv@new_exp+1,f
  4223  0794  3000               	movlw	0
  4224  0795  07B3               	addwf	___fldiv@new_exp+1,f
  4225  0796                     i1l1877:
  4226  0796  0833               	movf	___fldiv@new_exp+1,w
  4227  0797  3A80               	xorlw	128
  4228  0798  00FF               	movwf	btemp+1
  4229  0799  3080               	movlw	128
  4230  079A  027F               	subwf	btemp+1,w
  4231  079B  1D03               	skipz
  4232  079C  2F9F               	goto	u245_25
  4233  079D  30FF               	movlw	255
  4234  079E  0232               	subwf	___fldiv@new_exp,w
  4235  079F                     u245_25:
  4236  079F  1C03               	skipc
  4237  07A0  2FA2               	goto	u245_21
  4238  07A1  2FA3               	goto	u245_20
  4239  07A2                     u245_21:
  4240  07A2  2FB1               	goto	i1l1881
  4241  07A3                     u245_20:
  4242  07A3                     i1l1879:
  4243  07A3  30FF               	movlw	255
  4244  07A4  1283               	bcf	3,5	;RP0=0, select bank0
  4245  07A5  1303               	bcf	3,6	;RP1=0, select bank0
  4246  07A6  00B2               	movwf	___fldiv@new_exp
  4247  07A7  3000               	movlw	0
  4248  07A8  00B3               	movwf	___fldiv@new_exp+1
  4249  07A9  3000               	movlw	0
  4250  07AA  00A7               	movwf	___fldiv@b+3
  4251  07AB  3000               	movlw	0
  4252  07AC  00A6               	movwf	___fldiv@b+2
  4253  07AD  3000               	movlw	0
  4254  07AE  00A5               	movwf	___fldiv@b+1
  4255  07AF  3000               	movlw	0
  4256  07B0  00A4               	movwf	___fldiv@b
  4257  07B1                     i1l1881:
  4258  07B1  1283               	bcf	3,5	;RP0=0, select bank0
  4259  07B2  1303               	bcf	3,6	;RP1=0, select bank0
  4260  07B3  0833               	movf	___fldiv@new_exp+1,w
  4261  07B4  3A80               	xorlw	128
  4262  07B5  00FF               	movwf	btemp+1
  4263  07B6  3080               	movlw	128
  4264  07B7  027F               	subwf	btemp+1,w
  4265  07B8  1D03               	skipz
  4266  07B9  2FBC               	goto	u246_25
  4267  07BA  3001               	movlw	1
  4268  07BB  0232               	subwf	___fldiv@new_exp,w
  4269  07BC                     u246_25:
  4270  07BC  1803               	skipnc
  4271  07BD  2FBF               	goto	u246_21
  4272  07BE  2FC0               	goto	u246_20
  4273  07BF                     u246_21:
  4274  07BF  2FCD               	goto	i1l616
  4275  07C0                     u246_20:
  4276  07C0                     i1l1883:
  4277  07C0  1283               	bcf	3,5	;RP0=0, select bank0
  4278  07C1  1303               	bcf	3,6	;RP1=0, select bank0
  4279  07C2  01B2               	clrf	___fldiv@new_exp
  4280  07C3  01B3               	clrf	___fldiv@new_exp+1
  4281  07C4                     i1l1885:
  4282  07C4  3000               	movlw	0
  4283  07C5  00A7               	movwf	___fldiv@b+3
  4284  07C6  3000               	movlw	0
  4285  07C7  00A6               	movwf	___fldiv@b+2
  4286  07C8  3000               	movlw	0
  4287  07C9  00A5               	movwf	___fldiv@b+1
  4288  07CA  3000               	movlw	0
  4289  07CB  00A4               	movwf	___fldiv@b
  4290  07CC                     i1l1887:
  4291  07CC  01B1               	clrf	___fldiv@sign
  4292  07CD                     i1l616:
  4293  07CD  1283               	bcf	3,5	;RP0=0, select bank0
  4294  07CE  1303               	bcf	3,6	;RP1=0, select bank0
  4295  07CF  0832               	movf	___fldiv@new_exp,w
  4296  07D0  00A8               	movwf	??___fldiv
  4297  07D1  0828               	movf	??___fldiv,w
  4298  07D2  00B8               	movwf	___fldiv@bexp
  4299  07D3                     i1l1889:
  4300  07D3  1C38               	btfss	___fldiv@bexp,0
  4301  07D4  2FD6               	goto	u247_21
  4302  07D5  2FD7               	goto	u247_20
  4303  07D6                     u247_21:
  4304  07D6  2FD9               	goto	i1l1893
  4305  07D7                     u247_20:
  4306  07D7                     i1l1891:
  4307  07D7  17A6               	bsf	___fldiv@b+2,7
  4308  07D8  2FDD               	goto	i1l618
  4309  07D9                     i1l1893:
  4310  07D9  307F               	movlw	127
  4311  07DA  00A8               	movwf	??___fldiv
  4312  07DB  0828               	movf	??___fldiv,w
  4313  07DC  05A6               	andwf	___fldiv@b+2,f
  4314  07DD                     i1l618:
  4315  07DD  0838               	movf	___fldiv@bexp,w
  4316  07DE  00A8               	movwf	??___fldiv
  4317  07DF  1003               	clrc
  4318  07E0  0C28               	rrf	??___fldiv,w
  4319  07E1  00A9               	movwf	??___fldiv+1
  4320  07E2  0829               	movf	??___fldiv+1,w
  4321  07E3  00A7               	movwf	___fldiv@b+3
  4322  07E4  0831               	movf	___fldiv@sign,w
  4323  07E5  00A8               	movwf	??___fldiv
  4324  07E6  0828               	movf	??___fldiv,w
  4325  07E7  04A7               	iorwf	___fldiv@b+3,f
  4326  07E8  2E81               	goto	i1l1801
  4327  07E9                     i1l596:
  4328  07E9  0008               	return
  4329  07EA                     __end_of___fldiv:
  4330                           
  4331                           	psect	text13
  4332  0385                     __ptext13:	
  4333 ;; *************** function ___fladd *****************
  4334 ;; Defined at:
  4335 ;;		line 10 in file "C:\Program Files\Microchip\xc8\v2.35\pic\sources\c90\common\sprcadd.c"
  4336 ;; Parameters:    Size  Location     Type
  4337 ;;  b               4   52[BANK0 ] unsigned char 
  4338 ;;  a               4   56[BANK0 ] unsigned char 
  4339 ;; Auto vars:     Size  Location     Type
  4340 ;;  grs             1   71[BANK0 ] unsigned char 
  4341 ;;  bexp            1   70[BANK0 ] unsigned char 
  4342 ;;  aexp            1   69[BANK0 ] unsigned char 
  4343 ;;  signs           1   68[BANK0 ] unsigned char 
  4344 ;; Return value:  Size  Location     Type
  4345 ;;                  4   52[BANK0 ] unsigned char 
  4346 ;; Registers used:
  4347 ;;		wreg, status,2, status,0, btemp+1
  4348 ;; Tracked objects:
  4349 ;;		On entry : 0/0
  4350 ;;		On exit  : 0/0
  4351 ;;		Unchanged: 0/0
  4352 ;; Data sizes:     COMMON   BANK0   BANK1   BANK3   BANK2
  4353 ;;      Params:         0       8       0       0       0
  4354 ;;      Locals:         0       4       0       0       0
  4355 ;;      Temps:          0       8       0       0       0
  4356 ;;      Totals:         0      20       0       0       0
  4357 ;;Total ram usage:       20 bytes
  4358 ;; Hardware stack levels used: 1
  4359 ;; This function calls:
  4360 ;;		Nothing
  4361 ;; This function is called by:
  4362 ;;		_map
  4363 ;; This function uses a non-reentrant model
  4364 ;;
  4365                           
  4366  0385                     ___fladd:	
  4367                           ;psect for function ___fladd
  4368                           
  4369  0385                     i1l1563:	
  4370                           ;incstack = 0
  4371                           ; Regs used in ___fladd: [wreg+status,2+status,0+btemp+1]
  4372                           
  4373  0385  1283               	bcf	3,5	;RP0=0, select bank0
  4374  0386  1303               	bcf	3,6	;RP1=0, select bank0
  4375  0387  0857               	movf	___fladd@b+3,w
  4376  0388  3980               	andlw	128
  4377  0389  00DC               	movwf	??___fladd
  4378  038A  085C               	movf	??___fladd,w
  4379  038B  00E4               	movwf	___fladd@signs
  4380  038C                     i1l1565:
  4381  038C  0857               	movf	___fladd@b+3,w
  4382  038D  00DC               	movwf	??___fladd
  4383  038E  075C               	addwf	??___fladd,w
  4384  038F  00DD               	movwf	??___fladd+1
  4385  0390  085D               	movf	??___fladd+1,w
  4386  0391  00E6               	movwf	___fladd@bexp
  4387  0392                     i1l1567:
  4388  0392  1FD6               	btfss	___fladd@b+2,7
  4389  0393  2B95               	goto	u173_21
  4390  0394  2B96               	goto	u173_20
  4391  0395                     u173_21:
  4392  0395  2B97               	goto	i1l1571
  4393  0396                     u173_20:
  4394  0396                     i1l1569:
  4395  0396  1466               	bsf	___fladd@bexp,0
  4396  0397                     i1l1571:
  4397  0397  0866               	movf	___fladd@bexp,w
  4398  0398  1903               	btfsc	3,2
  4399  0399  2B9B               	goto	u174_21
  4400  039A  2B9C               	goto	u174_20
  4401  039B                     u174_21:
  4402  039B  2BAC               	goto	i1l1581
  4403  039C                     u174_20:
  4404  039C                     i1l1573:
  4405  039C  0A66               	incf	___fladd@bexp,w
  4406  039D  1D03               	btfss	3,2
  4407  039E  2BA0               	goto	u175_21
  4408  039F  2BA1               	goto	u175_20
  4409  03A0                     u175_21:
  4410  03A0  2BA9               	goto	i1l1577
  4411  03A1                     u175_20:
  4412  03A1                     i1l1575:
  4413  03A1  3000               	movlw	0
  4414  03A2  00D7               	movwf	___fladd@b+3
  4415  03A3  3000               	movlw	0
  4416  03A4  00D6               	movwf	___fladd@b+2
  4417  03A5  3000               	movlw	0
  4418  03A6  00D5               	movwf	___fladd@b+1
  4419  03A7  3000               	movlw	0
  4420  03A8  00D4               	movwf	___fladd@b
  4421  03A9                     i1l1577:
  4422  03A9  17D6               	bsf	___fladd@b+2,7
  4423  03AA                     i1l1579:
  4424  03AA  01D7               	clrf	___fladd@b+3
  4425  03AB  2BB4               	goto	i1l1583
  4426  03AC                     i1l1581:
  4427  03AC  3000               	movlw	0
  4428  03AD  00D7               	movwf	___fladd@b+3
  4429  03AE  3000               	movlw	0
  4430  03AF  00D6               	movwf	___fladd@b+2
  4431  03B0  3000               	movlw	0
  4432  03B1  00D5               	movwf	___fladd@b+1
  4433  03B2  3000               	movlw	0
  4434  03B3  00D4               	movwf	___fladd@b
  4435  03B4                     i1l1583:
  4436  03B4  085B               	movf	___fladd@a+3,w
  4437  03B5  3980               	andlw	128
  4438  03B6  00DC               	movwf	??___fladd
  4439  03B7  085C               	movf	??___fladd,w
  4440  03B8  00E5               	movwf	___fladd@aexp
  4441  03B9                     i1l1585:
  4442  03B9  0865               	movf	___fladd@aexp,w
  4443  03BA  0664               	xorwf	___fladd@signs,w
  4444  03BB  1903               	skipnz
  4445  03BC  2BBE               	goto	u176_21
  4446  03BD  2BBF               	goto	u176_20
  4447  03BE                     u176_21:
  4448  03BE  2BC0               	goto	i1l1589
  4449  03BF                     u176_20:
  4450  03BF                     i1l1587:
  4451  03BF  1764               	bsf	___fladd@signs,6
  4452  03C0                     i1l1589:
  4453  03C0  085B               	movf	___fladd@a+3,w
  4454  03C1  00DC               	movwf	??___fladd
  4455  03C2  075C               	addwf	??___fladd,w
  4456  03C3  00DD               	movwf	??___fladd+1
  4457  03C4  085D               	movf	??___fladd+1,w
  4458  03C5  00E5               	movwf	___fladd@aexp
  4459  03C6                     i1l1591:
  4460  03C6  1FDA               	btfss	___fladd@a+2,7
  4461  03C7  2BC9               	goto	u177_21
  4462  03C8  2BCA               	goto	u177_20
  4463  03C9                     u177_21:
  4464  03C9  2BCB               	goto	i1l1595
  4465  03CA                     u177_20:
  4466  03CA                     i1l1593:
  4467  03CA  1465               	bsf	___fladd@aexp,0
  4468  03CB                     i1l1595:
  4469  03CB  0865               	movf	___fladd@aexp,w
  4470  03CC  1903               	btfsc	3,2
  4471  03CD  2BCF               	goto	u178_21
  4472  03CE  2BD0               	goto	u178_20
  4473  03CF                     u178_21:
  4474  03CF  2BE0               	goto	i1l1605
  4475  03D0                     u178_20:
  4476  03D0                     i1l1597:
  4477  03D0  0A65               	incf	___fladd@aexp,w
  4478  03D1  1D03               	btfss	3,2
  4479  03D2  2BD4               	goto	u179_21
  4480  03D3  2BD5               	goto	u179_20
  4481  03D4                     u179_21:
  4482  03D4  2BDD               	goto	i1l1601
  4483  03D5                     u179_20:
  4484  03D5                     i1l1599:
  4485  03D5  3000               	movlw	0
  4486  03D6  00DB               	movwf	___fladd@a+3
  4487  03D7  3000               	movlw	0
  4488  03D8  00DA               	movwf	___fladd@a+2
  4489  03D9  3000               	movlw	0
  4490  03DA  00D9               	movwf	___fladd@a+1
  4491  03DB  3000               	movlw	0
  4492  03DC  00D8               	movwf	___fladd@a
  4493  03DD                     i1l1601:
  4494  03DD  17DA               	bsf	___fladd@a+2,7
  4495  03DE                     i1l1603:
  4496  03DE  01DB               	clrf	___fladd@a+3
  4497  03DF  2BE8               	goto	i1l538
  4498  03E0                     i1l1605:
  4499  03E0  3000               	movlw	0
  4500  03E1  00DB               	movwf	___fladd@a+3
  4501  03E2  3000               	movlw	0
  4502  03E3  00DA               	movwf	___fladd@a+2
  4503  03E4  3000               	movlw	0
  4504  03E5  00D9               	movwf	___fladd@a+1
  4505  03E6  3000               	movlw	0
  4506  03E7  00D8               	movwf	___fladd@a
  4507  03E8                     i1l538:
  4508  03E8  0866               	movf	___fladd@bexp,w
  4509  03E9  0265               	subwf	___fladd@aexp,w
  4510  03EA  1803               	skipnc
  4511  03EB  2BED               	goto	u180_21
  4512  03EC  2BEE               	goto	u180_20
  4513  03ED                     u180_21:
  4514  03ED  2C32               	goto	i1l1641
  4515  03EE                     u180_20:
  4516  03EE                     i1l1607:
  4517  03EE  1F64               	btfss	___fladd@signs,6
  4518  03EF  2BF1               	goto	u181_21
  4519  03F0  2BF2               	goto	u181_20
  4520  03F1                     u181_21:
  4521  03F1  2BF6               	goto	i1l1611
  4522  03F2                     u181_20:
  4523  03F2                     i1l1609:
  4524  03F2  3080               	movlw	128
  4525  03F3  00DC               	movwf	??___fladd
  4526  03F4  085C               	movf	??___fladd,w
  4527  03F5  06E4               	xorwf	___fladd@signs,f
  4528  03F6                     i1l1611:
  4529  03F6  0866               	movf	___fladd@bexp,w
  4530  03F7  00DC               	movwf	??___fladd
  4531  03F8  085C               	movf	??___fladd,w
  4532  03F9  00E7               	movwf	___fladd@grs
  4533  03FA                     i1l1613:
  4534  03FA  0865               	movf	___fladd@aexp,w
  4535  03FB  00DC               	movwf	??___fladd
  4536  03FC  085C               	movf	??___fladd,w
  4537  03FD  00E6               	movwf	___fladd@bexp
  4538  03FE                     i1l1615:
  4539  03FE  0867               	movf	___fladd@grs,w
  4540  03FF  00DC               	movwf	??___fladd
  4541  0400  085C               	movf	??___fladd,w
  4542  0401  00E5               	movwf	___fladd@aexp
  4543  0402                     i1l1617:
  4544  0402  0854               	movf	___fladd@b,w
  4545  0403  00DC               	movwf	??___fladd
  4546  0404  085C               	movf	??___fladd,w
  4547  0405  00E7               	movwf	___fladd@grs
  4548  0406                     i1l1619:
  4549  0406  0858               	movf	___fladd@a,w
  4550  0407  00DC               	movwf	??___fladd
  4551  0408  085C               	movf	??___fladd,w
  4552  0409  00D4               	movwf	___fladd@b
  4553  040A                     i1l1621:
  4554  040A  0867               	movf	___fladd@grs,w
  4555  040B  00DC               	movwf	??___fladd
  4556  040C  085C               	movf	??___fladd,w
  4557  040D  00D8               	movwf	___fladd@a
  4558  040E                     i1l1623:
  4559  040E  0855               	movf	___fladd@b+1,w
  4560  040F  00DC               	movwf	??___fladd
  4561  0410  085C               	movf	??___fladd,w
  4562  0411  00E7               	movwf	___fladd@grs
  4563  0412                     i1l1625:
  4564  0412  0859               	movf	___fladd@a+1,w
  4565  0413  00DC               	movwf	??___fladd
  4566  0414  085C               	movf	??___fladd,w
  4567  0415  00D5               	movwf	___fladd@b+1
  4568  0416                     i1l1627:
  4569  0416  0867               	movf	___fladd@grs,w
  4570  0417  00DC               	movwf	??___fladd
  4571  0418  085C               	movf	??___fladd,w
  4572  0419  00D9               	movwf	___fladd@a+1
  4573  041A                     i1l1629:
  4574  041A  0856               	movf	___fladd@b+2,w
  4575  041B  00DC               	movwf	??___fladd
  4576  041C  085C               	movf	??___fladd,w
  4577  041D  00E7               	movwf	___fladd@grs
  4578  041E                     i1l1631:
  4579  041E  085A               	movf	___fladd@a+2,w
  4580  041F  00DC               	movwf	??___fladd
  4581  0420  085C               	movf	??___fladd,w
  4582  0421  00D6               	movwf	___fladd@b+2
  4583  0422                     i1l1633:
  4584  0422  0867               	movf	___fladd@grs,w
  4585  0423  00DC               	movwf	??___fladd
  4586  0424  085C               	movf	??___fladd,w
  4587  0425  00DA               	movwf	___fladd@a+2
  4588  0426                     i1l1635:
  4589  0426  0857               	movf	___fladd@b+3,w
  4590  0427  00DC               	movwf	??___fladd
  4591  0428  085C               	movf	??___fladd,w
  4592  0429  00E7               	movwf	___fladd@grs
  4593  042A                     i1l1637:
  4594  042A  085B               	movf	___fladd@a+3,w
  4595  042B  00DC               	movwf	??___fladd
  4596  042C  085C               	movf	??___fladd,w
  4597  042D  00D7               	movwf	___fladd@b+3
  4598  042E                     i1l1639:
  4599  042E  0867               	movf	___fladd@grs,w
  4600  042F  00DC               	movwf	??___fladd
  4601  0430  085C               	movf	??___fladd,w
  4602  0431  00DB               	movwf	___fladd@a+3
  4603  0432                     i1l1641:
  4604  0432  01E7               	clrf	___fladd@grs
  4605  0433                     i1l1643:
  4606  0433  0865               	movf	___fladd@aexp,w
  4607  0434  00DC               	movwf	??___fladd
  4608  0435  01DD               	clrf	??___fladd+1
  4609  0436  085D               	movf	??___fladd+1,w
  4610  0437  00DF               	movwf	??___fladd+3
  4611  0438  0866               	movf	___fladd@bexp,w
  4612  0439  025C               	subwf	??___fladd,w
  4613  043A  00DE               	movwf	??___fladd+2
  4614  043B  1C03               	skipc
  4615  043C  03DF               	decf	??___fladd+3,f
  4616  043D  085F               	movf	??___fladd+3,w
  4617  043E  3A80               	xorlw	128
  4618  043F  00FF               	movwf	btemp+1
  4619  0440  3080               	movlw	128
  4620  0441  027F               	subwf	btemp+1,w
  4621  0442  1D03               	skipz
  4622  0443  2C46               	goto	u182_25
  4623  0444  301A               	movlw	26
  4624  0445  025E               	subwf	??___fladd+2,w
  4625  0446                     u182_25:
  4626  0446  1C03               	skipc
  4627  0447  2C49               	goto	u182_21
  4628  0448  2C4A               	goto	u182_20
  4629  0449                     u182_21:
  4630  0449  2C87               	goto	i1l1659
  4631  044A                     u182_20:
  4632  044A                     i1l1645:
  4633  044A  1283               	bcf	3,5	;RP0=0, select bank0
  4634  044B  1303               	bcf	3,6	;RP1=0, select bank0
  4635  044C  0857               	movf	___fladd@b+3,w
  4636  044D  0456               	iorwf	___fladd@b+2,w
  4637  044E  0455               	iorwf	___fladd@b+1,w
  4638  044F  0454               	iorwf	___fladd@b,w
  4639  0450  1D03               	skipz
  4640  0451  2C53               	goto	u183_21
  4641  0452  2C55               	goto	u183_20
  4642  0453                     u183_21:
  4643  0453  3001               	movlw	1
  4644  0454  2C56               	goto	u184_20
  4645  0455                     u183_20:
  4646  0455  3000               	movlw	0
  4647  0456                     u184_20:
  4648  0456  00DC               	movwf	??___fladd
  4649  0457  085C               	movf	??___fladd,w
  4650  0458  00E7               	movwf	___fladd@grs
  4651  0459  3000               	movlw	0
  4652  045A  00D7               	movwf	___fladd@b+3
  4653  045B  3000               	movlw	0
  4654  045C  00D6               	movwf	___fladd@b+2
  4655  045D  3000               	movlw	0
  4656  045E  00D5               	movwf	___fladd@b+1
  4657  045F  3000               	movlw	0
  4658  0460  00D4               	movwf	___fladd@b
  4659  0461  0865               	movf	___fladd@aexp,w
  4660  0462  00DC               	movwf	??___fladd
  4661  0463  085C               	movf	??___fladd,w
  4662  0464  00E6               	movwf	___fladd@bexp
  4663  0465  2C8F               	goto	i1l542
  4664  0466                     i1l544:
  4665  0466  1C67               	btfss	___fladd@grs,0
  4666  0467  2C69               	goto	u185_21
  4667  0468  2C6A               	goto	u185_20
  4668  0469                     u185_21:
  4669  0469  2C73               	goto	i1l1649
  4670  046A                     u185_20:
  4671  046A                     i1l1647:
  4672  046A  0867               	movf	___fladd@grs,w
  4673  046B  00DC               	movwf	??___fladd
  4674  046C  1003               	clrc
  4675  046D  0C5C               	rrf	??___fladd,w
  4676  046E  3801               	iorlw	1
  4677  046F  00DD               	movwf	??___fladd+1
  4678  0470  085D               	movf	??___fladd+1,w
  4679  0471  00E7               	movwf	___fladd@grs
  4680  0472  2C75               	goto	i1l1651
  4681  0473                     i1l1649:
  4682  0473  1003               	clrc
  4683  0474  0CE7               	rrf	___fladd@grs,f
  4684  0475                     i1l1651:
  4685  0475  1C54               	btfss	___fladd@b,0
  4686  0476  2C78               	goto	u186_21
  4687  0477  2C79               	goto	u186_20
  4688  0478                     u186_21:
  4689  0478  2C7A               	goto	i1l1655
  4690  0479                     u186_20:
  4691  0479                     i1l1653:
  4692  0479  17E7               	bsf	___fladd@grs,7
  4693  047A                     i1l1655:
  4694  047A  3001               	movlw	1
  4695  047B  00DC               	movwf	??___fladd
  4696  047C                     u187_25:
  4697  047C  0D57               	rlf	___fladd@b+3,w
  4698  047D  0CD7               	rrf	___fladd@b+3,f
  4699  047E  0CD6               	rrf	___fladd@b+2,f
  4700  047F  0CD5               	rrf	___fladd@b+1,f
  4701  0480  0CD4               	rrf	___fladd@b,f
  4702  0481  0BDC               	decfsz	??___fladd& (0+127),f
  4703  0482  2C7C               	goto	u187_25
  4704  0483                     i1l1657:
  4705  0483  3001               	movlw	1
  4706  0484  00DC               	movwf	??___fladd
  4707  0485  085C               	movf	??___fladd,w
  4708  0486  07E6               	addwf	___fladd@bexp,f
  4709  0487                     i1l1659:
  4710  0487  1283               	bcf	3,5	;RP0=0, select bank0
  4711  0488  1303               	bcf	3,6	;RP1=0, select bank0
  4712  0489  0865               	movf	___fladd@aexp,w
  4713  048A  0266               	subwf	___fladd@bexp,w
  4714  048B  1C03               	skipc
  4715  048C  2C8E               	goto	u188_21
  4716  048D  2C8F               	goto	u188_20
  4717  048E                     u188_21:
  4718  048E  2C66               	goto	i1l544
  4719  048F                     u188_20:
  4720  048F                     i1l542:
  4721  048F  1B64               	btfsc	___fladd@signs,6
  4722  0490  2C92               	goto	u189_21
  4723  0491  2C93               	goto	u189_20
  4724  0492                     u189_21:
  4725  0492  2CDE               	goto	i1l1685
  4726  0493                     u189_20:
  4727  0493                     i1l1661:
  4728  0493  0866               	movf	___fladd@bexp,w
  4729  0494  1D03               	btfss	3,2
  4730  0495  2C97               	goto	u190_21
  4731  0496  2C98               	goto	u190_20
  4732  0497                     u190_21:
  4733  0497  2CA1               	goto	i1l1667
  4734  0498                     u190_20:
  4735  0498                     i1l1663:
  4736  0498  3000               	movlw	0
  4737  0499  00D7               	movwf	?___fladd+3
  4738  049A  3000               	movlw	0
  4739  049B  00D6               	movwf	?___fladd+2
  4740  049C  3000               	movlw	0
  4741  049D  00D5               	movwf	?___fladd+1
  4742  049E  3000               	movlw	0
  4743  049F  00D4               	movwf	?___fladd
  4744  04A0  2E0C               	goto	i1l551
  4745  04A1                     i1l1667:
  4746  04A1  0858               	movf	___fladd@a,w
  4747  04A2  07D4               	addwf	___fladd@b,f
  4748  04A3  0859               	movf	___fladd@a+1,w
  4749  04A4  1103               	clrz
  4750  04A5  1803               	skipnc
  4751  04A6  3E01               	addlw	1
  4752  04A7  1903               	skipnz
  4753  04A8  2CAA               	goto	u191_21
  4754  04A9  07D5               	addwf	___fladd@b+1,f
  4755  04AA                     u191_21:
  4756  04AA  085A               	movf	___fladd@a+2,w
  4757  04AB  1103               	clrz
  4758  04AC  1803               	skipnc
  4759  04AD  3E01               	addlw	1
  4760  04AE  1903               	skipnz
  4761  04AF  2CB1               	goto	u191_22
  4762  04B0  07D6               	addwf	___fladd@b+2,f
  4763  04B1                     u191_22:
  4764  04B1  085B               	movf	___fladd@a+3,w
  4765  04B2  1103               	clrz
  4766  04B3  1803               	skipnc
  4767  04B4  3E01               	addlw	1
  4768  04B5  1903               	skipnz
  4769  04B6  2CB8               	goto	u191_23
  4770  04B7  07D7               	addwf	___fladd@b+3,f
  4771  04B8                     u191_23:
  4772  04B8                     i1l1669:
  4773  04B8  1C57               	btfss	___fladd@b+3,0
  4774  04B9  2CBB               	goto	u192_21
  4775  04BA  2CBC               	goto	u192_20
  4776  04BB                     u192_21:
  4777  04BB  2D92               	goto	i1l1719
  4778  04BC                     u192_20:
  4779  04BC                     i1l1671:
  4780  04BC  1C67               	btfss	___fladd@grs,0
  4781  04BD  2CBF               	goto	u193_21
  4782  04BE  2CC0               	goto	u193_20
  4783  04BF                     u193_21:
  4784  04BF  2CC9               	goto	i1l1675
  4785  04C0                     u193_20:
  4786  04C0                     i1l1673:
  4787  04C0  0867               	movf	___fladd@grs,w
  4788  04C1  00DC               	movwf	??___fladd
  4789  04C2  1003               	clrc
  4790  04C3  0C5C               	rrf	??___fladd,w
  4791  04C4  3801               	iorlw	1
  4792  04C5  00DD               	movwf	??___fladd+1
  4793  04C6  085D               	movf	??___fladd+1,w
  4794  04C7  00E7               	movwf	___fladd@grs
  4795  04C8  2CCB               	goto	i1l1677
  4796  04C9                     i1l1675:
  4797  04C9  1003               	clrc
  4798  04CA  0CE7               	rrf	___fladd@grs,f
  4799  04CB                     i1l1677:
  4800  04CB  1C54               	btfss	___fladd@b,0
  4801  04CC  2CCE               	goto	u194_21
  4802  04CD  2CCF               	goto	u194_20
  4803  04CE                     u194_21:
  4804  04CE  2CD0               	goto	i1l1681
  4805  04CF                     u194_20:
  4806  04CF                     i1l1679:
  4807  04CF  17E7               	bsf	___fladd@grs,7
  4808  04D0                     i1l1681:
  4809  04D0  3001               	movlw	1
  4810  04D1  00DC               	movwf	??___fladd
  4811  04D2                     u195_25:
  4812  04D2  0D57               	rlf	___fladd@b+3,w
  4813  04D3  0CD7               	rrf	___fladd@b+3,f
  4814  04D4  0CD6               	rrf	___fladd@b+2,f
  4815  04D5  0CD5               	rrf	___fladd@b+1,f
  4816  04D6  0CD4               	rrf	___fladd@b,f
  4817  04D7  0BDC               	decfsz	??___fladd& (0+127),f
  4818  04D8  2CD2               	goto	u195_25
  4819  04D9                     i1l1683:
  4820  04D9  3001               	movlw	1
  4821  04DA  00DC               	movwf	??___fladd
  4822  04DB  085C               	movf	??___fladd,w
  4823  04DC  07E6               	addwf	___fladd@bexp,f
  4824  04DD  2D92               	goto	i1l1719
  4825  04DE                     i1l1685:
  4826  04DE  0857               	movf	___fladd@b+3,w
  4827  04DF  3A80               	xorlw	128
  4828  04E0  00FF               	movwf	btemp+1
  4829  04E1  085B               	movf	___fladd@a+3,w
  4830  04E2  3A80               	xorlw	128
  4831  04E3  027F               	subwf	btemp+1,w
  4832  04E4  1D03               	skipz
  4833  04E5  2CF0               	goto	u196_23
  4834  04E6  085A               	movf	___fladd@a+2,w
  4835  04E7  0256               	subwf	___fladd@b+2,w
  4836  04E8  1D03               	skipz
  4837  04E9  2CF0               	goto	u196_23
  4838  04EA  0859               	movf	___fladd@a+1,w
  4839  04EB  0255               	subwf	___fladd@b+1,w
  4840  04EC  1D03               	skipz
  4841  04ED  2CF0               	goto	u196_23
  4842  04EE  0858               	movf	___fladd@a,w
  4843  04EF  0254               	subwf	___fladd@b,w
  4844  04F0                     u196_23:
  4845  04F0  1803               	skipnc
  4846  04F1  2CF3               	goto	u196_21
  4847  04F2  2CF4               	goto	u196_20
  4848  04F3                     u196_21:
  4849  04F3  2D4C               	goto	i1l1695
  4850  04F4                     u196_20:
  4851  04F4                     i1l1687:
  4852  04F4  30FF               	movlw	255
  4853  04F5  00DC               	movwf	??___fladd
  4854  04F6  30FF               	movlw	255
  4855  04F7  00DD               	movwf	??___fladd+1
  4856  04F8  30FF               	movlw	255
  4857  04F9  00DE               	movwf	??___fladd+2
  4858  04FA  30FF               	movlw	255
  4859  04FB  00DF               	movwf	??___fladd+3
  4860  04FC  0858               	movf	___fladd@a,w
  4861  04FD  00E0               	movwf	??___fladd+4
  4862  04FE  0859               	movf	___fladd@a+1,w
  4863  04FF  00E1               	movwf	??___fladd+5
  4864  0500  085A               	movf	___fladd@a+2,w
  4865  0501  00E2               	movwf	??___fladd+6
  4866  0502  085B               	movf	___fladd@a+3,w
  4867  0503  00E3               	movwf	??___fladd+7
  4868  0504  0854               	movf	___fladd@b,w
  4869  0505  02E0               	subwf	??___fladd+4,f
  4870  0506  0855               	movf	___fladd@b+1,w
  4871  0507  1C03               	skipc
  4872  0508  0F55               	incfsz	___fladd@b+1,w
  4873  0509  2D0B               	goto	u197_21
  4874  050A  2D0C               	goto	u197_22
  4875  050B                     u197_21:
  4876  050B  02E1               	subwf	??___fladd+5,f
  4877  050C                     u197_22:
  4878  050C  0856               	movf	___fladd@b+2,w
  4879  050D  1C03               	skipc
  4880  050E  0F56               	incfsz	___fladd@b+2,w
  4881  050F  2D11               	goto	u197_23
  4882  0510  2D12               	goto	u197_24
  4883  0511                     u197_23:
  4884  0511  02E2               	subwf	??___fladd+6,f
  4885  0512                     u197_24:
  4886  0512  0857               	movf	___fladd@b+3,w
  4887  0513  1C03               	skipc
  4888  0514  0F57               	incfsz	___fladd@b+3,w
  4889  0515  2D17               	goto	u197_25
  4890  0516  2D18               	goto	u197_26
  4891  0517                     u197_25:
  4892  0517  02E3               	subwf	??___fladd+7,f
  4893  0518                     u197_26:
  4894  0518  0860               	movf	??___fladd+4,w
  4895  0519  07DC               	addwf	??___fladd,f
  4896  051A  0861               	movf	??___fladd+5,w
  4897  051B  1803               	skipnc
  4898  051C  0F61               	incfsz	??___fladd+5,w
  4899  051D  2D1F               	goto	u198_20
  4900  051E  2D20               	goto	u198_21
  4901  051F                     u198_20:
  4902  051F  07DD               	addwf	??___fladd+1,f
  4903  0520                     u198_21:
  4904  0520  0862               	movf	??___fladd+6,w
  4905  0521  1803               	skipnc
  4906  0522  0F62               	incfsz	??___fladd+6,w
  4907  0523  2D25               	goto	u198_22
  4908  0524  2D26               	goto	u198_23
  4909  0525                     u198_22:
  4910  0525  07DE               	addwf	??___fladd+2,f
  4911  0526                     u198_23:
  4912  0526  0863               	movf	??___fladd+7,w
  4913  0527  1803               	skipnc
  4914  0528  0A63               	incf	??___fladd+7,w
  4915  0529  07DF               	addwf	??___fladd+3,f
  4916  052A  085F               	movf	??___fladd+3,w
  4917  052B  00D7               	movwf	___fladd@b+3
  4918  052C  085E               	movf	??___fladd+2,w
  4919  052D  00D6               	movwf	___fladd@b+2
  4920  052E  085D               	movf	??___fladd+1,w
  4921  052F  00D5               	movwf	___fladd@b+1
  4922  0530  085C               	movf	??___fladd,w
  4923  0531  00D4               	movwf	___fladd@b
  4924  0532                     i1l1689:
  4925  0532  3080               	movlw	128
  4926  0533  00DC               	movwf	??___fladd
  4927  0534  085C               	movf	??___fladd,w
  4928  0535  06E4               	xorwf	___fladd@signs,f
  4929  0536  09E7               	comf	___fladd@grs,f
  4930  0537  0AE7               	incf	___fladd@grs,f
  4931  0538                     i1l1691:
  4932  0538  0867               	movf	___fladd@grs,w
  4933  0539  1D03               	btfss	3,2
  4934  053A  2D3C               	goto	u199_21
  4935  053B  2D3D               	goto	u199_20
  4936  053C                     u199_21:
  4937  053C  2D5A               	goto	i1l559
  4938  053D                     u199_20:
  4939  053D                     i1l1693:
  4940  053D  3001               	movlw	1
  4941  053E  07D4               	addwf	___fladd@b,f
  4942  053F  3000               	movlw	0
  4943  0540  1803               	skipnc
  4944  0541  3001               	movlw	1
  4945  0542  07D5               	addwf	___fladd@b+1,f
  4946  0543  3000               	movlw	0
  4947  0544  1803               	skipnc
  4948  0545  3001               	movlw	1
  4949  0546  07D6               	addwf	___fladd@b+2,f
  4950  0547  3000               	movlw	0
  4951  0548  1803               	skipnc
  4952  0549  3001               	movlw	1
  4953  054A  07D7               	addwf	___fladd@b+3,f
  4954  054B  2D5A               	goto	i1l559
  4955  054C                     i1l1695:
  4956  054C  0858               	movf	___fladd@a,w
  4957  054D  02D4               	subwf	___fladd@b,f
  4958  054E  0859               	movf	___fladd@a+1,w
  4959  054F  1C03               	skipc
  4960  0550  0F59               	incfsz	___fladd@a+1,w
  4961  0551  02D5               	subwf	___fladd@b+1,f
  4962  0552  085A               	movf	___fladd@a+2,w
  4963  0553  1C03               	skipc
  4964  0554  0F5A               	incfsz	___fladd@a+2,w
  4965  0555  02D6               	subwf	___fladd@b+2,f
  4966  0556  085B               	movf	___fladd@a+3,w
  4967  0557  1C03               	skipc
  4968  0558  0F5B               	incfsz	___fladd@a+3,w
  4969  0559  02D7               	subwf	___fladd@b+3,f
  4970  055A                     i1l559:
  4971  055A  0857               	movf	___fladd@b+3,w
  4972  055B  0456               	iorwf	___fladd@b+2,w
  4973  055C  0455               	iorwf	___fladd@b+1,w
  4974  055D  0454               	iorwf	___fladd@b,w
  4975  055E  1D03               	skipz
  4976  055F  2D61               	goto	u200_21
  4977  0560  2D62               	goto	u200_20
  4978  0561                     u200_21:
  4979  0561  2D8E               	goto	i1l1717
  4980  0562                     u200_20:
  4981  0562                     i1l1697:
  4982  0562  0867               	movf	___fladd@grs,w
  4983  0563  1D03               	btfss	3,2
  4984  0564  2D66               	goto	u201_21
  4985  0565  2D67               	goto	u201_20
  4986  0566                     u201_21:
  4987  0566  2D8E               	goto	i1l1717
  4988  0567                     u201_20:
  4989  0567                     i1l1699:
  4990  0567  3000               	movlw	0
  4991  0568  00D7               	movwf	?___fladd+3
  4992  0569  3000               	movlw	0
  4993  056A  00D6               	movwf	?___fladd+2
  4994  056B  3000               	movlw	0
  4995  056C  00D5               	movwf	?___fladd+1
  4996  056D  3000               	movlw	0
  4997  056E  00D4               	movwf	?___fladd
  4998  056F  2E0C               	goto	i1l551
  4999  0570                     i1l1703:
  5000  0570  3001               	movlw	1
  5001  0571  00DC               	movwf	??___fladd
  5002  0572                     u202_25:
  5003  0572  1003               	clrc
  5004  0573  0DD4               	rlf	___fladd@b,f
  5005  0574  0DD5               	rlf	___fladd@b+1,f
  5006  0575  0DD6               	rlf	___fladd@b+2,f
  5007  0576  0DD7               	rlf	___fladd@b+3,f
  5008  0577  0BDC               	decfsz	??___fladd,f
  5009  0578  2D72               	goto	u202_25
  5010  0579                     i1l1705:
  5011  0579  1FE7               	btfss	___fladd@grs,7
  5012  057A  2D7C               	goto	u203_21
  5013  057B  2D7D               	goto	u203_20
  5014  057C                     u203_21:
  5015  057C  2D7E               	goto	i1l563
  5016  057D                     u203_20:
  5017  057D                     i1l1707:
  5018  057D  1454               	bsf	___fladd@b,0
  5019  057E                     i1l563:
  5020  057E  1C67               	btfss	___fladd@grs,0
  5021  057F  2D81               	goto	u204_21
  5022  0580  2D82               	goto	u204_20
  5023  0581                     u204_21:
  5024  0581  2D85               	goto	i1l1711
  5025  0582                     u204_20:
  5026  0582                     i1l1709:
  5027  0582  1403               	setc
  5028  0583  0DE7               	rlf	___fladd@grs,f
  5029  0584  2D87               	goto	i1l1713
  5030  0585                     i1l1711:
  5031  0585  1003               	clrc
  5032  0586  0DE7               	rlf	___fladd@grs,f
  5033  0587                     i1l1713:
  5034  0587  0866               	movf	___fladd@bexp,w
  5035  0588  1903               	btfsc	3,2
  5036  0589  2D8B               	goto	u205_21
  5037  058A  2D8C               	goto	u205_20
  5038  058B                     u205_21:
  5039  058B  2D8E               	goto	i1l1717
  5040  058C                     u205_20:
  5041  058C                     i1l1715:
  5042  058C  3001               	movlw	1
  5043  058D  02E6               	subwf	___fladd@bexp,f
  5044  058E                     i1l1717:
  5045  058E  1FD6               	btfss	___fladd@b+2,7
  5046  058F  2D91               	goto	u206_21
  5047  0590  2D92               	goto	u206_20
  5048  0591                     u206_21:
  5049  0591  2D70               	goto	i1l1703
  5050  0592                     u206_20:
  5051  0592                     i1l1719:
  5052  0592  01E5               	clrf	___fladd@aexp
  5053  0593                     i1l1721:
  5054  0593  1FE7               	btfss	___fladd@grs,7
  5055  0594  2D96               	goto	u207_21
  5056  0595  2D97               	goto	u207_20
  5057  0596                     u207_21:
  5058  0596  2DA5               	goto	i1l1729
  5059  0597                     u207_20:
  5060  0597                     i1l1723:
  5061  0597  0867               	movf	___fladd@grs,w
  5062  0598  397F               	andlw	127
  5063  0599  1903               	btfsc	3,2
  5064  059A  2D9C               	goto	u208_21
  5065  059B  2D9D               	goto	u208_20
  5066  059C                     u208_21:
  5067  059C  2DA0               	goto	i1l569
  5068  059D                     u208_20:
  5069  059D                     i1l1725:
  5070  059D  01E5               	clrf	___fladd@aexp
  5071  059E  0AE5               	incf	___fladd@aexp,f
  5072  059F  2DA5               	goto	i1l1729
  5073  05A0                     i1l569:
  5074  05A0  1C54               	btfss	___fladd@b,0
  5075  05A1  2DA3               	goto	u209_21
  5076  05A2  2DA4               	goto	u209_20
  5077  05A3                     u209_21:
  5078  05A3  2DA5               	goto	i1l1729
  5079  05A4                     u209_20:
  5080  05A4  2D9D               	goto	i1l1725
  5081  05A5                     i1l1729:
  5082  05A5  0865               	movf	___fladd@aexp,w
  5083  05A6  1903               	btfsc	3,2
  5084  05A7  2DA9               	goto	u210_21
  5085  05A8  2DAA               	goto	u210_20
  5086  05A9                     u210_21:
  5087  05A9  2DDE               	goto	i1l572
  5088  05AA                     u210_20:
  5089  05AA                     i1l1731:
  5090  05AA  3001               	movlw	1
  5091  05AB  07D4               	addwf	___fladd@b,f
  5092  05AC  3000               	movlw	0
  5093  05AD  1803               	skipnc
  5094  05AE  3001               	movlw	1
  5095  05AF  07D5               	addwf	___fladd@b+1,f
  5096  05B0  3000               	movlw	0
  5097  05B1  1803               	skipnc
  5098  05B2  3001               	movlw	1
  5099  05B3  07D6               	addwf	___fladd@b+2,f
  5100  05B4  3000               	movlw	0
  5101  05B5  1803               	skipnc
  5102  05B6  3001               	movlw	1
  5103  05B7  07D7               	addwf	___fladd@b+3,f
  5104  05B8                     i1l1733:
  5105  05B8  1C57               	btfss	___fladd@b+3,0
  5106  05B9  2DBB               	goto	u211_21
  5107  05BA  2DBC               	goto	u211_20
  5108  05BB                     u211_21:
  5109  05BB  2DDE               	goto	i1l572
  5110  05BC                     u211_20:
  5111  05BC                     i1l1735:
  5112  05BC  0854               	movf	___fladd@b,w
  5113  05BD  00DC               	movwf	??___fladd
  5114  05BE  0855               	movf	___fladd@b+1,w
  5115  05BF  00DD               	movwf	??___fladd+1
  5116  05C0  0856               	movf	___fladd@b+2,w
  5117  05C1  00DE               	movwf	??___fladd+2
  5118  05C2  0857               	movf	___fladd@b+3,w
  5119  05C3  00DF               	movwf	??___fladd+3
  5120  05C4  3001               	movlw	1
  5121  05C5  00E0               	movwf	??___fladd+4
  5122  05C6                     u212_25:
  5123  05C6  0D5F               	rlf	??___fladd+3,w
  5124  05C7  0CDF               	rrf	??___fladd+3,f
  5125  05C8  0CDE               	rrf	??___fladd+2,f
  5126  05C9  0CDD               	rrf	??___fladd+1,f
  5127  05CA  0CDC               	rrf	??___fladd,f
  5128  05CB                     u212_20:
  5129  05CB  0BE0               	decfsz	??___fladd+4,f
  5130  05CC  2DC6               	goto	u212_25
  5131  05CD  085F               	movf	??___fladd+3,w
  5132  05CE  00D7               	movwf	___fladd@b+3
  5133  05CF  085E               	movf	??___fladd+2,w
  5134  05D0  00D6               	movwf	___fladd@b+2
  5135  05D1  085D               	movf	??___fladd+1,w
  5136  05D2  00D5               	movwf	___fladd@b+1
  5137  05D3  085C               	movf	??___fladd,w
  5138  05D4  00D4               	movwf	___fladd@b
  5139  05D5  0A66               	incf	___fladd@bexp,w
  5140  05D6  1903               	btfsc	3,2
  5141  05D7  2DD9               	goto	u213_21
  5142  05D8  2DDA               	goto	u213_20
  5143  05D9                     u213_21:
  5144  05D9  2DDE               	goto	i1l572
  5145  05DA                     u213_20:
  5146  05DA                     i1l1737:
  5147  05DA  3001               	movlw	1
  5148  05DB  00DC               	movwf	??___fladd
  5149  05DC  085C               	movf	??___fladd,w
  5150  05DD  07E6               	addwf	___fladd@bexp,f
  5151  05DE                     i1l572:
  5152  05DE  0A66               	incf	___fladd@bexp,w
  5153  05DF  1903               	btfsc	3,2
  5154  05E0  2DE2               	goto	u214_21
  5155  05E1  2DE3               	goto	u214_20
  5156  05E2                     u214_21:
  5157  05E2  2DE8               	goto	i1l1741
  5158  05E3                     u214_20:
  5159  05E3                     i1l1739:
  5160  05E3  0866               	movf	___fladd@bexp,w
  5161  05E4  1D03               	btfss	3,2
  5162  05E5  2DE7               	goto	u215_21
  5163  05E6  2DE8               	goto	u215_20
  5164  05E7                     u215_21:
  5165  05E7  2DF6               	goto	i1l1747
  5166  05E8                     u215_20:
  5167  05E8                     i1l1741:
  5168  05E8  3000               	movlw	0
  5169  05E9  00D7               	movwf	___fladd@b+3
  5170  05EA  3000               	movlw	0
  5171  05EB  00D6               	movwf	___fladd@b+2
  5172  05EC  3000               	movlw	0
  5173  05ED  00D5               	movwf	___fladd@b+1
  5174  05EE  3000               	movlw	0
  5175  05EF  00D4               	movwf	___fladd@b
  5176  05F0                     i1l1743:
  5177  05F0  0866               	movf	___fladd@bexp,w
  5178  05F1  1D03               	btfss	3,2
  5179  05F2  2DF4               	goto	u216_21
  5180  05F3  2DF5               	goto	u216_20
  5181  05F4                     u216_21:
  5182  05F4  2DF6               	goto	i1l1747
  5183  05F5                     u216_20:
  5184  05F5                     i1l1745:
  5185  05F5  01E4               	clrf	___fladd@signs
  5186  05F6                     i1l1747:
  5187  05F6  1C66               	btfss	___fladd@bexp,0
  5188  05F7  2DF9               	goto	u217_21
  5189  05F8  2DFA               	goto	u217_20
  5190  05F9                     u217_21:
  5191  05F9  2DFC               	goto	i1l1751
  5192  05FA                     u217_20:
  5193  05FA                     i1l1749:
  5194  05FA  17D6               	bsf	___fladd@b+2,7
  5195  05FB  2E00               	goto	i1l580
  5196  05FC                     i1l1751:
  5197  05FC  307F               	movlw	127
  5198  05FD  00DC               	movwf	??___fladd
  5199  05FE  085C               	movf	??___fladd,w
  5200  05FF  05D6               	andwf	___fladd@b+2,f
  5201  0600                     i1l580:
  5202  0600  0866               	movf	___fladd@bexp,w
  5203  0601  00DC               	movwf	??___fladd
  5204  0602  1003               	clrc
  5205  0603  0C5C               	rrf	??___fladd,w
  5206  0604  00DD               	movwf	??___fladd+1
  5207  0605  085D               	movf	??___fladd+1,w
  5208  0606  00D7               	movwf	___fladd@b+3
  5209  0607                     i1l1753:
  5210  0607  1FE4               	btfss	___fladd@signs,7
  5211  0608  2E0A               	goto	u218_21
  5212  0609  2E0B               	goto	u218_20
  5213  060A                     u218_21:
  5214  060A  2E0C               	goto	i1l581
  5215  060B                     u218_20:
  5216  060B                     i1l1755:
  5217  060B  17D7               	bsf	___fladd@b+3,7
  5218  060C                     i1l581:
  5219  060C                     i1l551:
  5220  060C  0008               	return
  5221  060D                     __end_of___fladd:
  5222  007E                     btemp	set	126	;btemp
  5223  007E                     wtemp0	set	126
  5224                           
  5225                           	psect	idloc
  5226                           
  5227                           ;Config register IDLOC0 @ 0x2000
  5228                           ;	unspecified, using default values
  5229  2000                     	org	8192
  5230  2000  3FFF               	dw	16383
  5231                           
  5232                           ;Config register IDLOC1 @ 0x2001
  5233                           ;	unspecified, using default values
  5234  2001                     	org	8193
  5235  2001  3FFF               	dw	16383
  5236                           
  5237                           ;Config register IDLOC2 @ 0x2002
  5238                           ;	unspecified, using default values
  5239  2002                     	org	8194
  5240  2002  3FFF               	dw	16383
  5241                           
  5242                           ;Config register IDLOC3 @ 0x2003
  5243                           ;	unspecified, using default values
  5244  2003                     	org	8195
  5245  2003  3FFF               	dw	16383
  5246                           
  5247                           	psect	config
  5248                           
  5249                           ;Config register CONFIG1 @ 0x2007
  5250                           ;	Oscillator Selection bits
  5251                           ;	FOSC = INTRC_NOCLKOUT, INTOSCIO oscillator: I/O function on RA6/OSC2/CLKOUT pin, I/O f
      +                          unction on RA7/OSC1/CLKIN
  5252                           ;	Watchdog Timer Enable bit
  5253                           ;	WDTE = OFF, WDT disabled and can be enabled by SWDTEN bit of the WDTCON register
  5254                           ;	Power-up Timer Enable bit
  5255                           ;	PWRTE = OFF, PWRT disabled
  5256                           ;	RE3/MCLR pin function select bit
  5257                           ;	MCLRE = OFF, RE3/MCLR pin function is digital input, MCLR internally tied to VDD
  5258                           ;	Code Protection bit
  5259                           ;	CP = OFF, Program memory code protection is disabled
  5260                           ;	Data Code Protection bit
  5261                           ;	CPD = OFF, Data memory code protection is disabled
  5262                           ;	Brown Out Reset Selection bits
  5263                           ;	BOREN = OFF, BOR disabled
  5264                           ;	Internal External Switchover bit
  5265                           ;	IESO = OFF, Internal/External Switchover mode is disabled
  5266                           ;	Fail-Safe Clock Monitor Enabled bit
  5267                           ;	FCMEN = OFF, Fail-Safe Clock Monitor is disabled
  5268                           ;	Low Voltage Programming Enable bit
  5269                           ;	LVP = OFF, RB3 pin has digital I/O, HV on MCLR must be used for programming
  5270                           ;	In-Circuit Debugger Mode bit
  5271                           ;	DEBUG = 0x1, unprogrammed default
  5272  2007                     	org	8199
  5273  2007  20D4               	dw	8404
  5274                           
  5275                           ;Config register CONFIG2 @ 0x2008
  5276                           ;	Brown-out Reset Selection bit
  5277                           ;	BOR4V = BOR40V, Brown-out Reset set to 4.0V
  5278                           ;	Flash Program Memory Self Write Enable bits
  5279                           ;	WRT = OFF, Write protection off
  5280  2008                     	org	8200
  5281  2008  3FFF               	dw	16383

Data Sizes:
    Strings     0
    Constant    0
    Data        0
    BSS         11
    Persistent  0
    Stack       0

Auto Spaces:
    Space          Size  Autos    Used
    COMMON           14     14      14
    BANK0            80     80      80
    BANK1            80     19      30
    BANK3            96      0       0
    BANK2            96      0       0

Pointer List with Targets:

    None.

Critical Paths under _main in COMMON

    None.

Critical Paths under _isr in COMMON

    _map->___xxtofl
    ___fltol->___xxtofl
    ___flmul->___xxtofl
    ___fldiv->___xxtofl
    ___fladd->___xxtofl

Critical Paths under _main in BANK0

    None.

Critical Paths under _isr in BANK0

    _isr->_SERVO_1
    _isr->_SERVO_2
    _SERVO_2->_map
    _SERVO_1->_map
    _map->___fltol
    ___fltol->___fladd
    ___flmul->___fldiv
    ___fladd->___flmul

Critical Paths under _main in BANK1

    _main->_setup

Critical Paths under _isr in BANK1

    _isr->_SERVO_1
    _isr->_SERVO_2
    _SERVO_2->_map
    _SERVO_1->_map
    _map->___fltol

Critical Paths under _main in BANK3

    None.

Critical Paths under _isr in BANK3

    None.

Critical Paths under _main in BANK2

    None.

Critical Paths under _isr in BANK2

    None.

Call Graph Tables:

 ---------------------------------------------------------------------------------
 (Depth) Function   	        Calls       Base Space   Used Autos Params    Refs
 ---------------------------------------------------------------------------------
 (0) _main                                                 1     1      0       0
                                             18 BANK1      1     1      0
                              _setup
 ---------------------------------------------------------------------------------
 (1) _setup                                                1     1      0       0
                                             17 BANK1      1     1      0
 ---------------------------------------------------------------------------------
 Estimated maximum stack depth 1
 ---------------------------------------------------------------------------------
 (Depth) Function   	        Calls       Base Space   Used Autos Params    Refs
 ---------------------------------------------------------------------------------
 (2) _isr                                                  4     4      0   15704
                                             13 BANK1      4     4      0
                            _SERVO_1
                            _SERVO_2
                        _read_EEPROM
                       _write_EEPROM
 ---------------------------------------------------------------------------------
 (3) _write_EEPROM                                         4     3      1     348
                                              0 COMMON     4     3      1
 ---------------------------------------------------------------------------------
 (3) _read_EEPROM                                          1     1      0      22
                                              0 COMMON     1     1      0
 ---------------------------------------------------------------------------------
 (3) _SERVO_2                                              3     3      0    7667
                                             79 BANK0      1     1      0
                                             11 BANK1      2     2      0
                                _map
 ---------------------------------------------------------------------------------
 (3) _SERVO_1                                              3     3      0    7667
                                             79 BANK0      1     1      0
                                             11 BANK1      2     2      0
                                _map
 ---------------------------------------------------------------------------------
 (4) _map                                                  7     1      6    7645
                                             78 BANK0      1     1      0
                                              5 BANK1      6     0      6
                            ___fladd
                            ___fldiv
                            ___flmul
                            ___fltol
                           ___xxtofl
 ---------------------------------------------------------------------------------
 (5) ___xxtofl                                            14    10      4     626
                                              0 COMMON    14    10      4
 ---------------------------------------------------------------------------------
 (5) ___fltol                                             11     7      4     305
                                             72 BANK0      6     2      4
                                              0 BANK1      5     5      0
                            ___fladd (ARG)
                            ___fldiv (ARG)
                            ___flmul (ARG)
                           ___xxtofl (ARG)
 ---------------------------------------------------------------------------------
 (5) ___flmul                                             26    18      8    2417
                                             26 BANK0     26    18      8
                          __Umul8_16
                            ___fldiv (ARG)
                           ___xxtofl (ARG)
 ---------------------------------------------------------------------------------
 (6) __Umul8_16                                            9     7      2     799
                                              0 COMMON     9     7      2
 ---------------------------------------------------------------------------------
 (5) ___fldiv                                             26    18      8    1273
                                              0 BANK0     26    18      8
                           ___xxtofl (ARG)
 ---------------------------------------------------------------------------------
 (5) ___fladd                                             20    12      8    2262
                                             52 BANK0     20    12      8
                            ___fldiv (ARG)
                            ___flmul (ARG)
                           ___xxtofl (ARG)
 ---------------------------------------------------------------------------------
 Estimated maximum stack depth 6
 ---------------------------------------------------------------------------------

 Call Graph Graphs:

 _main (ROOT)
   _setup

 _isr (ROOT)
   _SERVO_1
     _map
       ___fladd
         ___fldiv (ARG)
           ___xxtofl (ARG)
         ___flmul (ARG)
           __Umul8_16
           ___fldiv (ARG)
           ___xxtofl (ARG)
         ___xxtofl (ARG)
       ___fldiv
       ___flmul
       ___fltol
         ___fladd (ARG)
         ___fldiv (ARG)
         ___flmul (ARG)
         ___xxtofl (ARG)
       ___xxtofl
   _SERVO_2
     _map
   _read_EEPROM
   _write_EEPROM

 Address spaces:
Name               Size   Autos  Total    Cost      Usage
BITCOMMON            E      0       0       0        0.0%
EEDATA             100      0       0       0        0.0%
NULL                 0      0       0       0        0.0%
CODE                 0      0       0       0        0.0%
COMMON               E      E       E       1      100.0%
BITSFR0              0      0       0       1        0.0%
SFR0                 0      0       0       1        0.0%
BITSFR1              0      0       0       2        0.0%
SFR1                 0      0       0       2        0.0%
STACK                0      0       0       2        0.0%
ABS                  0      0      7C       3        0.0%
BITBANK0            50      0       0       4        0.0%
BITSFR3              0      0       0       4        0.0%
SFR3                 0      0       0       4        0.0%
BANK0               50     50      50       5      100.0%
BITSFR2              0      0       0       5        0.0%
SFR2                 0      0       0       5        0.0%
BITBANK1            50      0       0       6        0.0%
BANK1               50     13      1E       7       37.5%
BITBANK3            60      0       0       8        0.0%
BANK3               60      0       0       9        0.0%
BITBANK2            60      0       0      10        0.0%
BANK2               60      0       0      11        0.0%
DATA                 0      0      7C      12        0.0%


Microchip Technology PIC Macro Assembler V2.35 build 20211206165544 
Symbol Table                                                                                   Sat May 21 12:35:05 2022

           ___fldiv@aexp 0039             ___fldiv@bexp 0038             ___fldiv@sign 0031  
    __Umul8_16@word_mpld 0076                      l141 0CBA                      l143 0CBE  
                    l144 0CD5                      _PR2 0092                      _map 0D72  
                    _isr 0EDE                      _pot 00B3             ___flmul@aexp 004C  
           ___flmul@bexp 004D             ___flmul@sign 0047             ___flmul@temp 0052  
           ___flmul@prod 004E             ___fltol@exp1 006D                     l2131 0C6D  
                   l2141 0C77                     l2133 0C6E                     l2125 0C62  
                   l2151 0C86                     l2143 0C7A                     l2135 0C70  
                   l2127 0C66                     l2161 0C9B                     l2153 0C8B  
                   l2145 0C7D                     l2137 0C73                     l2129 0C67  
                   l2171 0CAE                     l2163 0C9C                     l2155 0C8E  
                   l2147 0C7E                     l2139 0C74                     l2181 0CB9  
                   l2173 0CB4                     l2165 0C9E                     l2157 0C91  
                   l2149 0C83                     l2261 0B99                     l2191 0CD0  
                   l2183 0CC7                     l2175 0CB5                     l2167 0CA1  
                   l2159 0C98                     l2271 0BC2                     l2263 0B9F  
                   l2193 0CD3                     l2185 0CCB                     l2177 0CB6  
                   l2169 0CAC                     l2273 0BC9                     l2265 0BAA  
                   l2195 0CD4                     l2187 0CCC                     l2179 0CB7  
                   l2267 0BB1                     l2259 0B94                     l2189 0CCD  
                   l2269 0BBE                     ?_map 00A5                     ?_isr 0070  
                   _CCP1 00B9                     _CCP2 00B7                     u3207 0C95  
                   u3160 0B9F                     u3161 0B9E                     u3170 0BAA  
                   u3171 0BA9                     u3180 0BBE                     u3181 0BBD  
                   u3197 0BC6                     u2990 0CBE                     u2991 0CBD  
                   _POT1 00BC                     _POT2 00BB          __end_of_SERVO_1 0C10  
        __end_of_SERVO_2 0C62                     _main 0B94                     _pot3 00B5  
                   _modo 00BD                     map@x 006E                     btemp 007E  
                   start 0010          ___fldiv@new_exp 0032             ?_read_EEPROM 0070  
                  ??_map 007E                    ??_isr 00AD            ___fltol@sign1 006C  
        __end_of___fladd 060D                    ?_main 0070          __end_of___fldiv 07EA  
                  _EEADR 010D                    _EEDAT 010C          __end_of___flmul 0385  
        __end_of___fltol 0D72                    _ANSEL 0188                    i1l105 0F7D  
                  i1l150 0C61                    i1l126 0FF5                    i1l153 0E23  
                  i1l147 0C0F                    i1l156 07F6                    i1l431 0D71  
                  i1l159 0B6C                    i1l441 0D71                    i1l610 075B  
                  i1l542 048F                    i1l438 0D5C                    i1l551 060C  
                  i1l544 0466                    i1l616 07CD                    i1l640 02F0  
                  i1l538 03E8                    i1l618 07DD                    i1l634 0384  
                  i1l563 057E                    i1l580 0600                    i1l572 05DE  
                  i1l581 060C                    i1l653 0B81                    i1l646 0378  
                  i1l559 055A                    i1l655 0B93                    i1l680 0EDD  
                  i1l569 05A0                    i1l594 0669                    i1l691 0EA7  
                  i1l596 07E9                    i1l692 0EB3                    i1l684 0E8B  
                  i1l678 0E46                    _PORTA 0005                    _PORTC 0007  
                  _PORTD 0008                    _PORTE 0009                    _TRISA 0085  
                  _TRISC 0087                    _TRISD 0088                    _TRISE 0089  
                  map@x0 00A5                    map@x1 00A6                    map@y0 00A7  
                  map@y1 00A9                    _setup 0C62                    pclath 000A  
                  status 0003                    wtemp0 007E          __initialization 0013  
           __end_of_main 0BD0                   ??_main 00B2             _write_EEPROM 0B4D  
              ??_SERVO_1 00AB                ??_SERVO_2 00AB                   _ADRESH 001E  
                 _CCPR1L 0015                   _CCPR2L 001B                   _EECON2 018D  
                 ?_setup 0070                   _ANSELH 0189                   i1l2001 02D9  
                 i1l2011 0308                   i1l2003 02ED                   i1l2021 0343  
                 i1l2013 030C                   i1l2101 0B6B                   i1l2031 0370  
                 i1l2023 0352                   i1l2015 0325                   i1l2007 02F5  
                 i1l2111 0BD3                   i1l2103 07EB                   i1l2033 0371  
                 i1l2025 035C                   i1l2009 02FA                   i1l2017 032B  
                 i1l2041 0E2A                   i1l2113 0BF0                   i1l2121 0C3E  
                 i1l2105 07EF                   i1l2201 0EE2                   i1l2035 037C  
                 i1l2027 035E                   i1l2019 0338                   i1l2051 0E57  
                 i1l2043 0E2E                   i1l2115 0BFE                   i1l2123 0C4F  
                 i1l2107 07F2                   i1l2211 0EFC                   i1l2203 0EE8  
                 i1l2029 036C                   i1l2061 0E82                   i1l2053 0E5C  
                 i1l2045 0E3E                   i1l2117 0C13                   i1l2221 0F41  
                 i1l2213 0F05                   i1l2205 0EEE                   i1l2071 0EB5  
                 i1l2063 0E92                   i1l2055 0E69                   i1l2047 0E4E  
                 i1l2039 0E25                   i1l2119 0C30                   i1l2231 0F83  
                 i1l2223 0F4A                   i1l2215 0F1D                   i1l2207 0EF6  
                 u200_20 0562                   u200_21 0561                   i1l1601 03DD  
                 i1l1521 0B8A                   i1l1513 0B6E                   i1l2073 0ECB  
                 i1l2065 0E9D                   i1l2057 0E70                   i1l2241 0FB5  
                 i1l2233 0F8A                   i1l2225 0F60                   i1l2217 0F23  
                 i1l2209 0EF7                   i1l1611 03F6                   i1l1603 03DE  
                 i1l1523 0B8F                   i1l1515 0B70                   i1l2075 0ED0  
                 i1l2067 0EA1                   i1l2059 0E74                   i1l2083 0D75  
                 i1l2091 0B57                   i1l2251 0FDF                   i1l2243 0FBD  
                 i1l2235 0F97                   i1l2227 0F65                   i1l2219 0F3C  
                 i1l1621 040A                   i1l1613 03FA                   i1l1605 03E0  
                 i1l1517 0B77                   i1l1541 0D20                   i1l1533 0CF0  
                 i1l2077 0ED4                   i1l2069 0EAB                   i1l2093 0B58  
                 i1l2253 0FEC                   i1l2237 0F9F                   i1l2245 0FC6  
                 i1l2229 0F7B                   i1l1711 0585                   i1l1703 0570  
                 i1l1631 041E                   i1l1623 040E                   i1l1615 03FE  
                 i1l1607 03EE                   i1l1519 0B7B                   i1l1543 0D24  
                 i1l1551 0D42                   i1l1535 0D15                   i1l1527 0CD6  
                 i1l2079 0ED5                   i1l2095 0B5D                   i1l2087 0B4E  
                 i1l2247 0FCB                   i1l2255 0FF2                   i1l2239 0FA8  
                 u201_20 0567                   i1l1721 0593                   i1l1713 0587  
                 i1l1705 0579                   u201_21 0566                   i1l1633 0422  
                 i1l1625 0412                   i1l1617 0402                   i1l1609 03F2  
                 i1l1641 0432                   i1l1801 0681                   i1l1561 0D66  
                 i1l1537 0D16                   i1l1529 0CE7                   i1l2097 0B67  
                 i1l2089 0B54                   i1l2249 0FD8                   i1l1731 05AA  
                 i1l1723 0597                   i1l1715 058C                   i1l1707 057D  
                 i1l1651 0475                   i1l1643 0433                   i1l1635 0426  
                 i1l1627 0416                   i1l1619 0406                   i1l1571 0397  
                 i1l1563 0385                   i1l1811 0698                   i1l1539 0D1E  
                 i1l2099 0B6A                   i1l1741 05E8                   i1l1733 05B8  
                 i1l1725 059D                   i1l1709 0582                   i1l1717 058E  
                 i1l1661 0493                   i1l1653 0479                   i1l1645 044A  
                 i1l1637 042A                   i1l1629 041A                   i1l1573 039C  
                 i1l1581 03AC                   i1l1565 038C                   i1l1821 06C4  
                 i1l1813 06AA                   i1l1805 068A                   i1l1901 002B  
                 i1l1557 0D49                   i1l1549 0D2C                   i1l1751 05FC  
                 i1l1743 05F0                   i1l1735 05BC                   i1l1671 04BC  
                 i1l1719 0592                   i1l1663 0498                   i1l1655 047A  
                 i1l1647 046A                   i1l1639 042E                   i1l1591 03C6  
                 i1l1583 03B4                   i1l1575 03A1                   i1l1567 0392  
                 i1l1823 06C9                   i1l1831 06E9                   i1l1815 06B2  
                 i1l1807 068F                   i1l1911 0040                   i1l1903 0031  
                 i1l1559 0D61                   i1l2199 0EDE                   u210_20 05AA  
                 i1l1753 0607                   i1l1745 05F5                   i1l1737 05DA  
                 u210_21 05A9                   i1l1729 05A5                   i1l1681 04D0  
                 i1l1673 04C0                   i1l1657 0483                   i1l1649 0473  
                 i1l1593 03CA                   i1l1585 03B9                   i1l1577 03A9  
                 i1l1569 0396                   i1l1841 0714                   i1l1833 06FB  
                 i1l1825 06DB                   i1l1817 06BA                   i1l1761 061A  
                 i1l1921 005D                   i1l1913 0048                   i1l1905 0035  
                 i1l1755 060B                   i1l1747 05F6                   i1l1739 05E3  
                 i1l1691 0538                   i1l1683 04D9                   i1l1675 04C9  
                 i1l1667 04A1                   i1l1659 0487                   i1l1595 03CB  
                 i1l1587 03BF                   i1l1579 03AA                   i1l1851 072C  
                 i1l1843 071C                   i1l1835 06FC                   i1l1827 06DF  
                 i1l1819 06C2                   i1l1771 0631                   i1l1763 061E  
                 i1l1931 0074                   i1l1923 0061                   i1l1915 004A  
                 i1l1907 0036                   i1l1749 05FA                   u202_25 0572  
                 i1l1693 053D                   i1l1677 04CB                   i1l1669 04B8  
                 i1l1685 04DE                   i1l1597 03D0                   i1l1589 03C0  
                 i1l1861 0744                   i1l1853 0735                   i1l1845 071E  
                 i1l1837 070A                   i1l1829 06E0                   i1l1781 0647  
                 i1l1773 0632                   i1l1765 061F                   i1l1757 060D  
                 i1l1933 0076                   i1l1925 0062                   i1l1917 0052  
                 i1l1909 003B                   i1l1687 04F4                   i1l1695 054C  
                 i1l1679 04CF                   i1l1599 03D5                   i1l1871 0773  
                 i1l1863 0758                   i1l1847 0727                   i1l1855 073B  
                 i1l1839 070E                   i1l1791 065E                   i1l1783 064B  
                 i1l1767 0624                   i1l1775 0634                   i1l1759 0614  
                 i1l1951 00E7                   i1l1943 0091                   i1l1935 007E  
                 i1l1927 0067                   i1l1919 0057                   u211_20 05BC  
                 u203_20 057D                   u211_21 05BB                   u203_21 057C  
                 i1l1697 0562                   i1l1689 0532                   i1l1881 07B1  
                 i1l1873 0777                   i1l1857 073F                   i1l1849 072B  
                 i1l1793 065F                   i1l1785 064C                   i1l1777 063C  
                 i1l1769 0629                   i1l1961 0164                   i1l1953 0113  
                 i1l1945 00A1                   i1l1937 0083                   i1l1929 006C  
                 i1l1699 0567                   i1l1891 07D7                   i1l1883 07C0  
                 i1l1875 0790                   i1l1867 0760                   i1l1859 0740  
                 i1l1787 0651                   i1l1795 0661                   i1l1779 0641  
                 i1l1971 01E4                   i1l1963 0181                   i1l1955 012F  
                 i1l1947 00AE                   i1l1939 0088                   i1l1893 07D9  
                 i1l1885 07C4                   i1l1869 0765                   i1l1877 0796  
                 i1l1797 0671                   i1l1789 0656                   i1l1981 029C  
                 i1l1973 0211                   i1l1965 0191                   i1l1957 014B  
                 i1l1949 00CB                   i1l1887 07CC                   i1l1879 07A3  
                 i1l1799 067D                   i1l1991 02C1                   i1l1983 02A5  
                 i1l1975 0221                   i1l1967 01AE                   i1l1959 0154  
                 u212_20 05CB                   u204_20 0582                   u220_20 0624  
                 u300_20 0EE2                   u204_21 0581                   i1l1889 07D3  
                 u220_21 0623                   i1l1993 02CA                   i1l1985 02B3  
                 i1l1977 024E                   i1l1969 01C7                   u300_21 0EE1  
                 i1l1987 02BC                   i1l1995 02D0                   i1l1979 0274  
                 i1l1899 0024                   u212_25 05C6                   i1l1997 02D4  
                 i1l1989 02C0                   i1l1999 02D5                   u213_20 05DA  
                 u205_20 058C                   u221_20 0629                   u301_20 0EE8  
                 u213_21 05D9                   u205_21 058B                   u221_21 0628  
                 u301_21 0EE7                   u214_20 05E3                   u206_20 0592  
                 u230_20 06DF                   u222_20 064B                   u310_20 0F8A  
                 u302_20 0EF6                   u214_21 05E2                   u206_21 0591  
                 u230_21 06DE                   u222_21 064A                   u310_21 0F89  
                 u302_21 0EF5                   u215_20 05E8                   u207_20 0597  
                 u223_20 0651                   u311_20 0F97                   u303_20 0EFC  
                 u215_21 05E7                   u207_21 0596                   u223_21 0650  
                 u311_21 0F96                   u303_21 0EFB                   u231_25 06E2  
                 u216_20 05F5                   u208_20 059D                   u240_20 0758  
                 u232_20 06FB                   u224_20 0656                   u160_20 0B7B  
                 u312_20 0FB5                   u304_20 0F05                   u216_21 05F4  
                 u208_21 059C                   u240_21 0757                   u232_21 06FA  
                 u224_21 0655                   u160_21 0B7A                   u312_21 0FB4  
                 u304_21 0F04                   u232_25 06F7                   u217_20 05FA  
                 u209_20 05A4                   u241_20 075F                   u233_20 0714  
                 u225_20 0671                   u313_20 0FCB                   u305_20 0F23  
                 u217_21 05F9                   u209_21 05A3                   u241_21 075E  
                 u233_21 0713                   u225_21 0670                   u313_21 0FCA  
                 u305_21 0F22                   u161_25 0B82                   u321_27 0B62  
                 u218_20 060B                   u242_20 0765                   u234_20 071C  
                 u226_20 068F                   u162_20 0B8F                   u250_20 0040  
                 u314_20 0FD8                   u306_20 0F41                   u218_21 060A  
                 u242_21 0764                   u234_21 071B                   u226_21 068E  
                 u162_21 0B8E                   u250_21 003F                   u314_21 0FD7  
                 u306_21 0F40                   u170_25 0D4D                   u243_20 0777  
                 u227_20 06C9                   u219_20 061E                   u251_20 0061  
                 u171_20 0D61                   u163_20 0CE7                   u315_20 0FEC  
                 u307_20 0F4A                   u243_21 0776                   u227_21 06C8  
                 u219_21 061D                   u251_21 0060                   u171_21 0D60  
                 u163_21 0CE6                   u315_21 0FEB                   u307_21 0F49  
                 u235_25 0720                   u180_20 03EE                   u244_20 0786  
                 u236_20 072B                   u252_20 0067                   u172_20 0D66  
                 u164_20 0D0C                   u308_20 0F65                   u180_21 03ED  
                 u236_21 072A                   u252_21 0066                   u172_21 0D65  
                 u308_21 0F64                   u244_25 0781                   u228_25 06CB  
                 u260_25 014D                   u164_25 0D07                   u181_20 03F2  
                 u173_20 0396                   u245_20 07A3                   u253_20 006C  
                 u165_20 0D24                   u309_20 0F83                   u181_21 03F1  
                 u173_21 0395                   u245_21 07A2                   u261_21 0173  
                 u253_21 006B                   u165_21 0D23                   u309_21 0F82  
                 u261_22 017A                   u261_23 0181                   u245_25 079F  
                 u237_25 072E                   u229_25 06D4                   u190_20 0498  
                 u182_20 044A                   u174_20 039C                   u246_20 07C0  
                 u238_20 073F                   u254_20 0083                   u166_20 0D2B  
                 u190_21 0497                   u182_21 0449                   u174_21 039B  
                 u246_21 07BF                   u238_21 073E                   u270_21 028E  
                 u262_21 01A0                   u254_21 0082                   u166_21 0D2A  
                 u270_22 0295                   u262_22 01A7                   u270_23 029C  
                 u262_23 01AE                   u182_25 0446                   u246_25 07BC  
                 u183_20 0455                   u175_20 03A1                   u247_20 07D7  
                 u239_20 0744                   u255_20 0088                   u191_21 04AA  
                 u183_21 0453                   u175_21 03A0                   u247_21 07D6  
                 u239_21 0743                   u255_21 0087                   u191_22 04B1  
                 u191_23 04B8                   u271_25 029E                   u263_25 01B0  
                 u167_25 0D2D                   u192_20 04BC                   u184_20 0456  
                 u176_20 03BF                   u280_20 030C                   u248_20 0035  
                 u168_20 0D41                   u192_21 04BB                   u176_21 03BE  
                 u280_21 030B                   u264_21 01D6                   u256_21 00D9  
                 u248_21 0034                   u168_21 0D40                   u264_22 01DD  
                 u256_22 00E0                   u264_23 01E4                   u256_23 00E7  
                 u272_25 02B5                   u193_20 04C0                   u185_20 046A  
                 u177_20 03CA                   u281_20 031B                   u273_20 02C0  
                 u249_20 003B                   u169_20 0D48                   u193_21 04BF  
                 u185_21 0469                   u177_21 03C9                   u273_21 02BF  
                 u265_21 0203                   u257_21 00F5                   u249_21 003A  
                 u169_21 0D47                   u265_22 020A                   u257_22 00FC  
                 u265_23 0211                   u257_23 0103                   u281_25 0316  
                 u194_20 04CF                   u186_20 0479                   u178_20 03D0  
                 u282_20 0338                   u194_21 04CE                   u186_21 0478  
                 u178_21 03CF                   u282_21 0337                   u266_21 0230  
                 u258_21 0121                   u266_22 0237                   u258_22 0128  
                 u266_23 023E                   u258_23 012F                   u282_25 0334  
                 u274_25 02C3                   u290_25 0E83                   u179_20 03D5  
                 u283_20 0352                   u275_20 02D4                   u267_20 025A  
                 u291_20 0E91                   u179_21 03D4                   u283_21 0351  
                 u275_21 02D3                   u259_21 013D                   u291_21 0E90  
                 u259_22 0144                   u259_23 014B                   u195_25 04D2  
                 u187_25 047C                   u283_25 034E                   u267_25 0255  
                 u196_20 04F4                   u188_20 048F                   u284_20 0370  
                 u276_20 02D9                   u196_21 04F3                   u188_21 048E  
                 u284_21 036F                   u276_21 02D8                   u268_21 0266  
                 u268_22 026D                   u196_23 04F0                   u268_23 0274  
                 u292_25 0E96                   u189_20 0493                   u277_20 02ED  
                 u269_20 0282                   u293_20 0EA1                   u285_20 0E2A  
                 u197_21 050B                   u189_21 0492                   u277_21 02EC  
                 u293_21 0EA0                   u285_21 0E29                   u197_22 050C  
                 u197_23 0511                   u197_24 0512                   u197_25 0517  
                 u269_25 027D                   u197_26 0518                   u198_20 051F  
                 u278_20 02F4                   u294_20 0EA7                   u286_20 0E2E  
                 u198_21 0520                   u278_21 02F3                   u294_21 0EA6  
                 u286_21 0E2D                   u198_22 0525                   u198_23 0526  
                 u199_20 053D                   u279_20 02FA                   u295_20 0EAB  
                 u287_20 0E4E                   u199_21 053C                   u279_21 02F9  
                 u295_21 0EAA                   u287_21 0E4D                   u296_20 0EC0  
                 u296_25 0EBB                   u288_25 0E61                   u297_20 0ED0  
                 u289_20 0E6F                   u297_21 0ECF                   u289_21 0E6E  
                 u298_20 0ED4                   u298_21 0ED3         __end_of___xxtofl 0EDE  
              ??___fladd 005C                ??___fldiv 0028                ??___flmul 0042  
              ??___fltol 00A0                   saved_w 007E             ___xxtofl@arg 007A  
           ___xxtofl@exp 0079             ___xxtofl@val 0070  __end_of__initialization 0020  
             ___fltol@f1 0068           __pcstackCOMMON 0070            __end_of_setup 0CD6  
     read_EEPROM@address 0070           _OPTION_REGbits 0081         write_EEPROM@data 0070  
                ??_setup 00B1               __pbssBANK1 00B3        __end_of__Umul8_16 0B94  
             __pmaintext 0B94               __pintentry 0004                  _CCP1CON 0017  
                _CCP2CON 001D                ?___xxtofl 0070                  _SERVO_1 0BD0  
                _SERVO_2 0C10                  ___fladd 0385                  ___fldiv 060D  
                ___flmul 0024                  ___fltol 0CD6                  __ptext1 0C62  
                __ptext2 0EDE                  __ptext3 0B4D                  __ptext4 07EA  
                __ptext5 0C10                  __ptext6 0BD0                  __ptext7 0D72  
                __ptext8 0E24                  __ptext9 0CD6                _T2CONbits 0012  
             ??___xxtofl 0074     end_of_initialization 0020      write_EEPROM@address 0073  
              _PORTBbits 0006                _PORTEbits 0009              ___fladd@grs 0067  
          ___xxtofl@sign 0078                _TRISBbits 0086                _TRISCbits 0087  
            ___fldiv@grs 0034              ___fldiv@rem 002D              ___flmul@grs 0048  
            _CCP1CONbits 0017              _CCP2CONbits 001D      start_initialization 0013  
            __end_of_map 0E24              __end_of_isr 1000            ??_read_EEPROM 0070  
              __Umul8_16 0B6D                ___fladd@a 0058                ___fladd@b 0054  
              ___fldiv@a 0020                ___fldiv@b 0024                ___flmul@a 003E  
              ___flmul@b 003A                ___latbits 0002            __pcstackBANK0 0020  
          __pcstackBANK1 00A0                 ?_SERVO_1 0070                 ?_SERVO_2 0070  
               ?___fladd 0054                 ?___fldiv 0020                 ?___flmul 003A  
               ?___fltol 0068               ?__Umul8_16 0070      __end_of_read_EEPROM 07F7  
             SERVO_1@val 006F               SERVO_2@val 006F            ?_write_EEPROM 0070  
      interrupt_function 0004                 _IOCBbits 0096                 _PIE1bits 008C  
               _PIR1bits 000C               _ADCON0bits 001F               _ADCON1bits 009F  
         ??_write_EEPROM 0071                 _WPUBbits 0095               _EECON1bits 018C  
            _read_EEPROM 07EA              ??__Umul8_16 0072                 ___xxtofl 0E24  
               __ptext10 0024                 __ptext11 0B6D                 __ptext12 060D  
               __ptext13 0385               _INTCONbits 000B                 intlevel1 0000  
   __end_of_write_EEPROM 0B6D               _OSCCONbits 008F   __Umul8_16@multiplicand 0070  
          ___fladd@signs 0064             ___fladd@aexp 0065             ___fladd@bexp 0066  
   __Umul8_16@multiplier 0078        __Umul8_16@product 0074  
